ARM GAS  C:\Users\Marco\AppData\Local\Temp\ccmabu9E.s 			page 1


   1              		.cpu cortex-m7
   2              		.eabi_attribute 28, 1
   3              		.eabi_attribute 20, 1
   4              		.eabi_attribute 21, 1
   5              		.eabi_attribute 23, 3
   6              		.eabi_attribute 24, 1
   7              		.eabi_attribute 25, 1
   8              		.eabi_attribute 26, 1
   9              		.eabi_attribute 30, 2
  10              		.eabi_attribute 34, 1
  11              		.eabi_attribute 18, 4
  12              		.file	"LaserHarp.cpp"
  13              		.text
  14              	.Ltext0:
  15              		.cfi_sections	.debug_frame
  16              		.section	.text._ZN5daisy9DaisySeedD2Ev,"axG",%progbits,_ZN5daisy9DaisySeedD5Ev,comdat
  17              		.align	1
  18              		.p2align 2,,3
  19              		.weak	_ZN5daisy9DaisySeedD2Ev
  20              		.arch armv7e-m
  21              		.syntax unified
  22              		.thumb
  23              		.thumb_func
  24              		.fpu fpv5-d16
  26              	_ZN5daisy9DaisySeedD2Ev:
  27              	.LVL0:
  28              	.LFB2555:
  29              		.file 1 "../DaisyExamples/libDaisy/src/daisy_seed.h"
   1:../DaisyExamples/libDaisy/src/daisy_seed.h **** #pragma once
   2:../DaisyExamples/libDaisy/src/daisy_seed.h **** #ifndef DSY_SEED_H
   3:../DaisyExamples/libDaisy/src/daisy_seed.h **** #define DSY_SEED_H
   4:../DaisyExamples/libDaisy/src/daisy_seed.h **** 
   5:../DaisyExamples/libDaisy/src/daisy_seed.h **** #include "daisy.h"
   6:../DaisyExamples/libDaisy/src/daisy_seed.h **** 
   7:../DaisyExamples/libDaisy/src/daisy_seed.h **** //Uncomment this out if you're still using the rev2 hardware
   8:../DaisyExamples/libDaisy/src/daisy_seed.h **** //#define SEED_REV2
   9:../DaisyExamples/libDaisy/src/daisy_seed.h **** 
  10:../DaisyExamples/libDaisy/src/daisy_seed.h **** namespace daisy
  11:../DaisyExamples/libDaisy/src/daisy_seed.h **** {
  12:../DaisyExamples/libDaisy/src/daisy_seed.h **** /**
  13:../DaisyExamples/libDaisy/src/daisy_seed.h ****    @brief This is the higher-level interface for the Daisy board. \n 
  14:../DaisyExamples/libDaisy/src/daisy_seed.h ****     All basic peripheral configuration/initialization is setup here. \n
  15:../DaisyExamples/libDaisy/src/daisy_seed.h **** 
  16:../DaisyExamples/libDaisy/src/daisy_seed.h ****    @ingroup boards
  17:../DaisyExamples/libDaisy/src/daisy_seed.h **** */
  18:../DaisyExamples/libDaisy/src/daisy_seed.h **** class DaisySeed
  19:../DaisyExamples/libDaisy/src/daisy_seed.h **** {
  20:../DaisyExamples/libDaisy/src/daisy_seed.h ****   public:
  21:../DaisyExamples/libDaisy/src/daisy_seed.h ****     DaisySeed() {}
  22:../DaisyExamples/libDaisy/src/daisy_seed.h ****     ~DaisySeed() {}
  30              		.loc 1 22 5 view -0
  31              		.cfi_startproc
  32              		@ args = 0, pretend = 0, frame = 0
  33              		@ frame_needed = 0, uses_anonymous_args = 0
  34              		@ link register save eliminated.
  35              	.LBB98:
  36              	.LBI98:
ARM GAS  C:\Users\Marco\AppData\Local\Temp\ccmabu9E.s 			page 2


  37              		.file 2 "../DaisyExamples/libDaisy/src/sys/system.h"
   1:../DaisyExamples/libDaisy/src/sys/system.h **** #ifndef DSY_SYSTEM_H
   2:../DaisyExamples/libDaisy/src/sys/system.h **** #define DSY_SYSTEM_H
   3:../DaisyExamples/libDaisy/src/sys/system.h **** 
   4:../DaisyExamples/libDaisy/src/sys/system.h **** #ifndef UNIT_TEST // for unit tests, a dummy implementation is provided below
   5:../DaisyExamples/libDaisy/src/sys/system.h **** 
   6:../DaisyExamples/libDaisy/src/sys/system.h **** #include <cstdint>
   7:../DaisyExamples/libDaisy/src/sys/system.h **** #include "per/tim.h"
   8:../DaisyExamples/libDaisy/src/sys/system.h **** 
   9:../DaisyExamples/libDaisy/src/sys/system.h **** namespace daisy
  10:../DaisyExamples/libDaisy/src/sys/system.h **** {
  11:../DaisyExamples/libDaisy/src/sys/system.h **** /** A handle for interacting with the Core System.
  12:../DaisyExamples/libDaisy/src/sys/system.h ****  ** This includes the Clock tree, MPU, global DMA initialization,
  13:../DaisyExamples/libDaisy/src/sys/system.h ****  ** cache handling, and any other necessary global initiailzation
  14:../DaisyExamples/libDaisy/src/sys/system.h ****  **
  15:../DaisyExamples/libDaisy/src/sys/system.h ****  ** @author shensley
  16:../DaisyExamples/libDaisy/src/sys/system.h ****  ** @ingroup system
  17:../DaisyExamples/libDaisy/src/sys/system.h ****  */
  18:../DaisyExamples/libDaisy/src/sys/system.h **** class System
  19:../DaisyExamples/libDaisy/src/sys/system.h **** {
  20:../DaisyExamples/libDaisy/src/sys/system.h ****   public:
  21:../DaisyExamples/libDaisy/src/sys/system.h ****     /** Contains settings for initializing the System */
  22:../DaisyExamples/libDaisy/src/sys/system.h ****     struct Config
  23:../DaisyExamples/libDaisy/src/sys/system.h ****     {
  24:../DaisyExamples/libDaisy/src/sys/system.h ****         /** Specifies the system clock frequency that feeds APB/AHB clocks, etc. */
  25:../DaisyExamples/libDaisy/src/sys/system.h ****         enum class SysClkFreq
  26:../DaisyExamples/libDaisy/src/sys/system.h ****         {
  27:../DaisyExamples/libDaisy/src/sys/system.h ****             FREQ_400MHZ,
  28:../DaisyExamples/libDaisy/src/sys/system.h ****             FREQ_480MHZ,
  29:../DaisyExamples/libDaisy/src/sys/system.h ****         };
  30:../DaisyExamples/libDaisy/src/sys/system.h **** 
  31:../DaisyExamples/libDaisy/src/sys/system.h ****         /** Method to call on the struct to set to defaults
  32:../DaisyExamples/libDaisy/src/sys/system.h ****          ** CPU Freq set to 400MHz
  33:../DaisyExamples/libDaisy/src/sys/system.h ****          ** Cache Enabled
  34:../DaisyExamples/libDaisy/src/sys/system.h ****          ** */
  35:../DaisyExamples/libDaisy/src/sys/system.h ****         void Defaults()
  36:../DaisyExamples/libDaisy/src/sys/system.h ****         {
  37:../DaisyExamples/libDaisy/src/sys/system.h ****             cpu_freq    = SysClkFreq::FREQ_400MHZ;
  38:../DaisyExamples/libDaisy/src/sys/system.h ****             use_dcache  = true;
  39:../DaisyExamples/libDaisy/src/sys/system.h ****             use_icache  = true;
  40:../DaisyExamples/libDaisy/src/sys/system.h ****             skip_clocks = false;
  41:../DaisyExamples/libDaisy/src/sys/system.h ****         }
  42:../DaisyExamples/libDaisy/src/sys/system.h **** 
  43:../DaisyExamples/libDaisy/src/sys/system.h ****         /** Method to call on the struct to set to boost mode:
  44:../DaisyExamples/libDaisy/src/sys/system.h ****          ** CPU Freq set to 480MHz
  45:../DaisyExamples/libDaisy/src/sys/system.h ****          ** Cache Enabled
  46:../DaisyExamples/libDaisy/src/sys/system.h ****          ** */
  47:../DaisyExamples/libDaisy/src/sys/system.h ****         void Boost()
  48:../DaisyExamples/libDaisy/src/sys/system.h ****         {
  49:../DaisyExamples/libDaisy/src/sys/system.h ****             cpu_freq    = SysClkFreq::FREQ_480MHZ;
  50:../DaisyExamples/libDaisy/src/sys/system.h ****             use_dcache  = true;
  51:../DaisyExamples/libDaisy/src/sys/system.h ****             use_icache  = true;
  52:../DaisyExamples/libDaisy/src/sys/system.h ****             skip_clocks = false;
  53:../DaisyExamples/libDaisy/src/sys/system.h ****         }
  54:../DaisyExamples/libDaisy/src/sys/system.h **** 
  55:../DaisyExamples/libDaisy/src/sys/system.h ****         SysClkFreq cpu_freq;
  56:../DaisyExamples/libDaisy/src/sys/system.h ****         bool       use_dcache;
ARM GAS  C:\Users\Marco\AppData\Local\Temp\ccmabu9E.s 			page 3


  57:../DaisyExamples/libDaisy/src/sys/system.h ****         bool       use_icache;
  58:../DaisyExamples/libDaisy/src/sys/system.h ****         bool       skip_clocks;
  59:../DaisyExamples/libDaisy/src/sys/system.h ****     };
  60:../DaisyExamples/libDaisy/src/sys/system.h **** 
  61:../DaisyExamples/libDaisy/src/sys/system.h ****     /** Describes the different regions of memory available to the Daisy */
  62:../DaisyExamples/libDaisy/src/sys/system.h ****     enum MemoryRegion
  63:../DaisyExamples/libDaisy/src/sys/system.h ****     {
  64:../DaisyExamples/libDaisy/src/sys/system.h ****         INTERNAL_FLASH = 0,
  65:../DaisyExamples/libDaisy/src/sys/system.h ****         ITCMRAM,
  66:../DaisyExamples/libDaisy/src/sys/system.h ****         DTCMRAM,
  67:../DaisyExamples/libDaisy/src/sys/system.h ****         SRAM_D1,
  68:../DaisyExamples/libDaisy/src/sys/system.h ****         SRAM_D2,
  69:../DaisyExamples/libDaisy/src/sys/system.h ****         SRAM_D3,
  70:../DaisyExamples/libDaisy/src/sys/system.h ****         SDRAM,
  71:../DaisyExamples/libDaisy/src/sys/system.h ****         QSPI,
  72:../DaisyExamples/libDaisy/src/sys/system.h ****         INVALID_ADDRESS,
  73:../DaisyExamples/libDaisy/src/sys/system.h ****     };
  74:../DaisyExamples/libDaisy/src/sys/system.h **** 
  75:../DaisyExamples/libDaisy/src/sys/system.h ****     /** Bootloader struct for controlling bootloading parameters */
  76:../DaisyExamples/libDaisy/src/sys/system.h ****     struct BootInfo
  77:../DaisyExamples/libDaisy/src/sys/system.h ****     {
  78:../DaisyExamples/libDaisy/src/sys/system.h ****         enum class Type : uint32_t
  79:../DaisyExamples/libDaisy/src/sys/system.h ****         {
  80:../DaisyExamples/libDaisy/src/sys/system.h ****             INVALID      = 0x00000000,
  81:../DaisyExamples/libDaisy/src/sys/system.h ****             JUMP         = 0xDEADBEEF,
  82:../DaisyExamples/libDaisy/src/sys/system.h ****             SKIP_TIMEOUT = 0x5AFEB007,
  83:../DaisyExamples/libDaisy/src/sys/system.h ****             INF_TIMEOUT  = 0xB0074EFA,
  84:../DaisyExamples/libDaisy/src/sys/system.h ****         } status;
  85:../DaisyExamples/libDaisy/src/sys/system.h ****         uint32_t data;
  86:../DaisyExamples/libDaisy/src/sys/system.h ****         enum class Version : uint32_t
  87:../DaisyExamples/libDaisy/src/sys/system.h ****         {
  88:../DaisyExamples/libDaisy/src/sys/system.h ****             LT_v6_0 = 0, // Less than v6.0
  89:../DaisyExamples/libDaisy/src/sys/system.h ****             NONE,        // No bootloader present
  90:../DaisyExamples/libDaisy/src/sys/system.h ****             v6_0,        // v6.0
  91:../DaisyExamples/libDaisy/src/sys/system.h ****             v6_1,        // v6.1 or greater
  92:../DaisyExamples/libDaisy/src/sys/system.h ****             LAST
  93:../DaisyExamples/libDaisy/src/sys/system.h ****         } version;
  94:../DaisyExamples/libDaisy/src/sys/system.h ****     };
  95:../DaisyExamples/libDaisy/src/sys/system.h **** 
  96:../DaisyExamples/libDaisy/src/sys/system.h ****     System() {}
  97:../DaisyExamples/libDaisy/src/sys/system.h ****     ~System() {}
  38              		.loc 2 97 5 view .LVU1
  39              		.loc 2 97 5 is_stmt 0 view .LVU2
  40              	.LBE98:
  41              	.LBB99:
  42              	.LBI99:
  43              		.file 3 "../DaisyExamples/libDaisy/src/hid/usb.h"
   1:../DaisyExamples/libDaisy/src/hid/usb.h **** #pragma once
   2:../DaisyExamples/libDaisy/src/hid/usb.h **** #ifndef DSY_HID_USB_H
   3:../DaisyExamples/libDaisy/src/hid/usb.h **** #define DSY_HID_USB_H
   4:../DaisyExamples/libDaisy/src/hid/usb.h **** #include <stdint.h>
   5:../DaisyExamples/libDaisy/src/hid/usb.h **** #include <stdlib.h>
   6:../DaisyExamples/libDaisy/src/hid/usb.h **** 
   7:../DaisyExamples/libDaisy/src/hid/usb.h **** namespace daisy
   8:../DaisyExamples/libDaisy/src/hid/usb.h **** /** @addtogroup human_interface
   9:../DaisyExamples/libDaisy/src/hid/usb.h ****     @{
  10:../DaisyExamples/libDaisy/src/hid/usb.h **** */
ARM GAS  C:\Users\Marco\AppData\Local\Temp\ccmabu9E.s 			page 4


  11:../DaisyExamples/libDaisy/src/hid/usb.h **** 
  12:../DaisyExamples/libDaisy/src/hid/usb.h **** {
  13:../DaisyExamples/libDaisy/src/hid/usb.h **** /** 
  14:../DaisyExamples/libDaisy/src/hid/usb.h ****     @brief Interface for initializing and using the USB Peripherals on the daisy
  15:../DaisyExamples/libDaisy/src/hid/usb.h ****     @author Stephen Hensley
  16:../DaisyExamples/libDaisy/src/hid/usb.h ****     @date December 2019
  17:../DaisyExamples/libDaisy/src/hid/usb.h **** */
  18:../DaisyExamples/libDaisy/src/hid/usb.h **** class UsbHandle
  19:../DaisyExamples/libDaisy/src/hid/usb.h **** {
  20:../DaisyExamples/libDaisy/src/hid/usb.h ****   public:
  21:../DaisyExamples/libDaisy/src/hid/usb.h ****     /** Return values for USBHandle Functions */
  22:../DaisyExamples/libDaisy/src/hid/usb.h ****     enum class Result
  23:../DaisyExamples/libDaisy/src/hid/usb.h ****     {
  24:../DaisyExamples/libDaisy/src/hid/usb.h ****         OK,
  25:../DaisyExamples/libDaisy/src/hid/usb.h ****         ERR,
  26:../DaisyExamples/libDaisy/src/hid/usb.h ****     };
  27:../DaisyExamples/libDaisy/src/hid/usb.h **** 
  28:../DaisyExamples/libDaisy/src/hid/usb.h ****     /** Specified which of the two USB Peripherals to initialize. */
  29:../DaisyExamples/libDaisy/src/hid/usb.h ****     enum UsbPeriph
  30:../DaisyExamples/libDaisy/src/hid/usb.h ****     {
  31:../DaisyExamples/libDaisy/src/hid/usb.h ****         FS_INTERNAL, /**< Internal pin */
  32:../DaisyExamples/libDaisy/src/hid/usb.h ****         FS_EXTERNAL, /**< FS External D+ pin is Pin 38 (GPIO32). FS External D- pin is Pin 37 (GPIO
  33:../DaisyExamples/libDaisy/src/hid/usb.h ****         FS_BOTH,     /**< Both */
  34:../DaisyExamples/libDaisy/src/hid/usb.h ****     };
  35:../DaisyExamples/libDaisy/src/hid/usb.h **** 
  36:../DaisyExamples/libDaisy/src/hid/usb.h **** 
  37:../DaisyExamples/libDaisy/src/hid/usb.h ****     /** Function called upon reception of a buffer */
  38:../DaisyExamples/libDaisy/src/hid/usb.h ****     typedef void (*ReceiveCallback)(uint8_t* buff, uint32_t* len);
  39:../DaisyExamples/libDaisy/src/hid/usb.h **** 
  40:../DaisyExamples/libDaisy/src/hid/usb.h ****     UsbHandle() {}
  41:../DaisyExamples/libDaisy/src/hid/usb.h **** 
  42:../DaisyExamples/libDaisy/src/hid/usb.h ****     ~UsbHandle() {}
  44              		.loc 3 42 5 is_stmt 1 view .LVU3
  45              		.loc 3 42 5 is_stmt 0 view .LVU4
  46              	.LBE99:
  47              	.LBB100:
  48              	.LBI100:
  49              		.file 4 "../DaisyExamples/libDaisy/src/per/adc.h"
   1:../DaisyExamples/libDaisy/src/per/adc.h **** #pragma once
   2:../DaisyExamples/libDaisy/src/per/adc.h **** #ifndef DSY_ADC_H
   3:../DaisyExamples/libDaisy/src/per/adc.h **** #define DSY_ADC_H /**< Macro */
   4:../DaisyExamples/libDaisy/src/per/adc.h **** #include <stdint.h>
   5:../DaisyExamples/libDaisy/src/per/adc.h **** #include <stdlib.h>
   6:../DaisyExamples/libDaisy/src/per/adc.h **** #include "daisy_core.h"
   7:../DaisyExamples/libDaisy/src/per/adc.h **** #include "per/gpio.h"
   8:../DaisyExamples/libDaisy/src/per/adc.h **** 
   9:../DaisyExamples/libDaisy/src/per/adc.h **** #define DSY_ADC_MAX_CHANNELS 16 /**< Maximum number of ADC channels */
  10:../DaisyExamples/libDaisy/src/per/adc.h **** 
  11:../DaisyExamples/libDaisy/src/per/adc.h **** namespace daisy
  12:../DaisyExamples/libDaisy/src/per/adc.h **** {
  13:../DaisyExamples/libDaisy/src/per/adc.h **** /** @addtogroup per_analog
  14:../DaisyExamples/libDaisy/src/per/adc.h ****     @{
  15:../DaisyExamples/libDaisy/src/per/adc.h **** */
  16:../DaisyExamples/libDaisy/src/per/adc.h **** 
  17:../DaisyExamples/libDaisy/src/per/adc.h **** /* While there may not be many configuration options here,
  18:../DaisyExamples/libDaisy/src/per/adc.h **** using a struct like this allows us to add more configuration
  19:../DaisyExamples/libDaisy/src/per/adc.h **** later without breaking existing functionality.
ARM GAS  C:\Users\Marco\AppData\Local\Temp\ccmabu9E.s 			page 5


  20:../DaisyExamples/libDaisy/src/per/adc.h **** */
  21:../DaisyExamples/libDaisy/src/per/adc.h **** 
  22:../DaisyExamples/libDaisy/src/per/adc.h **** /** @brief   Configuration Structure for an ADC Channel 
  23:../DaisyExamples/libDaisy/src/per/adc.h ****  *  @details This can be used to configure a a single input, 
  24:../DaisyExamples/libDaisy/src/per/adc.h ****  *           or a multiplexed input, allowing up to 8 inputs on 
  25:../DaisyExamples/libDaisy/src/per/adc.h ****  *           one channel.
  26:../DaisyExamples/libDaisy/src/per/adc.h ****  *  @note    Sharing data lines to multiple muxes _is_ possible, but
  27:../DaisyExamples/libDaisy/src/per/adc.h ****  *           each channel sharing data lines must be set to the maximum
  28:../DaisyExamples/libDaisy/src/per/adc.h ****  *           number of channels, even if some multiplexers have fewer
  29:../DaisyExamples/libDaisy/src/per/adc.h ****  *           inputs connected.
  30:../DaisyExamples/libDaisy/src/per/adc.h **** */
  31:../DaisyExamples/libDaisy/src/per/adc.h **** struct AdcChannelConfig
  32:../DaisyExamples/libDaisy/src/per/adc.h **** {
  33:../DaisyExamples/libDaisy/src/per/adc.h ****     /** Which pin to use for multiplexing */
  34:../DaisyExamples/libDaisy/src/per/adc.h ****     enum MuxPin
  35:../DaisyExamples/libDaisy/src/per/adc.h ****     {
  36:../DaisyExamples/libDaisy/src/per/adc.h ****         MUX_SEL_0,    /**< & */
  37:../DaisyExamples/libDaisy/src/per/adc.h ****         MUX_SEL_1,    /**< & */
  38:../DaisyExamples/libDaisy/src/per/adc.h ****         MUX_SEL_2,    /**< & */
  39:../DaisyExamples/libDaisy/src/per/adc.h ****         MUX_SEL_LAST, /**< & */
  40:../DaisyExamples/libDaisy/src/per/adc.h ****     };
  41:../DaisyExamples/libDaisy/src/per/adc.h **** 
  42:../DaisyExamples/libDaisy/src/per/adc.h ****     /** \brief per channel conversion speed added to fixed time based on bitdepth, etc. */
  43:../DaisyExamples/libDaisy/src/per/adc.h ****     enum ConversionSpeed
  44:../DaisyExamples/libDaisy/src/per/adc.h ****     {
  45:../DaisyExamples/libDaisy/src/per/adc.h ****         SPEED_1CYCLES_5,
  46:../DaisyExamples/libDaisy/src/per/adc.h ****         SPEED_2CYCLES_5,
  47:../DaisyExamples/libDaisy/src/per/adc.h ****         SPEED_8CYCLES_5,
  48:../DaisyExamples/libDaisy/src/per/adc.h ****         SPEED_16CYCLES_5,
  49:../DaisyExamples/libDaisy/src/per/adc.h ****         SPEED_32CYCLES_5,
  50:../DaisyExamples/libDaisy/src/per/adc.h ****         SPEED_64CYCLES_5,
  51:../DaisyExamples/libDaisy/src/per/adc.h ****         SPEED_387CYCLES_5,
  52:../DaisyExamples/libDaisy/src/per/adc.h ****         SPEED_810CYCLES_5,
  53:../DaisyExamples/libDaisy/src/per/adc.h ****     };
  54:../DaisyExamples/libDaisy/src/per/adc.h **** 
  55:../DaisyExamples/libDaisy/src/per/adc.h ****     /** Initializes a single ADC pin as an ADC. 
  56:../DaisyExamples/libDaisy/src/per/adc.h ****     \param pin Pin to init.
  57:../DaisyExamples/libDaisy/src/per/adc.h ****     \param speed conversion speed for this pin defaults to 8.5 cycles
  58:../DaisyExamples/libDaisy/src/per/adc.h ****      */
  59:../DaisyExamples/libDaisy/src/per/adc.h ****     void InitSingle(dsy_gpio_pin pin, ConversionSpeed speed = SPEED_8CYCLES_5);
  60:../DaisyExamples/libDaisy/src/per/adc.h **** 
  61:../DaisyExamples/libDaisy/src/per/adc.h ****     /** 
  62:../DaisyExamples/libDaisy/src/per/adc.h ****     Initializes a single ADC pin as a Multiplexed ADC.
  63:../DaisyExamples/libDaisy/src/per/adc.h ****     Requires a CD405X Multiplexer connected to the pin.
  64:../DaisyExamples/libDaisy/src/per/adc.h ****     You only need to supply the mux pins that are required,
  65:../DaisyExamples/libDaisy/src/per/adc.h ****     e.g. a 4052 mux would only require mux_0 and mux_1.
  66:../DaisyExamples/libDaisy/src/per/adc.h ****     Internal Callbacks handle the pin addressing.
  67:../DaisyExamples/libDaisy/src/per/adc.h ****     \param adc_pin &
  68:../DaisyExamples/libDaisy/src/per/adc.h ****     \param mux_channels must be 1-8
  69:../DaisyExamples/libDaisy/src/per/adc.h ****     \param mux_0 First mux pin
  70:../DaisyExamples/libDaisy/src/per/adc.h ****     \param mux_1 Second mux pin
  71:../DaisyExamples/libDaisy/src/per/adc.h ****     \param mux_2 Third mux pin
  72:../DaisyExamples/libDaisy/src/per/adc.h ****     \param speed conversion speed for this pin defaults to 8.5 cycles
  73:../DaisyExamples/libDaisy/src/per/adc.h ****     */
  74:../DaisyExamples/libDaisy/src/per/adc.h ****     void InitMux(dsy_gpio_pin    adc_pin,
  75:../DaisyExamples/libDaisy/src/per/adc.h ****                  size_t          mux_channels,
  76:../DaisyExamples/libDaisy/src/per/adc.h ****                  dsy_gpio_pin    mux_0,
ARM GAS  C:\Users\Marco\AppData\Local\Temp\ccmabu9E.s 			page 6


  77:../DaisyExamples/libDaisy/src/per/adc.h ****                  dsy_gpio_pin    mux_1 = {DSY_GPIOX, 0},
  78:../DaisyExamples/libDaisy/src/per/adc.h ****                  dsy_gpio_pin    mux_2 = {DSY_GPIOX, 0},
  79:../DaisyExamples/libDaisy/src/per/adc.h ****                  ConversionSpeed speed = SPEED_8CYCLES_5);
  80:../DaisyExamples/libDaisy/src/per/adc.h **** 
  81:../DaisyExamples/libDaisy/src/per/adc.h ****     dsy_gpio        pin_;                   /**< & */
  82:../DaisyExamples/libDaisy/src/per/adc.h ****     dsy_gpio        mux_pin_[MUX_SEL_LAST]; /**< & */
  83:../DaisyExamples/libDaisy/src/per/adc.h ****     uint8_t         mux_channels_;          /**< & */
  84:../DaisyExamples/libDaisy/src/per/adc.h ****     ConversionSpeed speed_;
  85:../DaisyExamples/libDaisy/src/per/adc.h **** };
  86:../DaisyExamples/libDaisy/src/per/adc.h **** 
  87:../DaisyExamples/libDaisy/src/per/adc.h **** /**
  88:../DaisyExamples/libDaisy/src/per/adc.h ****    @brief Handler for analog to digital conversion
  89:../DaisyExamples/libDaisy/src/per/adc.h **** */
  90:../DaisyExamples/libDaisy/src/per/adc.h **** class AdcHandle
  91:../DaisyExamples/libDaisy/src/per/adc.h **** {
  92:../DaisyExamples/libDaisy/src/per/adc.h ****   public:
  93:../DaisyExamples/libDaisy/src/per/adc.h ****     /** Supported oversampling amounts */
  94:../DaisyExamples/libDaisy/src/per/adc.h ****     enum OverSampling
  95:../DaisyExamples/libDaisy/src/per/adc.h ****     {
  96:../DaisyExamples/libDaisy/src/per/adc.h ****         OVS_NONE, /**< & */
  97:../DaisyExamples/libDaisy/src/per/adc.h ****         OVS_4,    /**< & */
  98:../DaisyExamples/libDaisy/src/per/adc.h ****         OVS_8,    /**< & */
  99:../DaisyExamples/libDaisy/src/per/adc.h ****         OVS_16,   /**< & */
 100:../DaisyExamples/libDaisy/src/per/adc.h ****         OVS_32,   /**< & */
 101:../DaisyExamples/libDaisy/src/per/adc.h ****         OVS_64,   /**< & */
 102:../DaisyExamples/libDaisy/src/per/adc.h ****         OVS_128,  /**< & */
 103:../DaisyExamples/libDaisy/src/per/adc.h ****         OVS_256,  /**< & */
 104:../DaisyExamples/libDaisy/src/per/adc.h ****         OVS_512,  /**< & */
 105:../DaisyExamples/libDaisy/src/per/adc.h ****         OVS_1024, /**< & */
 106:../DaisyExamples/libDaisy/src/per/adc.h ****         OVS_LAST, /**< & */
 107:../DaisyExamples/libDaisy/src/per/adc.h ****     };
 108:../DaisyExamples/libDaisy/src/per/adc.h **** 
 109:../DaisyExamples/libDaisy/src/per/adc.h ****     AdcHandle() {}
 110:../DaisyExamples/libDaisy/src/per/adc.h ****     ~AdcHandle() {}
  50              		.loc 4 110 5 is_stmt 1 view .LVU5
  51              		.loc 4 110 5 is_stmt 0 view .LVU6
  52              	.LBE100:
  53              	.LBB101:
  54              	.LBI101:
  55              		.file 5 "../DaisyExamples/libDaisy/src/hid/audio.h"
   1:../DaisyExamples/libDaisy/src/hid/audio.h **** #ifndef DSY_AUDIO_H
   2:../DaisyExamples/libDaisy/src/hid/audio.h **** #define DSY_AUDIO_H /**< & */
   3:../DaisyExamples/libDaisy/src/hid/audio.h **** 
   4:../DaisyExamples/libDaisy/src/hid/audio.h **** #include "per/sai.h"
   5:../DaisyExamples/libDaisy/src/hid/audio.h **** 
   6:../DaisyExamples/libDaisy/src/hid/audio.h **** namespace daisy
   7:../DaisyExamples/libDaisy/src/hid/audio.h **** {
   8:../DaisyExamples/libDaisy/src/hid/audio.h **** /** @brief Audio Engine Handle
   9:../DaisyExamples/libDaisy/src/hid/audio.h ****  *  @ingroup audio 
  10:../DaisyExamples/libDaisy/src/hid/audio.h ****  *  @details This class allows for higher level access to an audio engine.
  11:../DaisyExamples/libDaisy/src/hid/audio.h ****  *           If you're using a SOM like the DaisySeed or DaisyPatchSM (or any 
  12:../DaisyExamples/libDaisy/src/hid/audio.h ****  *            board that includes one of those objects) then the intialization
  13:../DaisyExamples/libDaisy/src/hid/audio.h ****  *            is already taken  care of.
  14:../DaisyExamples/libDaisy/src/hid/audio.h ****  *           If you're setting up your own custom hardware, or need to make changes
  15:../DaisyExamples/libDaisy/src/hid/audio.h ****  *           you will have to take the following steps:
  16:../DaisyExamples/libDaisy/src/hid/audio.h ****  *             1. Create and Initialize an SaiHandle or two depending on your requirements
  17:../DaisyExamples/libDaisy/src/hid/audio.h ****  *             2. Initialize the Audio Handle with the desired settings and the Initialized SaiHand
ARM GAS  C:\Users\Marco\AppData\Local\Temp\ccmabu9E.s 			page 7


  18:../DaisyExamples/libDaisy/src/hid/audio.h ****  *             3. If the connected codec requires special configuration or initialization, do so
  19:../DaisyExamples/libDaisy/src/hid/audio.h ****  *             4. Write a callback method using either the AudioCallback or the InterleavingAudioCa
  20:../DaisyExamples/libDaisy/src/hid/audio.h ****  *             5. Start the Audio using one of the StartAudio function
  21:../DaisyExamples/libDaisy/src/hid/audio.h ****  */
  22:../DaisyExamples/libDaisy/src/hid/audio.h **** class AudioHandle
  23:../DaisyExamples/libDaisy/src/hid/audio.h **** {
  24:../DaisyExamples/libDaisy/src/hid/audio.h ****   public:
  25:../DaisyExamples/libDaisy/src/hid/audio.h ****     /** Manually configurable details about the Audio Engine */
  26:../DaisyExamples/libDaisy/src/hid/audio.h ****     /** TODO: Figure out how to get samplerate in here. */
  27:../DaisyExamples/libDaisy/src/hid/audio.h ****     struct Config
  28:../DaisyExamples/libDaisy/src/hid/audio.h ****     {
  29:../DaisyExamples/libDaisy/src/hid/audio.h ****         /** number of samples to process per callback */
  30:../DaisyExamples/libDaisy/src/hid/audio.h ****         size_t blocksize;
  31:../DaisyExamples/libDaisy/src/hid/audio.h **** 
  32:../DaisyExamples/libDaisy/src/hid/audio.h ****         /**< Sample rate of audio */
  33:../DaisyExamples/libDaisy/src/hid/audio.h ****         SaiHandle::Config::SampleRate samplerate;
  34:../DaisyExamples/libDaisy/src/hid/audio.h **** 
  35:../DaisyExamples/libDaisy/src/hid/audio.h ****         /** factor for adjustment before and after callback for hardware that may have extra headro
  36:../DaisyExamples/libDaisy/src/hid/audio.h ****         float postgain;
  37:../DaisyExamples/libDaisy/src/hid/audio.h **** 
  38:../DaisyExamples/libDaisy/src/hid/audio.h ****         /** factor for additional one-sided compensation to audio path for hardware that may
  39:../DaisyExamples/libDaisy/src/hid/audio.h ****          *  have unequal input/output ranges
  40:../DaisyExamples/libDaisy/src/hid/audio.h ****          */
  41:../DaisyExamples/libDaisy/src/hid/audio.h ****         float output_compensation;
  42:../DaisyExamples/libDaisy/src/hid/audio.h **** 
  43:../DaisyExamples/libDaisy/src/hid/audio.h ****         /** Sets default values for config struct */
  44:../DaisyExamples/libDaisy/src/hid/audio.h ****         Config()
  45:../DaisyExamples/libDaisy/src/hid/audio.h ****         : blocksize(48),
  46:../DaisyExamples/libDaisy/src/hid/audio.h ****           samplerate(SaiHandle::Config::SampleRate::SAI_48KHZ),
  47:../DaisyExamples/libDaisy/src/hid/audio.h ****           postgain(1.f),
  48:../DaisyExamples/libDaisy/src/hid/audio.h ****           output_compensation(1.f)
  49:../DaisyExamples/libDaisy/src/hid/audio.h ****         {
  50:../DaisyExamples/libDaisy/src/hid/audio.h ****         }
  51:../DaisyExamples/libDaisy/src/hid/audio.h ****     };
  52:../DaisyExamples/libDaisy/src/hid/audio.h **** 
  53:../DaisyExamples/libDaisy/src/hid/audio.h ****     enum class Result
  54:../DaisyExamples/libDaisy/src/hid/audio.h ****     {
  55:../DaisyExamples/libDaisy/src/hid/audio.h ****         OK,
  56:../DaisyExamples/libDaisy/src/hid/audio.h ****         ERR,
  57:../DaisyExamples/libDaisy/src/hid/audio.h ****     };
  58:../DaisyExamples/libDaisy/src/hid/audio.h **** 
  59:../DaisyExamples/libDaisy/src/hid/audio.h ****     /** Non-Interleaving input buffer
  60:../DaisyExamples/libDaisy/src/hid/audio.h ****      * Buffer arranged by float[chn][sample] 
  61:../DaisyExamples/libDaisy/src/hid/audio.h ****      * const so that the user can't modify the input
  62:../DaisyExamples/libDaisy/src/hid/audio.h ****      */
  63:../DaisyExamples/libDaisy/src/hid/audio.h ****     typedef const float* const* InputBuffer;
  64:../DaisyExamples/libDaisy/src/hid/audio.h **** 
  65:../DaisyExamples/libDaisy/src/hid/audio.h ****     /** Non-Interleaving output buffer
  66:../DaisyExamples/libDaisy/src/hid/audio.h ****      * Arranged by float[chn][sample] 
  67:../DaisyExamples/libDaisy/src/hid/audio.h ****      */
  68:../DaisyExamples/libDaisy/src/hid/audio.h ****     typedef float** OutputBuffer;
  69:../DaisyExamples/libDaisy/src/hid/audio.h **** 
  70:../DaisyExamples/libDaisy/src/hid/audio.h ****     /** Type for a Non-Interleaving audio callback 
  71:../DaisyExamples/libDaisy/src/hid/audio.h ****      * Non-Interleaving audio callbacks in daisy will be of this type
  72:../DaisyExamples/libDaisy/src/hid/audio.h ****      */
  73:../DaisyExamples/libDaisy/src/hid/audio.h ****     typedef void (*AudioCallback)(InputBuffer  in,
  74:../DaisyExamples/libDaisy/src/hid/audio.h ****                                   OutputBuffer out,
ARM GAS  C:\Users\Marco\AppData\Local\Temp\ccmabu9E.s 			page 8


  75:../DaisyExamples/libDaisy/src/hid/audio.h ****                                   size_t       size);
  76:../DaisyExamples/libDaisy/src/hid/audio.h **** 
  77:../DaisyExamples/libDaisy/src/hid/audio.h ****     /** Interleaving Input buffer
  78:../DaisyExamples/libDaisy/src/hid/audio.h ****      ** audio is prepared as { L0, R0, L1, R1, . . . LN, RN }]
  79:../DaisyExamples/libDaisy/src/hid/audio.h ****      ** this is const, as the user shouldn't modify it
  80:../DaisyExamples/libDaisy/src/hid/audio.h ****     */
  81:../DaisyExamples/libDaisy/src/hid/audio.h ****     typedef const float* InterleavingInputBuffer;
  82:../DaisyExamples/libDaisy/src/hid/audio.h **** 
  83:../DaisyExamples/libDaisy/src/hid/audio.h ****     /** Interleaving Output buffer 
  84:../DaisyExamples/libDaisy/src/hid/audio.h ****      ** audio is prepared as { L0, R0, L1, R1, . . . LN, RN }
  85:../DaisyExamples/libDaisy/src/hid/audio.h ****     */
  86:../DaisyExamples/libDaisy/src/hid/audio.h ****     typedef float* InterleavingOutputBuffer;
  87:../DaisyExamples/libDaisy/src/hid/audio.h **** 
  88:../DaisyExamples/libDaisy/src/hid/audio.h ****     /** Interleaving Audio Callback 
  89:../DaisyExamples/libDaisy/src/hid/audio.h ****      * Interleaving audio callbacks in daisy must be of this type
  90:../DaisyExamples/libDaisy/src/hid/audio.h ****      */
  91:../DaisyExamples/libDaisy/src/hid/audio.h ****     typedef void (*InterleavingAudioCallback)(InterleavingInputBuffer  in,
  92:../DaisyExamples/libDaisy/src/hid/audio.h ****                                               InterleavingOutputBuffer out,
  93:../DaisyExamples/libDaisy/src/hid/audio.h ****                                               size_t                   size);
  94:../DaisyExamples/libDaisy/src/hid/audio.h **** 
  95:../DaisyExamples/libDaisy/src/hid/audio.h ****     AudioHandle() : pimpl_(nullptr) {}
  96:../DaisyExamples/libDaisy/src/hid/audio.h ****     ~AudioHandle() {}
  56              		.loc 5 96 5 is_stmt 1 view .LVU7
  57              		.loc 5 96 5 is_stmt 0 view .LVU8
  58              	.LBE101:
  59              		.loc 1 22 19 view .LVU9
  60 0000 7047     		bx	lr
  61              		.cfi_endproc
  62              	.LFE2555:
  64              		.weak	_ZN5daisy9DaisySeedD1Ev
  65              		.thumb_set _ZN5daisy9DaisySeedD1Ev,_ZN5daisy9DaisySeedD2Ev
  66 0002 00BF     		.section	.text._Z13AudioCallbackPKPKfPPfj,"ax",%progbits
  67              		.align	1
  68              		.p2align 2,,3
  69              		.global	_Z13AudioCallbackPKPKfPPfj
  70              		.syntax unified
  71              		.thumb
  72              		.thumb_func
  73              		.fpu fpv5-d16
  75              	_Z13AudioCallbackPKPKfPPfj:
  76              	.LVL1:
  77              	.LFB4681:
  78              		.file 6 "LaserHarp.cpp"
   1:LaserHarp.cpp **** #include "daisy_seed.h"
   2:LaserHarp.cpp **** #include "MidiController.h"
   3:LaserHarp.cpp **** #include "AudioSynthesizer.h"
   4:LaserHarp.cpp **** #include "ConfigManager.h"
   5:LaserHarp.cpp **** 
   6:LaserHarp.cpp **** // ==============================================================================
   7:LaserHarp.cpp **** // LASER HARP - Daisy Seed MIDI/Audio Controller
   8:LaserHarp.cpp **** // ==============================================================================
   9:LaserHarp.cpp **** // Arduino handles: Stepper motor, laser, LDR sensors, beam detection
  10:LaserHarp.cpp **** // Daisy handles: 7 digital inputs → MIDI output + Audio synthesis
  11:LaserHarp.cpp **** // ==============================================================================
  12:LaserHarp.cpp **** 
  13:LaserHarp.cpp **** using namespace daisy;
  14:LaserHarp.cpp **** using namespace daisy::seed;
ARM GAS  C:\Users\Marco\AppData\Local\Temp\ccmabu9E.s 			page 9


  15:LaserHarp.cpp **** 
  16:LaserHarp.cpp **** // Hardware
  17:LaserHarp.cpp **** DaisySeed hardware;
  18:LaserHarp.cpp **** 
  19:LaserHarp.cpp **** // System components
  20:LaserHarp.cpp **** ConfigManager configManager;
  21:LaserHarp.cpp **** MidiController midiController;
  22:LaserHarp.cpp **** AudioSynthesizer audioSynthesizer;
  23:LaserHarp.cpp **** 
  24:LaserHarp.cpp **** // 7 Digital inputs from Arduino (beam detection signals)
  25:LaserHarp.cpp **** GPIO beamInputs[7];
  26:LaserHarp.cpp **** bool beamStates[7];          // Current state of each beam
  27:LaserHarp.cpp **** bool previousBeamStates[7];  // Previous state for edge detection
  28:LaserHarp.cpp **** uint32_t lastDebounceTime[7]; // Debounce timing
  29:LaserHarp.cpp **** const uint32_t DEBOUNCE_DELAY_MS = 20; // 20ms debounce
  30:LaserHarp.cpp **** 
  31:LaserHarp.cpp **** // MIDI note mapping (configured from ConfigManager)
  32:LaserHarp.cpp **** uint8_t beamNotes[7];
  33:LaserHarp.cpp **** 
  34:LaserHarp.cpp **** // Audio callback
  35:LaserHarp.cpp **** void AudioCallback(AudioHandle::InputBuffer in, AudioHandle::OutputBuffer out, size_t size) {
  79              		.loc 6 35 93 is_stmt 1 view -0
  80              		.cfi_startproc
  81              		@ args = 0, pretend = 0, frame = 0
  82              		@ frame_needed = 0, uses_anonymous_args = 0
  83              		@ link register save eliminated.
  36:LaserHarp.cpp ****     // Process audio synthesis
  37:LaserHarp.cpp ****     audioSynthesizer.ProcessStereo(out[0], out[1], size);
  84              		.loc 6 37 5 view .LVU11
  35:LaserHarp.cpp ****     // Process audio synthesis
  85              		.loc 6 35 93 is_stmt 0 view .LVU12
  86 0000 1346     		mov	r3, r2
  87              		.loc 6 37 35 view .LVU13
  88 0002 0248     		ldr	r0, .L4
  89              	.LVL2:
  90              		.loc 6 37 35 view .LVU14
  91 0004 D1E90012 		ldrd	r1, r2, [r1]
  92              	.LVL3:
  93              		.loc 6 37 35 view .LVU15
  94 0008 FFF7FEBF 		b	_ZN16AudioSynthesizer13ProcessStereoEPfS0_j
  95              	.LVL4:
  96              	.L5:
  97              		.loc 6 37 35 view .LVU16
  98              		.align	2
  99              	.L4:
 100 000c 00000000 		.word	audioSynthesizer
 101              		.cfi_endproc
 102              	.LFE4681:
 104              		.section	.text._Z16InitializeSystemv,"ax",%progbits
 105              		.align	1
 106              		.p2align 2,,3
 107              		.global	_Z16InitializeSystemv
 108              		.syntax unified
 109              		.thumb
 110              		.thumb_func
 111              		.fpu fpv5-d16
 113              	_Z16InitializeSystemv:
ARM GAS  C:\Users\Marco\AppData\Local\Temp\ccmabu9E.s 			page 10


 114              	.LFB4682:
  38:LaserHarp.cpp **** }
  39:LaserHarp.cpp **** 
  40:LaserHarp.cpp **** // Initialize system
  41:LaserHarp.cpp **** void InitializeSystem() {
 115              		.loc 6 41 25 is_stmt 1 view -0
 116              		.cfi_startproc
 117              		@ args = 0, pretend = 0, frame = 8
 118              		@ frame_needed = 0, uses_anonymous_args = 0
  42:LaserHarp.cpp ****     // Initialize hardware
  43:LaserHarp.cpp ****     hardware.Configure();
 119              		.loc 6 43 5 view .LVU18
  41:LaserHarp.cpp ****     // Initialize hardware
 120              		.loc 6 41 25 is_stmt 0 view .LVU19
 121 0000 2DE9F04F 		push	{r4, r5, r6, r7, r8, r9, r10, fp, lr}
 122              		.cfi_def_cfa_offset 36
 123              		.cfi_offset 4, -36
 124              		.cfi_offset 5, -32
 125              		.cfi_offset 6, -28
 126              		.cfi_offset 7, -24
 127              		.cfi_offset 8, -20
 128              		.cfi_offset 9, -16
 129              		.cfi_offset 10, -12
 130              		.cfi_offset 11, -8
 131              		.cfi_offset 14, -4
 132              		.loc 6 43 23 view .LVU20
 133 0004 5748     		ldr	r0, .L25
  41:LaserHarp.cpp ****     // Initialize hardware
 134              		.loc 6 41 25 view .LVU21
 135 0006 85B0     		sub	sp, sp, #20
 136              		.cfi_def_cfa_offset 56
 137 0008 DFF894B1 		ldr	fp, .L25+60
  44:LaserHarp.cpp ****     hardware.Init();
  45:LaserHarp.cpp ****     hardware.SetAudioBlockSize(48); // 48 samples = 1ms @ 48kHz
  46:LaserHarp.cpp ****     
  47:LaserHarp.cpp ****     // Initialize configuration
  48:LaserHarp.cpp ****     configManager.Init();
 138              		.loc 6 48 23 view .LVU22
 139 000c 0124     		movs	r4, #1
 140 000e DFF894A1 		ldr	r10, .L25+64
  43:LaserHarp.cpp ****     hardware.Init();
 141              		.loc 6 43 23 view .LVU23
 142 0012 FFF7FEFF 		bl	_ZN5daisy9DaisySeed9ConfigureEv
 143              	.LVL5:
  44:LaserHarp.cpp ****     hardware.Init();
 144              		.loc 6 44 5 is_stmt 1 view .LVU24
  44:LaserHarp.cpp ****     hardware.Init();
 145              		.loc 6 44 18 is_stmt 0 view .LVU25
 146 0016 0021     		movs	r1, #0
 147 0018 5248     		ldr	r0, .L25
 148 001a FFF7FEFF 		bl	_ZN5daisy9DaisySeed4InitEb
 149              	.LVL6:
  45:LaserHarp.cpp ****     
 150              		.loc 6 45 5 is_stmt 1 view .LVU26
 151 001e DFF88881 		ldr	r8, .L25+68
  45:LaserHarp.cpp ****     
 152              		.loc 6 45 31 is_stmt 0 view .LVU27
ARM GAS  C:\Users\Marco\AppData\Local\Temp\ccmabu9E.s 			page 11


 153 0022 3021     		movs	r1, #48
 154 0024 4F48     		ldr	r0, .L25
 155 0026 5F46     		mov	r7, fp
 156 0028 5646     		mov	r6, r10
 157 002a 4F4D     		ldr	r5, .L25+4
 158              		.loc 6 48 23 view .LVU28
 159 002c A146     		mov	r9, r4
  45:LaserHarp.cpp ****     
 160              		.loc 6 45 31 view .LVU29
 161 002e FFF7FEFF 		bl	_ZN5daisy9DaisySeed17SetAudioBlockSizeEj
 162              	.LVL7:
 163              		.loc 6 48 5 is_stmt 1 view .LVU30
 164              		.loc 6 48 23 is_stmt 0 view .LVU31
 165 0032 4E48     		ldr	r0, .L25+8
 166 0034 FFF7FEFF 		bl	_ZN13ConfigManager4InitEv
 167              	.LVL8:
  49:LaserHarp.cpp ****     
  50:LaserHarp.cpp ****     // Configure 7 digital input pins from Arduino
  51:LaserHarp.cpp ****     // Using pins D0-D6 as inputs with pull-down resistors
  52:LaserHarp.cpp ****     for (int i = 0; i < 7; i++) {
 168              		.loc 6 52 5 is_stmt 1 view .LVU32
 169              	.LBB102:
 170              		.loc 6 52 23 view .LVU33
 171              	.L18:
 172              	.LBB103:
  53:LaserHarp.cpp ****         Pin inputPin;
 173              		.loc 6 53 9 view .LVU34
  54:LaserHarp.cpp ****         switch(i) {
 174              		.loc 6 54 9 view .LVU35
 175 0038 A9F10203 		sub	r3, r9, #2
 176 003c 052B     		cmp	r3, #5
 177 003e 7ED8     		bhi	.L7
 178 0040 DFE803F0 		tbb	[pc, r3]
 179              	.L9:
 180 0044 78       		.byte	(.L14-.L9)/2
 181 0045 73       		.byte	(.L13-.L9)/2
 182 0046 6E       		.byte	(.L12-.L9)/2
 183 0047 69       		.byte	(.L11-.L9)/2
 184 0048 52       		.byte	(.L10-.L9)/2
 185 0049 03       		.byte	(.L8-.L9)/2
 186              		.p2align 1
 187              	.L8:
  55:LaserHarp.cpp ****             case 0: inputPin = D0; break;
  56:LaserHarp.cpp ****             case 1: inputPin = D1; break;
  57:LaserHarp.cpp ****             case 2: inputPin = D2; break;
  58:LaserHarp.cpp ****             case 3: inputPin = D3; break;
  59:LaserHarp.cpp ****             case 4: inputPin = D4; break;
  60:LaserHarp.cpp ****             case 5: inputPin = D5; break;
  61:LaserHarp.cpp ****             case 6: inputPin = D6; break;
 188              		.loc 6 61 13 view .LVU36
 189              		.loc 6 61 21 view .LVU37
 190              		.loc 6 61 30 is_stmt 0 view .LVU38
 191 004a 494B     		ldr	r3, .L25+12
  62:LaserHarp.cpp ****         }
  63:LaserHarp.cpp ****         beamInputs[i].Init(inputPin, GPIO::Mode::INPUT, GPIO::Pull::PULLDOWN);
 192              		.loc 6 63 27 view .LVU39
 193 004c 0024     		movs	r4, #0
ARM GAS  C:\Users\Marco\AppData\Local\Temp\ccmabu9E.s 			page 12


 194 004e 4948     		ldr	r0, .L25+16
  61:LaserHarp.cpp ****         }
 195              		.loc 6 61 30 view .LVU40
 196 0050 1B88     		ldrh	r3, [r3]
 197              		.loc 6 63 27 view .LVU41
 198 0052 2246     		mov	r2, r4
 199 0054 0094     		str	r4, [sp]
  61:LaserHarp.cpp ****         }
 200              		.loc 6 61 30 view .LVU42
 201 0056 ADF80C30 		strh	r3, [sp, #12]	@ movhi
  61:LaserHarp.cpp ****         }
 202              		.loc 6 61 36 is_stmt 1 view .LVU43
 203              		.loc 6 63 9 view .LVU44
 204              		.loc 6 63 27 is_stmt 0 view .LVU45
 205 005a 0223     		movs	r3, #2
 206 005c 0399     		ldr	r1, [sp, #12]
 207 005e FFF7FEFF 		bl	_ZN5daisy4GPIO4InitENS_3PinENS0_4ModeENS0_4PullENS0_5SpeedE
 208              	.LVL9:
  64:LaserHarp.cpp ****         beamStates[i] = false;
 209              		.loc 6 64 9 is_stmt 1 view .LVU46
  65:LaserHarp.cpp ****         previousBeamStates[i] = false;
  66:LaserHarp.cpp ****         lastDebounceTime[i] = 0;
 210              		.loc 6 66 29 is_stmt 0 view .LVU47
 211 0062 414B     		ldr	r3, .L25+4
  64:LaserHarp.cpp ****         beamStates[i] = false;
 212              		.loc 6 64 23 view .LVU48
 213 0064 8BF80640 		strb	r4, [fp, #6]
  65:LaserHarp.cpp ****         previousBeamStates[i] = false;
 214              		.loc 6 65 9 is_stmt 1 view .LVU49
  65:LaserHarp.cpp ****         previousBeamStates[i] = false;
 215              		.loc 6 65 31 is_stmt 0 view .LVU50
 216 0068 8AF80640 		strb	r4, [r10, #6]
 217              		.loc 6 66 9 is_stmt 1 view .LVU51
 218              		.loc 6 66 29 is_stmt 0 view .LVU52
 219 006c 9C61     		str	r4, [r3, #24]
 220              	.LBE103:
  52:LaserHarp.cpp ****         Pin inputPin;
 221              		.loc 6 52 5 is_stmt 1 view .LVU53
 222              	.LVL10:
  52:LaserHarp.cpp ****         Pin inputPin;
 223              		.loc 6 52 23 view .LVU54
 224              	.L15:
  52:LaserHarp.cpp ****         Pin inputPin;
 225              		.loc 6 52 23 is_stmt 0 view .LVU55
 226              	.LBE102:
  67:LaserHarp.cpp ****     }
  68:LaserHarp.cpp ****     
  69:LaserHarp.cpp ****     // Initialize MIDI controller
  70:LaserHarp.cpp ****     midiController.Init(&hardware, &configManager);
 227              		.loc 6 70 5 is_stmt 1 view .LVU56
 228              		.loc 6 70 24 is_stmt 0 view .LVU57
 229 006e 3F4A     		ldr	r2, .L25+8
 230 0070 3C49     		ldr	r1, .L25
 231 0072 4148     		ldr	r0, .L25+20
 232 0074 FFF7FEFF 		bl	_ZN14MidiController4InitEPN5daisy9DaisySeedEP13ConfigManager
 233              	.LVL11:
  71:LaserHarp.cpp ****     
ARM GAS  C:\Users\Marco\AppData\Local\Temp\ccmabu9E.s 			page 13


  72:LaserHarp.cpp ****     // Initialize audio synthesizer
  73:LaserHarp.cpp ****     audioSynthesizer.Init(hardware.AudioSampleRate(), &configManager);
 234              		.loc 6 73 5 is_stmt 1 view .LVU58
 235              		.loc 6 73 26 is_stmt 0 view .LVU59
 236 0078 3A48     		ldr	r0, .L25
 237 007a FFF7FEFF 		bl	_ZN5daisy9DaisySeed15AudioSampleRateEv
 238              	.LVL12:
 239 007e 3B49     		ldr	r1, .L25+8
 240 0080 3E48     		ldr	r0, .L25+24
 241 0082 FFF7FEFF 		bl	_ZN16AudioSynthesizer4InitEfP13ConfigManager
 242              	.LVL13:
  74:LaserHarp.cpp ****     
  75:LaserHarp.cpp ****     // Setup note mapping based on configuration
  76:LaserHarp.cpp ****     uint8_t baseNote = configManager.GetBaseNote();
 243              		.loc 6 76 5 is_stmt 1 view .LVU60
 244              		.loc 6 76 49 is_stmt 0 view .LVU61
 245 0086 3948     		ldr	r0, .L25+8
 246 0088 FFF7FEFF 		bl	_ZNK13ConfigManager11GetBaseNoteEv
 247              	.LVL14:
 248 008c 0446     		mov	r4, r0
  77:LaserHarp.cpp ****     uint8_t interval = configManager.GetConfig()->noteInterval;
 249              		.loc 6 77 47 view .LVU62
 250 008e 3748     		ldr	r0, .L25+8
 251              	.LVL15:
 252              		.loc 6 77 5 is_stmt 1 view .LVU63
 253              		.loc 6 77 47 is_stmt 0 view .LVU64
 254 0090 FFF7FEFF 		bl	_ZN13ConfigManager9GetConfigEv
 255              	.LVL16:
 256 0094 3A4B     		ldr	r3, .L25+28
 257              		.loc 6 77 51 view .LVU65
 258 0096 8078     		ldrb	r0, [r0, #2]	@ zero_extendqisi2
 259              	.LVL17:
  78:LaserHarp.cpp ****     for (int i = 0; i < 7; i++) {
 260              		.loc 6 78 5 is_stmt 1 view .LVU66
 261              	.LBB107:
 262              		.loc 6 78 23 view .LVU67
 263 0098 D91D     		adds	r1, r3, #7
 264              	.LVL18:
 265              	.L19:
  79:LaserHarp.cpp ****         beamNotes[i] = baseNote + (i * interval);
 266              		.loc 6 79 9 discriminator 2 view .LVU68
 267              		.loc 6 79 22 is_stmt 0 discriminator 2 view .LVU69
 268 009a 03F8014F 		strb	r4, [r3, #1]!
 269              	.LVL19:
  78:LaserHarp.cpp ****     for (int i = 0; i < 7; i++) {
 270              		.loc 6 78 5 is_stmt 1 discriminator 2 view .LVU70
  78:LaserHarp.cpp ****     for (int i = 0; i < 7; i++) {
 271              		.loc 6 78 23 discriminator 2 view .LVU71
 272 009e 0219     		adds	r2, r0, r4
 273 00a0 8B42     		cmp	r3, r1
 274 00a2 D4B2     		uxtb	r4, r2
 275 00a4 F9D1     		bne	.L19
 276              	.LBE107:
  80:LaserHarp.cpp ****     }
  81:LaserHarp.cpp ****     
  82:LaserHarp.cpp ****     // Start audio
  83:LaserHarp.cpp ****     hardware.StartAudio(AudioCallback);
ARM GAS  C:\Users\Marco\AppData\Local\Temp\ccmabu9E.s 			page 14


 277              		.loc 6 83 5 view .LVU72
 278              		.loc 6 83 24 is_stmt 0 view .LVU73
 279 00a6 3749     		ldr	r1, .L25+32
 280 00a8 2E48     		ldr	r0, .L25
 281              	.LVL20:
 282              		.loc 6 83 24 view .LVU74
 283 00aa FFF7FEFF 		bl	_ZN5daisy9DaisySeed10StartAudioEPFvPKPKfPPfjE
 284              	.LVL21:
  84:LaserHarp.cpp ****     
  85:LaserHarp.cpp ****     // Startup indication
  86:LaserHarp.cpp ****     hardware.SetLed(true);
 285              		.loc 6 86 5 is_stmt 1 view .LVU75
 286              		.loc 6 86 20 is_stmt 0 view .LVU76
 287 00ae 0121     		movs	r1, #1
 288 00b0 2C48     		ldr	r0, .L25
 289 00b2 FFF7FEFF 		bl	_ZN5daisy9DaisySeed6SetLedEb
 290              	.LVL22:
  87:LaserHarp.cpp ****     System::Delay(500);
 291              		.loc 6 87 5 is_stmt 1 view .LVU77
 292              		.loc 6 87 18 is_stmt 0 view .LVU78
 293 00b6 4FF4FA70 		mov	r0, #500
 294 00ba FFF7FEFF 		bl	_ZN5daisy6System5DelayEm
 295              	.LVL23:
  88:LaserHarp.cpp ****     hardware.SetLed(false);
 296              		.loc 6 88 5 is_stmt 1 view .LVU79
 297              		.loc 6 88 20 is_stmt 0 view .LVU80
 298 00be 0021     		movs	r1, #0
 299 00c0 2848     		ldr	r0, .L25
 300 00c2 FFF7FEFF 		bl	_ZN5daisy9DaisySeed6SetLedEb
 301              	.LVL24:
  89:LaserHarp.cpp ****     System::Delay(200);
 302              		.loc 6 89 5 is_stmt 1 view .LVU81
 303              		.loc 6 89 18 is_stmt 0 view .LVU82
 304 00c6 C820     		movs	r0, #200
 305 00c8 FFF7FEFF 		bl	_ZN5daisy6System5DelayEm
 306              	.LVL25:
  90:LaserHarp.cpp ****     hardware.SetLed(true);
 307              		.loc 6 90 5 is_stmt 1 view .LVU83
 308              		.loc 6 90 20 is_stmt 0 view .LVU84
 309 00cc 0121     		movs	r1, #1
 310 00ce 2548     		ldr	r0, .L25
 311 00d0 FFF7FEFF 		bl	_ZN5daisy9DaisySeed6SetLedEb
 312              	.LVL26:
  91:LaserHarp.cpp ****     System::Delay(200);
 313              		.loc 6 91 5 is_stmt 1 view .LVU85
 314              		.loc 6 91 18 is_stmt 0 view .LVU86
 315 00d4 C820     		movs	r0, #200
 316 00d6 FFF7FEFF 		bl	_ZN5daisy6System5DelayEm
 317              	.LVL27:
  92:LaserHarp.cpp ****     hardware.SetLed(false);
 318              		.loc 6 92 5 is_stmt 1 view .LVU87
 319              		.loc 6 92 20 is_stmt 0 view .LVU88
 320 00da 0021     		movs	r1, #0
 321 00dc 2148     		ldr	r0, .L25
  93:LaserHarp.cpp **** }
 322              		.loc 6 93 1 view .LVU89
 323 00de 05B0     		add	sp, sp, #20
ARM GAS  C:\Users\Marco\AppData\Local\Temp\ccmabu9E.s 			page 15


 324              		.cfi_remember_state
 325              		.cfi_def_cfa_offset 36
 326              		@ sp needed
 327 00e0 BDE8F04F 		pop	{r4, r5, r6, r7, r8, r9, r10, fp, lr}
 328              		.cfi_restore 14
 329              		.cfi_restore 11
 330              		.cfi_restore 10
 331              		.cfi_restore 9
 332              		.cfi_restore 8
 333              		.cfi_restore 7
 334              		.cfi_restore 6
 335              		.cfi_restore 5
 336              		.cfi_restore 4
 337              		.cfi_def_cfa_offset 0
  92:LaserHarp.cpp ****     hardware.SetLed(false);
 338              		.loc 6 92 20 view .LVU90
 339 00e4 FFF7FEBF 		b	_ZN5daisy9DaisySeed6SetLedEb
 340              	.LVL28:
 341              	.L10:
 342              		.cfi_restore_state
 343              	.LBB108:
 344              	.LBB104:
  60:LaserHarp.cpp ****             case 6: inputPin = D6; break;
 345              		.loc 6 60 13 is_stmt 1 view .LVU91
  60:LaserHarp.cpp ****             case 6: inputPin = D6; break;
 346              		.loc 6 60 21 view .LVU92
  60:LaserHarp.cpp ****             case 6: inputPin = D6; break;
 347              		.loc 6 60 30 is_stmt 0 view .LVU93
 348 00e8 274B     		ldr	r3, .L25+36
 349 00ea 1B88     		ldrh	r3, [r3]
 350 00ec ADF80C30 		strh	r3, [sp, #12]	@ movhi
  60:LaserHarp.cpp ****             case 6: inputPin = D6; break;
 351              		.loc 6 60 36 is_stmt 1 view .LVU94
 352              	.L17:
  63:LaserHarp.cpp ****         beamStates[i] = false;
 353              		.loc 6 63 9 view .LVU95
  63:LaserHarp.cpp ****         beamStates[i] = false;
 354              		.loc 6 63 27 is_stmt 0 view .LVU96
 355 00f0 0024     		movs	r4, #0
 356 00f2 0223     		movs	r3, #2
 357 00f4 0399     		ldr	r1, [sp, #12]
 358 00f6 4046     		mov	r0, r8
 359 00f8 2246     		mov	r2, r4
 360 00fa 0094     		str	r4, [sp]
 361 00fc FFF7FEFF 		bl	_ZN5daisy4GPIO4InitENS_3PinENS0_4ModeENS0_4PullENS0_5SpeedE
 362              	.LVL29:
  64:LaserHarp.cpp ****         previousBeamStates[i] = false;
 363              		.loc 6 64 9 is_stmt 1 view .LVU97
  64:LaserHarp.cpp ****         previousBeamStates[i] = false;
 364              		.loc 6 64 23 is_stmt 0 view .LVU98
 365 0100 3C70     		strb	r4, [r7]
  65:LaserHarp.cpp ****         lastDebounceTime[i] = 0;
 366              		.loc 6 65 9 is_stmt 1 view .LVU99
  65:LaserHarp.cpp ****         lastDebounceTime[i] = 0;
 367              		.loc 6 65 31 is_stmt 0 view .LVU100
 368 0102 3470     		strb	r4, [r6]
  66:LaserHarp.cpp ****     }
ARM GAS  C:\Users\Marco\AppData\Local\Temp\ccmabu9E.s 			page 16


 369              		.loc 6 66 9 is_stmt 1 view .LVU101
  66:LaserHarp.cpp ****     }
 370              		.loc 6 66 29 is_stmt 0 view .LVU102
 371 0104 2C60     		str	r4, [r5]
 372              	.LBE104:
  52:LaserHarp.cpp ****         Pin inputPin;
 373              		.loc 6 52 5 is_stmt 1 view .LVU103
 374              	.LVL30:
  52:LaserHarp.cpp ****         Pin inputPin;
 375              		.loc 6 52 23 view .LVU104
 376              	.L16:
  52:LaserHarp.cpp ****         Pin inputPin;
 377              		.loc 6 52 23 is_stmt 0 view .LVU105
 378 0106 09F10109 		add	r9, r9, #1
 379 010a 08F11408 		add	r8, r8, #20
 380 010e 0137     		adds	r7, r7, #1
 381 0110 0136     		adds	r6, r6, #1
 382 0112 0435     		adds	r5, r5, #4
 383 0114 90E7     		b	.L18
 384              	.LVL31:
 385              	.L11:
 386              	.LBB105:
  59:LaserHarp.cpp ****             case 5: inputPin = D5; break;
 387              		.loc 6 59 13 is_stmt 1 view .LVU106
  59:LaserHarp.cpp ****             case 5: inputPin = D5; break;
 388              		.loc 6 59 21 view .LVU107
  59:LaserHarp.cpp ****             case 5: inputPin = D5; break;
 389              		.loc 6 59 30 is_stmt 0 view .LVU108
 390 0116 1D4B     		ldr	r3, .L25+40
 391 0118 1B88     		ldrh	r3, [r3]
 392 011a ADF80C30 		strh	r3, [sp, #12]	@ movhi
  59:LaserHarp.cpp ****             case 5: inputPin = D5; break;
 393              		.loc 6 59 36 is_stmt 1 view .LVU109
 394 011e E7E7     		b	.L17
 395              	.L12:
  58:LaserHarp.cpp ****             case 4: inputPin = D4; break;
 396              		.loc 6 58 13 view .LVU110
  58:LaserHarp.cpp ****             case 4: inputPin = D4; break;
 397              		.loc 6 58 21 view .LVU111
  58:LaserHarp.cpp ****             case 4: inputPin = D4; break;
 398              		.loc 6 58 30 is_stmt 0 view .LVU112
 399 0120 1B4B     		ldr	r3, .L25+44
 400 0122 1B88     		ldrh	r3, [r3]
 401 0124 ADF80C30 		strh	r3, [sp, #12]	@ movhi
  58:LaserHarp.cpp ****             case 4: inputPin = D4; break;
 402              		.loc 6 58 36 is_stmt 1 view .LVU113
 403 0128 E2E7     		b	.L17
 404              	.L13:
  57:LaserHarp.cpp ****             case 3: inputPin = D3; break;
 405              		.loc 6 57 13 view .LVU114
  57:LaserHarp.cpp ****             case 3: inputPin = D3; break;
 406              		.loc 6 57 21 view .LVU115
  57:LaserHarp.cpp ****             case 3: inputPin = D3; break;
 407              		.loc 6 57 30 is_stmt 0 view .LVU116
 408 012a 1A4B     		ldr	r3, .L25+48
 409 012c 1B88     		ldrh	r3, [r3]
 410 012e ADF80C30 		strh	r3, [sp, #12]	@ movhi
ARM GAS  C:\Users\Marco\AppData\Local\Temp\ccmabu9E.s 			page 17


  57:LaserHarp.cpp ****             case 3: inputPin = D3; break;
 411              		.loc 6 57 36 is_stmt 1 view .LVU117
 412 0132 DDE7     		b	.L17
 413              	.L14:
  56:LaserHarp.cpp ****             case 2: inputPin = D2; break;
 414              		.loc 6 56 13 view .LVU118
  56:LaserHarp.cpp ****             case 2: inputPin = D2; break;
 415              		.loc 6 56 21 view .LVU119
  56:LaserHarp.cpp ****             case 2: inputPin = D2; break;
 416              		.loc 6 56 30 is_stmt 0 view .LVU120
 417 0134 184B     		ldr	r3, .L25+52
 418 0136 1B88     		ldrh	r3, [r3]
 419 0138 ADF80C30 		strh	r3, [sp, #12]	@ movhi
  56:LaserHarp.cpp ****             case 2: inputPin = D2; break;
 420              		.loc 6 56 36 is_stmt 1 view .LVU121
 421 013c D8E7     		b	.L17
 422              	.L7:
  55:LaserHarp.cpp ****             case 1: inputPin = D1; break;
 423              		.loc 6 55 13 view .LVU122
  55:LaserHarp.cpp ****             case 1: inputPin = D1; break;
 424              		.loc 6 55 21 view .LVU123
  55:LaserHarp.cpp ****             case 1: inputPin = D1; break;
 425              		.loc 6 55 30 is_stmt 0 view .LVU124
 426 013e 174B     		ldr	r3, .L25+56
  63:LaserHarp.cpp ****         beamStates[i] = false;
 427              		.loc 6 63 27 view .LVU125
 428 0140 0024     		movs	r4, #0
 429 0142 4046     		mov	r0, r8
  55:LaserHarp.cpp ****             case 1: inputPin = D1; break;
 430              		.loc 6 55 30 view .LVU126
 431 0144 1B88     		ldrh	r3, [r3]
  63:LaserHarp.cpp ****         beamStates[i] = false;
 432              		.loc 6 63 27 view .LVU127
 433 0146 2246     		mov	r2, r4
 434 0148 0094     		str	r4, [sp]
  55:LaserHarp.cpp ****             case 1: inputPin = D1; break;
 435              		.loc 6 55 30 view .LVU128
 436 014a ADF80C30 		strh	r3, [sp, #12]	@ movhi
  55:LaserHarp.cpp ****             case 1: inputPin = D1; break;
 437              		.loc 6 55 36 is_stmt 1 view .LVU129
  63:LaserHarp.cpp ****         beamStates[i] = false;
 438              		.loc 6 63 9 view .LVU130
  63:LaserHarp.cpp ****         beamStates[i] = false;
 439              		.loc 6 63 27 is_stmt 0 view .LVU131
 440 014e 0223     		movs	r3, #2
 441 0150 0399     		ldr	r1, [sp, #12]
 442 0152 FFF7FEFF 		bl	_ZN5daisy4GPIO4InitENS_3PinENS0_4ModeENS0_4PullENS0_5SpeedE
 443              	.LVL32:
  64:LaserHarp.cpp ****         previousBeamStates[i] = false;
 444              		.loc 6 64 9 is_stmt 1 view .LVU132
 445              	.LBE105:
  52:LaserHarp.cpp ****         Pin inputPin;
 446              		.loc 6 52 23 is_stmt 0 view .LVU133
 447 0156 B9F1070F 		cmp	r9, #7
 448              	.LBB106:
  64:LaserHarp.cpp ****         previousBeamStates[i] = false;
 449              		.loc 6 64 23 view .LVU134
ARM GAS  C:\Users\Marco\AppData\Local\Temp\ccmabu9E.s 			page 18


 450 015a 3C70     		strb	r4, [r7]
  65:LaserHarp.cpp ****         lastDebounceTime[i] = 0;
 451              		.loc 6 65 9 is_stmt 1 view .LVU135
  65:LaserHarp.cpp ****         lastDebounceTime[i] = 0;
 452              		.loc 6 65 31 is_stmt 0 view .LVU136
 453 015c 3470     		strb	r4, [r6]
  66:LaserHarp.cpp ****     }
 454              		.loc 6 66 9 is_stmt 1 view .LVU137
  66:LaserHarp.cpp ****     }
 455              		.loc 6 66 29 is_stmt 0 view .LVU138
 456 015e 2C60     		str	r4, [r5]
 457              	.LBE106:
  52:LaserHarp.cpp ****         Pin inputPin;
 458              		.loc 6 52 5 is_stmt 1 view .LVU139
 459              	.LVL33:
  52:LaserHarp.cpp ****         Pin inputPin;
 460              		.loc 6 52 23 view .LVU140
 461 0160 D1D1     		bne	.L16
 462 0162 84E7     		b	.L15
 463              	.L26:
 464              		.align	2
 465              	.L25:
 466 0164 00000000 		.word	.LANCHOR0
 467 0168 00000000 		.word	.LANCHOR5
 468 016c 00000000 		.word	.LANCHOR1
 469 0170 00000000 		.word	.LANCHOR12
 470 0174 78000000 		.word	.LANCHOR2+120
 471 0178 00000000 		.word	midiController
 472 017c 00000000 		.word	audioSynthesizer
 473 0180 FFFFFFFF 		.word	.LANCHOR13-1
 474 0184 00000000 		.word	_Z13AudioCallbackPKPKfPPfj
 475 0188 00000000 		.word	.LANCHOR11
 476 018c 00000000 		.word	.LANCHOR10
 477 0190 00000000 		.word	.LANCHOR9
 478 0194 00000000 		.word	.LANCHOR8
 479 0198 00000000 		.word	.LANCHOR7
 480 019c 00000000 		.word	.LANCHOR6
 481 01a0 00000000 		.word	.LANCHOR3
 482 01a4 00000000 		.word	.LANCHOR4
 483 01a8 00000000 		.word	.LANCHOR2
 484              	.LBE108:
 485              		.cfi_endproc
 486              	.LFE4682:
 488              		.section	.text._Z16UpdateBeamInputsv,"ax",%progbits
 489              		.align	1
 490              		.p2align 2,,3
 491              		.global	_Z16UpdateBeamInputsv
 492              		.syntax unified
 493              		.thumb
 494              		.thumb_func
 495              		.fpu fpv5-d16
 497              	_Z16UpdateBeamInputsv:
 498              	.LFB4683:
  94:LaserHarp.cpp **** 
  95:LaserHarp.cpp **** // Read and debounce beam inputs from Arduino
  96:LaserHarp.cpp **** void UpdateBeamInputs() {
 499              		.loc 6 96 25 view -0
ARM GAS  C:\Users\Marco\AppData\Local\Temp\ccmabu9E.s 			page 19


 500              		.cfi_startproc
 501              		@ args = 0, pretend = 0, frame = 8
 502              		@ frame_needed = 0, uses_anonymous_args = 0
  97:LaserHarp.cpp ****     uint32_t currentTime = System::GetNow();
 503              		.loc 6 97 5 view .LVU142
  96:LaserHarp.cpp ****     uint32_t currentTime = System::GetNow();
 504              		.loc 6 96 25 is_stmt 0 view .LVU143
 505 0000 2DE9F04F 		push	{r4, r5, r6, r7, r8, r9, r10, fp, lr}
 506              		.cfi_def_cfa_offset 36
 507              		.cfi_offset 4, -36
 508              		.cfi_offset 5, -32
 509              		.cfi_offset 6, -28
 510              		.cfi_offset 7, -24
 511              		.cfi_offset 8, -20
 512              		.cfi_offset 9, -16
 513              		.cfi_offset 10, -12
 514              		.cfi_offset 11, -8
 515              		.cfi_offset 14, -4
 516 0004 394D     		ldr	r5, .L66
 517 0006 83B0     		sub	sp, sp, #12
 518              		.cfi_def_cfa_offset 48
 519              		.loc 6 97 42 view .LVU144
 520 0008 FFF7FEFF 		bl	_ZN5daisy6System6GetNowEv
 521              	.LVL34:
 522 000c 384F     		ldr	r7, .L66+4
 523 000e DFF8FC90 		ldr	r9, .L66+32
 524 0012 8346     		mov	fp, r0
 525              	.LVL35:
  98:LaserHarp.cpp ****     
  99:LaserHarp.cpp ****     for (int i = 0; i < 7; i++) {
 526              		.loc 6 99 5 is_stmt 1 view .LVU145
 527              	.LBB109:
 528              		.loc 6 99 23 view .LVU146
 529 0014 374E     		ldr	r6, .L66+8
 530 0016 05F18C0A 		add	r10, r5, #140
 531              	.LBE109:
  97:LaserHarp.cpp ****     
 532              		.loc 6 97 42 is_stmt 0 view .LVU147
 533 001a DFF8F480 		ldr	r8, .L66+36
 534              	.LVL36:
 535              	.L39:
 536              	.LBB145:
 537              	.LBB110:
 100:LaserHarp.cpp ****         // Read current state (HIGH = beam broken)
 101:LaserHarp.cpp ****         bool currentState = beamInputs[i].Read();
 538              		.loc 6 101 9 is_stmt 1 view .LVU148
 539              		.loc 6 101 47 is_stmt 0 view .LVU149
 540 001e 2846     		mov	r0, r5
 541 0020 FFF7FEFF 		bl	_ZN5daisy4GPIO4ReadEv
 542              	.LVL37:
 543              	.LBB111:
 102:LaserHarp.cpp ****         
 103:LaserHarp.cpp ****         // Debounce logic
 104:LaserHarp.cpp ****         if (currentState != beamStates[i]) {
 544              		.loc 6 104 9 view .LVU150
 545 0024 18F8013F 		ldrb	r3, [r8, #1]!	@ zero_extendqisi2
 546              	.LVL38:
ARM GAS  C:\Users\Marco\AppData\Local\Temp\ccmabu9E.s 			page 20


 547              		.loc 6 104 9 view .LVU151
 548              	.LBE111:
 101:LaserHarp.cpp ****         
 549              		.loc 6 101 47 view .LVU152
 550 0028 0446     		mov	r4, r0
 551              	.LVL39:
 552              		.loc 6 104 9 is_stmt 1 view .LVU153
 553              	.LBB136:
 554 002a 8342     		cmp	r3, r0
 555 002c 0CD0     		beq	.L28
 556              	.LBE136:
 557              	.LBE110:
 558              	.LBE145:
 105:LaserHarp.cpp ****             if ((currentTime - lastDebounceTime[i]) > DEBOUNCE_DELAY_MS) {
 559              		.loc 6 105 13 view .LVU154
 560              	.LBB146:
 561              	.LBB141:
 562              	.LBB137:
 563              	.LBB112:
 564              		.loc 6 105 30 is_stmt 0 view .LVU155
 565 002e 3368     		ldr	r3, [r6]
 566 0030 ABEB0303 		sub	r3, fp, r3
 567              		.loc 6 105 13 view .LVU156
 568 0034 142B     		cmp	r3, #20
 569 0036 07D9     		bls	.L28
 570              	.LBB113:
 106:LaserHarp.cpp ****                 // State change confirmed
 107:LaserHarp.cpp ****                 beamStates[i] = currentState;
 571              		.loc 6 107 17 is_stmt 1 view .LVU157
 572              	.LBB114:
 108:LaserHarp.cpp ****                 lastDebounceTime[i] = currentTime;
 109:LaserHarp.cpp ****                 
 110:LaserHarp.cpp ****                 // Detect edges and trigger MIDI/Audio
 111:LaserHarp.cpp ****                 if (currentState && !previousBeamStates[i]) {
 573              		.loc 6 111 34 is_stmt 0 view .LVU158
 574 0038 3B78     		ldrb	r3, [r7]	@ zero_extendqisi2
 575              	.LBE114:
 107:LaserHarp.cpp ****                 lastDebounceTime[i] = currentTime;
 576              		.loc 6 107 31 view .LVU159
 577 003a 88F80000 		strb	r0, [r8]
 108:LaserHarp.cpp ****                 lastDebounceTime[i] = currentTime;
 578              		.loc 6 108 17 is_stmt 1 view .LVU160
 108:LaserHarp.cpp ****                 lastDebounceTime[i] = currentTime;
 579              		.loc 6 108 37 is_stmt 0 view .LVU161
 580 003e C6F800B0 		str	fp, [r6]
 581              		.loc 6 111 17 is_stmt 1 view .LVU162
 582              	.LBB126:
 583 0042 58B9     		cbnz	r0, .L60
 584              		.loc 6 111 17 is_stmt 0 view .LVU163
 585              	.LBE126:
 586              	.LBE113:
 587              	.LBE112:
 588              	.LBE137:
 589              	.LBE141:
 590              	.LBE146:
 112:LaserHarp.cpp ****                     // Rising edge: Beam broken (Note ON)
 113:LaserHarp.cpp ****                     uint8_t note = beamNotes[i];
ARM GAS  C:\Users\Marco\AppData\Local\Temp\ccmabu9E.s 			page 21


 114:LaserHarp.cpp ****                     uint8_t velocity = configManager.GetConfig()->midiVelocity;
 115:LaserHarp.cpp ****                     
 116:LaserHarp.cpp ****                     if (configManager.IsMidiEnabled()) {
 117:LaserHarp.cpp ****                         midiController.SendNoteOn(note, velocity);
 118:LaserHarp.cpp ****                     }
 119:LaserHarp.cpp ****                     if (configManager.IsAudioEnabled()) {
 120:LaserHarp.cpp ****                         audioSynthesizer.NoteOn(note, velocity);
 121:LaserHarp.cpp ****                     }
 122:LaserHarp.cpp ****                     
 123:LaserHarp.cpp ****                     // LED feedback
 124:LaserHarp.cpp ****                     hardware.SetLed(true);
 125:LaserHarp.cpp ****                 }
 126:LaserHarp.cpp ****                 else if (!currentState && previousBeamStates[i]) {
 591              		.loc 6 126 22 is_stmt 1 discriminator 1 view .LVU164
 592              	.LBB147:
 593              	.LBB142:
 594              	.LBB138:
 595              	.LBB133:
 596              	.LBB130:
 597              	.LBB127:
 598              	.LBB115:
 599              		.loc 6 126 40 is_stmt 0 discriminator 1 view .LVU165
 600 0044 0BBB     		cbnz	r3, .L61
 601              	.LVL40:
 602              	.L31:
 603              		.loc 6 126 40 discriminator 1 view .LVU166
 604              	.LBE115:
 605              	.LBE127:
 127:LaserHarp.cpp ****                     // Falling edge: Beam restored (Note OFF)
 128:LaserHarp.cpp ****                     uint8_t note = beamNotes[i];
 129:LaserHarp.cpp ****                     
 130:LaserHarp.cpp ****                     if (configManager.IsMidiEnabled()) {
 131:LaserHarp.cpp ****                         midiController.SendNoteOff(note);
 132:LaserHarp.cpp ****                     }
 133:LaserHarp.cpp ****                     if (configManager.IsAudioEnabled()) {
 134:LaserHarp.cpp ****                         audioSynthesizer.NoteOff(note);
 135:LaserHarp.cpp ****                     }
 136:LaserHarp.cpp ****                     
 137:LaserHarp.cpp ****                     // Turn off LED if no beams active
 138:LaserHarp.cpp ****                     bool anyActive = false;
 139:LaserHarp.cpp ****                     for (int j = 0; j < 7; j++) {
 140:LaserHarp.cpp ****                         if (beamStates[j]) anyActive = true;
 141:LaserHarp.cpp ****                     }
 142:LaserHarp.cpp ****                     if (!anyActive) hardware.SetLed(false);
 143:LaserHarp.cpp ****                 }
 144:LaserHarp.cpp ****                 
 145:LaserHarp.cpp ****                 previousBeamStates[i] = currentState;
 606              		.loc 6 145 17 is_stmt 1 view .LVU167
 607              		.loc 6 145 39 is_stmt 0 view .LVU168
 608 0046 3C70     		strb	r4, [r7]
 609              	.L28:
 610              		.loc 6 145 39 view .LVU169
 611              	.LBE130:
 612              	.LBE133:
 613              	.LBE138:
 614              	.LBE142:
  99:LaserHarp.cpp ****         // Read current state (HIGH = beam broken)
ARM GAS  C:\Users\Marco\AppData\Local\Temp\ccmabu9E.s 			page 22


 615              		.loc 6 99 5 is_stmt 1 discriminator 2 view .LVU170
 616              	.LVL41:
  99:LaserHarp.cpp ****         // Read current state (HIGH = beam broken)
 617              		.loc 6 99 23 discriminator 2 view .LVU171
 618 0048 1435     		adds	r5, r5, #20
 619 004a 0137     		adds	r7, r7, #1
 620 004c 09F10109 		add	r9, r9, #1
 621 0050 0436     		adds	r6, r6, #4
 622 0052 5545     		cmp	r5, r10
 623 0054 E3D1     		bne	.L39
 624              	.LBE147:
 146:LaserHarp.cpp ****             }
 147:LaserHarp.cpp ****         }
 148:LaserHarp.cpp ****     }
 149:LaserHarp.cpp **** }
 625              		.loc 6 149 1 is_stmt 0 view .LVU172
 626 0056 03B0     		add	sp, sp, #12
 627              		.cfi_remember_state
 628              		.cfi_def_cfa_offset 36
 629              		@ sp needed
 630 0058 BDE8F08F 		pop	{r4, r5, r6, r7, r8, r9, r10, fp, pc}
 631              	.LVL42:
 632              	.L60:
 633              		.cfi_restore_state
 634              	.LBB148:
 635              	.LBB143:
 636              	.LBB139:
 637              	.LBB134:
 638              	.LBB131:
 639              	.LBB128:
 111:LaserHarp.cpp ****                     // Rising edge: Beam broken (Note ON)
 640              		.loc 6 111 34 discriminator 1 view .LVU173
 641 005c 002B     		cmp	r3, #0
 642 005e F2D1     		bne	.L31
 643              	.LBB121:
 113:LaserHarp.cpp ****                     uint8_t velocity = configManager.GetConfig()->midiVelocity;
 644              		.loc 6 113 21 is_stmt 1 view .LVU174
 113:LaserHarp.cpp ****                     uint8_t velocity = configManager.GetConfig()->midiVelocity;
 645              		.loc 6 113 29 is_stmt 0 view .LVU175
 646 0060 99F80030 		ldrb	r3, [r9]	@ zero_extendqisi2
 114:LaserHarp.cpp ****                     
 647              		.loc 6 114 63 view .LVU176
 648 0064 2448     		ldr	r0, .L66+12
 649              	.LVL43:
 113:LaserHarp.cpp ****                     uint8_t velocity = configManager.GetConfig()->midiVelocity;
 650              		.loc 6 113 29 view .LVU177
 651 0066 0093     		str	r3, [sp]
 652              	.LVL44:
 114:LaserHarp.cpp ****                     
 653              		.loc 6 114 21 is_stmt 1 view .LVU178
 114:LaserHarp.cpp ****                     
 654              		.loc 6 114 63 is_stmt 0 view .LVU179
 655 0068 FFF7FEFF 		bl	_ZN13ConfigManager9GetConfigEv
 656              	.LVL45:
 114:LaserHarp.cpp ****                     
 657              		.loc 6 114 67 view .LVU180
 658 006c 0379     		ldrb	r3, [r0, #4]	@ zero_extendqisi2
ARM GAS  C:\Users\Marco\AppData\Local\Temp\ccmabu9E.s 			page 23


 116:LaserHarp.cpp ****                         midiController.SendNoteOn(note, velocity);
 659              		.loc 6 116 52 view .LVU181
 660 006e 2248     		ldr	r0, .L66+12
 114:LaserHarp.cpp ****                     
 661              		.loc 6 114 67 view .LVU182
 662 0070 0193     		str	r3, [sp, #4]
 663              	.LVL46:
 116:LaserHarp.cpp ****                         midiController.SendNoteOn(note, velocity);
 664              		.loc 6 116 21 is_stmt 1 view .LVU183
 116:LaserHarp.cpp ****                         midiController.SendNoteOn(note, velocity);
 665              		.loc 6 116 52 is_stmt 0 view .LVU184
 666 0072 FFF7FEFF 		bl	_ZNK13ConfigManager13IsMidiEnabledEv
 667              	.LVL47:
 116:LaserHarp.cpp ****                         midiController.SendNoteOn(note, velocity);
 668              		.loc 6 116 21 view .LVU185
 669 0076 48BB     		cbnz	r0, .L62
 670              	.L32:
 119:LaserHarp.cpp ****                         audioSynthesizer.NoteOn(note, velocity);
 671              		.loc 6 119 21 is_stmt 1 view .LVU186
 119:LaserHarp.cpp ****                         audioSynthesizer.NoteOn(note, velocity);
 672              		.loc 6 119 53 is_stmt 0 view .LVU187
 673 0078 1F48     		ldr	r0, .L66+12
 674 007a FFF7FEFF 		bl	_ZNK13ConfigManager14IsAudioEnabledEv
 675              	.LVL48:
 119:LaserHarp.cpp ****                         audioSynthesizer.NoteOn(note, velocity);
 676              		.loc 6 119 21 view .LVU188
 677 007e F8B9     		cbnz	r0, .L63
 678              	.L33:
 124:LaserHarp.cpp ****                 }
 679              		.loc 6 124 21 is_stmt 1 view .LVU189
 124:LaserHarp.cpp ****                 }
 680              		.loc 6 124 36 is_stmt 0 view .LVU190
 681 0080 0121     		movs	r1, #1
 682 0082 1E48     		ldr	r0, .L66+16
 683 0084 FFF7FEFF 		bl	_ZN5daisy9DaisySeed6SetLedEb
 684              	.LVL49:
 685              	.LBE121:
 124:LaserHarp.cpp ****                 }
 686              		.loc 6 124 42 view .LVU191
 687 0088 DDE7     		b	.L31
 688              	.LVL50:
 689              	.L61:
 690              	.LBB122:
 691              	.LBB116:
 128:LaserHarp.cpp ****                     
 692              		.loc 6 128 21 is_stmt 1 view .LVU192
 128:LaserHarp.cpp ****                     
 693              		.loc 6 128 29 is_stmt 0 view .LVU193
 694 008a 99F80030 		ldrb	r3, [r9]	@ zero_extendqisi2
 130:LaserHarp.cpp ****                         midiController.SendNoteOff(note);
 695              		.loc 6 130 52 view .LVU194
 696 008e 1A48     		ldr	r0, .L66+12
 697              	.LVL51:
 128:LaserHarp.cpp ****                     
 698              		.loc 6 128 29 view .LVU195
 699 0090 0093     		str	r3, [sp]
 700              	.LVL52:
ARM GAS  C:\Users\Marco\AppData\Local\Temp\ccmabu9E.s 			page 24


 130:LaserHarp.cpp ****                         midiController.SendNoteOff(note);
 701              		.loc 6 130 21 is_stmt 1 view .LVU196
 130:LaserHarp.cpp ****                         midiController.SendNoteOff(note);
 702              		.loc 6 130 52 is_stmt 0 view .LVU197
 703 0092 FFF7FEFF 		bl	_ZNK13ConfigManager13IsMidiEnabledEv
 704              	.LVL53:
 130:LaserHarp.cpp ****                         midiController.SendNoteOff(note);
 705              		.loc 6 130 21 view .LVU198
 706 0096 20BB     		cbnz	r0, .L64
 707              	.L35:
 133:LaserHarp.cpp ****                         audioSynthesizer.NoteOff(note);
 708              		.loc 6 133 21 is_stmt 1 view .LVU199
 133:LaserHarp.cpp ****                         audioSynthesizer.NoteOff(note);
 709              		.loc 6 133 53 is_stmt 0 view .LVU200
 710 0098 1748     		ldr	r0, .L66+12
 711 009a FFF7FEFF 		bl	_ZNK13ConfigManager14IsAudioEnabledEv
 712              	.LVL54:
 133:LaserHarp.cpp ****                         audioSynthesizer.NoteOff(note);
 713              		.loc 6 133 21 view .LVU201
 714 009e D8B9     		cbnz	r0, .L65
 715              	.L36:
 138:LaserHarp.cpp ****                     for (int j = 0; j < 7; j++) {
 716              		.loc 6 138 21 is_stmt 1 view .LVU202
 717              	.LVL55:
 139:LaserHarp.cpp ****                         if (beamStates[j]) anyActive = true;
 718              		.loc 6 139 21 view .LVU203
 719              	.LBB117:
 139:LaserHarp.cpp ****                         if (beamStates[j]) anyActive = true;
 720              		.loc 6 139 39 view .LVU204
 721 00a0 1748     		ldr	r0, .L66+20
 722              	.LBE117:
 138:LaserHarp.cpp ****                     for (int j = 0; j < 7; j++) {
 723              		.loc 6 138 26 is_stmt 0 view .LVU205
 724 00a2 0021     		movs	r1, #0
 725              	.LBE116:
 726              	.LBE122:
 727              	.LBE128:
 728              	.LBE131:
 729              	.LBE134:
 730              	.LBE139:
 731              	.LBE143:
 732              	.LBE148:
  97:LaserHarp.cpp ****     
 733              		.loc 6 97 42 view .LVU206
 734 00a4 C31F     		subs	r3, r0, #7
 735              	.LVL56:
 736              	.L38:
 737              	.LBB149:
 738              	.LBB144:
 739              	.LBB140:
 740              	.LBB135:
 741              	.LBB132:
 742              	.LBB129:
 743              	.LBB123:
 744              	.LBB119:
 745              	.LBB118:
 140:LaserHarp.cpp ****                     }
ARM GAS  C:\Users\Marco\AppData\Local\Temp\ccmabu9E.s 			page 25


 746              		.loc 6 140 25 is_stmt 1 view .LVU207
 140:LaserHarp.cpp ****                     }
 747              		.loc 6 140 41 is_stmt 0 view .LVU208
 748 00a6 13F8012F 		ldrb	r2, [r3, #1]!	@ zero_extendqisi2
 749              	.LVL57:
 140:LaserHarp.cpp ****                     }
 750              		.loc 6 140 54 view .LVU209
 751 00aa 002A     		cmp	r2, #0
 752 00ac 18BF     		it	ne
 753 00ae 1146     		movne	r1, r2
 754              	.LVL58:
 139:LaserHarp.cpp ****                         if (beamStates[j]) anyActive = true;
 755              		.loc 6 139 21 is_stmt 1 view .LVU210
 139:LaserHarp.cpp ****                         if (beamStates[j]) anyActive = true;
 756              		.loc 6 139 39 view .LVU211
 757 00b0 9842     		cmp	r0, r3
 758 00b2 F8D1     		bne	.L38
 759              	.LBE118:
 142:LaserHarp.cpp ****                 }
 760              		.loc 6 142 21 view .LVU212
 761 00b4 0029     		cmp	r1, #0
 762 00b6 C6D1     		bne	.L31
 142:LaserHarp.cpp ****                 }
 763              		.loc 6 142 37 discriminator 1 view .LVU213
 142:LaserHarp.cpp ****                 }
 764              		.loc 6 142 52 is_stmt 0 discriminator 1 view .LVU214
 765 00b8 1048     		ldr	r0, .L66+16
 766 00ba FFF7FEFF 		bl	_ZN5daisy9DaisySeed6SetLedEb
 767              	.LVL59:
 142:LaserHarp.cpp ****                 }
 768              		.loc 6 142 52 discriminator 1 view .LVU215
 769 00be C2E7     		b	.L31
 770              	.LVL60:
 771              	.L63:
 142:LaserHarp.cpp ****                 }
 772              		.loc 6 142 52 discriminator 1 view .LVU216
 773              	.LBE119:
 774              	.LBE123:
 775              	.LBB124:
 120:LaserHarp.cpp ****                     }
 776              		.loc 6 120 25 is_stmt 1 view .LVU217
 120:LaserHarp.cpp ****                     }
 777              		.loc 6 120 48 is_stmt 0 view .LVU218
 778 00c0 DDE90012 		ldrd	r1, r2, [sp]
 779 00c4 0F48     		ldr	r0, .L66+24
 780 00c6 FFF7FEFF 		bl	_ZN16AudioSynthesizer6NoteOnEhh
 781              	.LVL61:
 782 00ca D9E7     		b	.L33
 783              	.L62:
 117:LaserHarp.cpp ****                     }
 784              		.loc 6 117 25 is_stmt 1 view .LVU219
 117:LaserHarp.cpp ****                     }
 785              		.loc 6 117 50 is_stmt 0 view .LVU220
 786 00cc DDE90012 		ldrd	r1, r2, [sp]
 787 00d0 0D48     		ldr	r0, .L66+28
 788 00d2 FFF7FEFF 		bl	_ZN14MidiController10SendNoteOnEhh
 789              	.LVL62:
ARM GAS  C:\Users\Marco\AppData\Local\Temp\ccmabu9E.s 			page 26


 790 00d6 CFE7     		b	.L32
 791              	.LVL63:
 792              	.L65:
 117:LaserHarp.cpp ****                     }
 793              		.loc 6 117 50 view .LVU221
 794              	.LBE124:
 795              	.LBB125:
 796              	.LBB120:
 134:LaserHarp.cpp ****                     }
 797              		.loc 6 134 25 is_stmt 1 view .LVU222
 134:LaserHarp.cpp ****                     }
 798              		.loc 6 134 49 is_stmt 0 view .LVU223
 799 00d8 0099     		ldr	r1, [sp]
 800 00da 0A48     		ldr	r0, .L66+24
 801 00dc FFF7FEFF 		bl	_ZN16AudioSynthesizer7NoteOffEh
 802              	.LVL64:
 803 00e0 DEE7     		b	.L36
 804              	.L64:
 131:LaserHarp.cpp ****                     }
 805              		.loc 6 131 25 is_stmt 1 view .LVU224
 131:LaserHarp.cpp ****                     }
 806              		.loc 6 131 51 is_stmt 0 view .LVU225
 807 00e2 0099     		ldr	r1, [sp]
 808 00e4 0848     		ldr	r0, .L66+28
 809 00e6 FFF7FEFF 		bl	_ZN14MidiController11SendNoteOffEh
 810              	.LVL65:
 811 00ea D5E7     		b	.L35
 812              	.L67:
 813              		.align	2
 814              	.L66:
 815 00ec 00000000 		.word	.LANCHOR2
 816 00f0 00000000 		.word	.LANCHOR4
 817 00f4 00000000 		.word	.LANCHOR5
 818 00f8 00000000 		.word	.LANCHOR1
 819 00fc 00000000 		.word	.LANCHOR0
 820 0100 06000000 		.word	.LANCHOR3+6
 821 0104 00000000 		.word	audioSynthesizer
 822 0108 00000000 		.word	midiController
 823 010c 00000000 		.word	.LANCHOR13
 824 0110 FFFFFFFF 		.word	.LANCHOR3-1
 825              	.LBE120:
 826              	.LBE125:
 827              	.LBE129:
 828              	.LBE132:
 829              	.LBE135:
 830              	.LBE140:
 831              	.LBE144:
 832              	.LBE149:
 833              		.cfi_endproc
 834              	.LFE4683:
 836              		.section	.text.startup.main,"ax",%progbits
 837              		.align	1
 838              		.p2align 2,,3
 839              		.global	main
 840              		.syntax unified
 841              		.thumb
 842              		.thumb_func
ARM GAS  C:\Users\Marco\AppData\Local\Temp\ccmabu9E.s 			page 27


 843              		.fpu fpv5-d16
 845              	main:
 846              	.LFB4684:
 150:LaserHarp.cpp **** 
 151:LaserHarp.cpp **** // Main loop
 152:LaserHarp.cpp **** int main(void) {
 847              		.loc 6 152 16 is_stmt 1 view -0
 848              		.cfi_startproc
 849              		@ Volatile: function does not return.
 850              		@ args = 0, pretend = 0, frame = 0
 851              		@ frame_needed = 0, uses_anonymous_args = 0
 153:LaserHarp.cpp ****     // Initialize everything
 154:LaserHarp.cpp ****     InitializeSystem();
 852              		.loc 6 154 5 view .LVU227
 152:LaserHarp.cpp ****     // Initialize everything
 853              		.loc 6 152 16 is_stmt 0 view .LVU228
 854 0000 08B5     		push	{r3, lr}
 855              		.cfi_def_cfa_offset 8
 856              		.cfi_offset 3, -8
 857              		.cfi_offset 14, -4
 858              		.loc 6 154 21 view .LVU229
 859 0002 FFF7FEFF 		bl	_Z16InitializeSystemv
 860              	.LVL66:
 861              	.L69:
 155:LaserHarp.cpp ****     
 156:LaserHarp.cpp ****     // Main loop
 157:LaserHarp.cpp ****     for(;;) {
 862              		.loc 6 157 5 is_stmt 1 discriminator 1 view .LVU230
 158:LaserHarp.cpp ****         // Update beam inputs (read from Arduino)
 159:LaserHarp.cpp ****         UpdateBeamInputs();
 863              		.loc 6 159 9 discriminator 1 view .LVU231
 864              		.loc 6 159 25 is_stmt 0 discriminator 1 view .LVU232
 865 0006 FFF7FEFF 		bl	_Z16UpdateBeamInputsv
 866              	.LVL67:
 160:LaserHarp.cpp ****         
 161:LaserHarp.cpp ****         // Update MIDI controller
 162:LaserHarp.cpp ****         midiController.Update();
 867              		.loc 6 162 9 is_stmt 1 discriminator 1 view .LVU233
 868              		.loc 6 162 30 is_stmt 0 discriminator 1 view .LVU234
 869 000a 0348     		ldr	r0, .L71
 870 000c FFF7FEFF 		bl	_ZN14MidiController6UpdateEv
 871              	.LVL68:
 163:LaserHarp.cpp ****         
 164:LaserHarp.cpp ****         // Small delay to avoid CPU overload
 165:LaserHarp.cpp ****         System::Delay(1);
 872              		.loc 6 165 9 is_stmt 1 discriminator 1 view .LVU235
 873              		.loc 6 165 22 is_stmt 0 discriminator 1 view .LVU236
 874 0010 0120     		movs	r0, #1
 875 0012 FFF7FEFF 		bl	_ZN5daisy6System5DelayEm
 876              	.LVL69:
 157:LaserHarp.cpp ****         // Update beam inputs (read from Arduino)
 877              		.loc 6 157 5 is_stmt 1 discriminator 1 view .LVU237
 878 0016 F6E7     		b	.L69
 879              	.L72:
 880              		.align	2
 881              	.L71:
 882 0018 00000000 		.word	midiController
ARM GAS  C:\Users\Marco\AppData\Local\Temp\ccmabu9E.s 			page 28


 883              		.cfi_endproc
 884              	.LFE4684:
 886              		.section	.text.startup._GLOBAL__sub_I_hardware,"ax",%progbits
 887              		.align	1
 888              		.p2align 2,,3
 889              		.syntax unified
 890              		.thumb
 891              		.thumb_func
 892              		.fpu fpv5-d16
 894              	_GLOBAL__sub_I_hardware:
 895              	.LFB5247:
 166:LaserHarp.cpp ****     }
 167:LaserHarp.cpp **** }...
 896              		.loc 6 167 1 view -0
 897              		.cfi_startproc
 898              		@ args = 0, pretend = 0, frame = 0
 899              		@ frame_needed = 0, uses_anonymous_args = 0
 900              	.LBB179:
 901              	.LBI179:
 902              		.loc 6 167 1 view .LVU239
 903              	.LVL70:
 904              	.LBB180:
 905              	.LBB181:
 906              	.LBI181:
  21:../DaisyExamples/libDaisy/src/daisy_seed.h ****     ~DaisySeed() {}
 907              		.loc 1 21 5 view .LVU240
 908              	.LBB182:
 909              	.LBB183:
 910              	.LBI183:
 911              		.file 7 "../DaisyExamples/libDaisy/src/per/qspi.h"
   1:../DaisyExamples/libDaisy/src/per/qspi.h **** #ifndef DSY_QSPI
   2:../DaisyExamples/libDaisy/src/per/qspi.h **** #define DSY_QSPI /**< Macro */
   3:../DaisyExamples/libDaisy/src/per/qspi.h **** 
   4:../DaisyExamples/libDaisy/src/per/qspi.h **** #ifndef UNIT_TEST // for unit tests, a dummy implementation
   5:../DaisyExamples/libDaisy/src/per/qspi.h **** 
   6:../DaisyExamples/libDaisy/src/per/qspi.h **** #include <cstdint>
   7:../DaisyExamples/libDaisy/src/per/qspi.h **** #include "daisy_core.h" // Added for dsy_gpio_pin typedef
   8:../DaisyExamples/libDaisy/src/per/qspi.h **** 
   9:../DaisyExamples/libDaisy/src/per/qspi.h **** #define DSY_QSPI_TEXT       \
  10:../DaisyExamples/libDaisy/src/per/qspi.h ****     __attribute__((section( \
  11:../DaisyExamples/libDaisy/src/per/qspi.h ****         ".qspiflash_text"))) /**< used for reading memory in memory_mapped mode. */
  12:../DaisyExamples/libDaisy/src/per/qspi.h **** #define DSY_QSPI_DATA       \
  13:../DaisyExamples/libDaisy/src/per/qspi.h ****     __attribute__((section( \
  14:../DaisyExamples/libDaisy/src/per/qspi.h ****         ".qspiflash_data"))) /**< used for reading memory in memory_mapped mode. */
  15:../DaisyExamples/libDaisy/src/per/qspi.h **** #define DSY_QSPI_BSS        \
  16:../DaisyExamples/libDaisy/src/per/qspi.h ****     __attribute__((section( \
  17:../DaisyExamples/libDaisy/src/per/qspi.h ****         ".qspiflash_bss"))) /**< used for reading memory in memory_mapped mode. */
  18:../DaisyExamples/libDaisy/src/per/qspi.h **** 
  19:../DaisyExamples/libDaisy/src/per/qspi.h **** namespace daisy
  20:../DaisyExamples/libDaisy/src/per/qspi.h **** {
  21:../DaisyExamples/libDaisy/src/per/qspi.h **** /** @addtogroup serial
  22:../DaisyExamples/libDaisy/src/per/qspi.h **** @{
  23:../DaisyExamples/libDaisy/src/per/qspi.h **** */
  24:../DaisyExamples/libDaisy/src/per/qspi.h **** 
  25:../DaisyExamples/libDaisy/src/per/qspi.h **** /** 
  26:../DaisyExamples/libDaisy/src/per/qspi.h ****  Driver for QSPI peripheral to interface with external flash memory. \n 
  27:../DaisyExamples/libDaisy/src/per/qspi.h ****     Currently supported QSPI Devices: \n 
ARM GAS  C:\Users\Marco\AppData\Local\Temp\ccmabu9E.s 			page 29


  28:../DaisyExamples/libDaisy/src/per/qspi.h ****     * IS25LP080D
  29:../DaisyExamples/libDaisy/src/per/qspi.h **** */
  30:../DaisyExamples/libDaisy/src/per/qspi.h **** class QSPIHandle
  31:../DaisyExamples/libDaisy/src/per/qspi.h **** {
  32:../DaisyExamples/libDaisy/src/per/qspi.h ****   public:
  33:../DaisyExamples/libDaisy/src/per/qspi.h ****     enum Result
  34:../DaisyExamples/libDaisy/src/per/qspi.h ****     {
  35:../DaisyExamples/libDaisy/src/per/qspi.h ****         OK = 0,
  36:../DaisyExamples/libDaisy/src/per/qspi.h ****         ERR
  37:../DaisyExamples/libDaisy/src/per/qspi.h ****     };
  38:../DaisyExamples/libDaisy/src/per/qspi.h **** 
  39:../DaisyExamples/libDaisy/src/per/qspi.h ****     /** Indicates the current status of the module. 
  40:../DaisyExamples/libDaisy/src/per/qspi.h ****          *  Warnings are indicated by a leading W.
  41:../DaisyExamples/libDaisy/src/per/qspi.h ****          *  Errors are indicated by a leading E and cause an immediate exit.
  42:../DaisyExamples/libDaisy/src/per/qspi.h ****          * 
  43:../DaisyExamples/libDaisy/src/per/qspi.h ****          *  \param GOOD - No errors have been reported.
  44:../DaisyExamples/libDaisy/src/per/qspi.h ****          *  \param E_HAL_ERROR - HAL code did not return HAL_OK.
  45:../DaisyExamples/libDaisy/src/per/qspi.h ****          *  \param E_SWITCHING_MODES - An error was encountered while switching QSPI peripheral mod
  46:../DaisyExamples/libDaisy/src/per/qspi.h ****          *  \param E_INVALID_MODE - QSPI should not be written to while the program is executing fr
  47:../DaisyExamples/libDaisy/src/per/qspi.h ****          */
  48:../DaisyExamples/libDaisy/src/per/qspi.h ****     enum Status
  49:../DaisyExamples/libDaisy/src/per/qspi.h ****     {
  50:../DaisyExamples/libDaisy/src/per/qspi.h ****         GOOD = 0,
  51:../DaisyExamples/libDaisy/src/per/qspi.h ****         E_HAL_ERROR,
  52:../DaisyExamples/libDaisy/src/per/qspi.h ****         E_SWITCHING_MODES,
  53:../DaisyExamples/libDaisy/src/per/qspi.h ****         E_INVALID_MODE,
  54:../DaisyExamples/libDaisy/src/per/qspi.h ****     };
  55:../DaisyExamples/libDaisy/src/per/qspi.h **** 
  56:../DaisyExamples/libDaisy/src/per/qspi.h ****     /** Configuration structure for interfacing with QSPI Driver */
  57:../DaisyExamples/libDaisy/src/per/qspi.h ****     struct Config
  58:../DaisyExamples/libDaisy/src/per/qspi.h ****     {
  59:../DaisyExamples/libDaisy/src/per/qspi.h ****         /** Flash Devices supported. (Both of these are more-or-less the same, just different sizes
  60:../DaisyExamples/libDaisy/src/per/qspi.h ****         enum Device
  61:../DaisyExamples/libDaisy/src/per/qspi.h ****         {
  62:../DaisyExamples/libDaisy/src/per/qspi.h ****             IS25LP080D,  /**< & */
  63:../DaisyExamples/libDaisy/src/per/qspi.h ****             IS25LP064A,  /**< & */
  64:../DaisyExamples/libDaisy/src/per/qspi.h ****             DEVICE_LAST, /**< & */
  65:../DaisyExamples/libDaisy/src/per/qspi.h ****         };
  66:../DaisyExamples/libDaisy/src/per/qspi.h **** 
  67:../DaisyExamples/libDaisy/src/per/qspi.h ****         /** 
  68:../DaisyExamples/libDaisy/src/per/qspi.h ****         Modes of operation.
  69:../DaisyExamples/libDaisy/src/per/qspi.h ****         Memory Mapped mode: QSPI configured so that the QSPI can be
  70:../DaisyExamples/libDaisy/src/per/qspi.h ****         read from starting address 0x90000000. Writing is not
  71:../DaisyExamples/libDaisy/src/per/qspi.h ****         possible in this mode. \n 
  72:../DaisyExamples/libDaisy/src/per/qspi.h ****         Indirect Polling mode: Device driver enabled. 
  73:../DaisyExamples/libDaisy/src/per/qspi.h ****         */
  74:../DaisyExamples/libDaisy/src/per/qspi.h ****         enum Mode
  75:../DaisyExamples/libDaisy/src/per/qspi.h ****         {
  76:../DaisyExamples/libDaisy/src/per/qspi.h ****             MEMORY_MAPPED,    /**< & */
  77:../DaisyExamples/libDaisy/src/per/qspi.h ****             INDIRECT_POLLING, /**< & */
  78:../DaisyExamples/libDaisy/src/per/qspi.h ****             MODE_LAST,
  79:../DaisyExamples/libDaisy/src/per/qspi.h ****         };
  80:../DaisyExamples/libDaisy/src/per/qspi.h **** 
  81:../DaisyExamples/libDaisy/src/per/qspi.h ****         //SCK,  CE# (active low)
  82:../DaisyExamples/libDaisy/src/per/qspi.h ****         struct
  83:../DaisyExamples/libDaisy/src/per/qspi.h ****         {
  84:../DaisyExamples/libDaisy/src/per/qspi.h ****             dsy_gpio_pin io0; /**< & */
ARM GAS  C:\Users\Marco\AppData\Local\Temp\ccmabu9E.s 			page 30


  85:../DaisyExamples/libDaisy/src/per/qspi.h ****             dsy_gpio_pin io1; /**< & */
  86:../DaisyExamples/libDaisy/src/per/qspi.h ****             dsy_gpio_pin io2; /**< & */
  87:../DaisyExamples/libDaisy/src/per/qspi.h ****             dsy_gpio_pin io3; /**< & */
  88:../DaisyExamples/libDaisy/src/per/qspi.h ****             dsy_gpio_pin clk; /**< & */
  89:../DaisyExamples/libDaisy/src/per/qspi.h ****             dsy_gpio_pin ncs; /**< & */
  90:../DaisyExamples/libDaisy/src/per/qspi.h ****         } pin_config;
  91:../DaisyExamples/libDaisy/src/per/qspi.h **** 
  92:../DaisyExamples/libDaisy/src/per/qspi.h ****         Device device;
  93:../DaisyExamples/libDaisy/src/per/qspi.h ****         Mode   mode;
  94:../DaisyExamples/libDaisy/src/per/qspi.h ****     };
  95:../DaisyExamples/libDaisy/src/per/qspi.h **** 
  96:../DaisyExamples/libDaisy/src/per/qspi.h ****     /** 
  97:../DaisyExamples/libDaisy/src/per/qspi.h ****         Initializes QSPI peripheral, and Resets, and prepares memory for access.
  98:../DaisyExamples/libDaisy/src/per/qspi.h ****         \param config should be populated with the mode, device and pin_config before calling this 
  99:../DaisyExamples/libDaisy/src/per/qspi.h ****         \return Result::OK or Result::ERR
 100:../DaisyExamples/libDaisy/src/per/qspi.h ****         */
 101:../DaisyExamples/libDaisy/src/per/qspi.h ****     Result Init(const Config& config);
 102:../DaisyExamples/libDaisy/src/per/qspi.h **** 
 103:../DaisyExamples/libDaisy/src/per/qspi.h ****     /** Returns the current config. */
 104:../DaisyExamples/libDaisy/src/per/qspi.h ****     const Config& GetConfig() const;
 105:../DaisyExamples/libDaisy/src/per/qspi.h **** 
 106:../DaisyExamples/libDaisy/src/per/qspi.h ****     // Couldn't this just be called before anything else in init? That
 107:../DaisyExamples/libDaisy/src/per/qspi.h ****     // would make manually calling it unnecessary.
 108:../DaisyExamples/libDaisy/src/per/qspi.h ****     /** 
 109:../DaisyExamples/libDaisy/src/per/qspi.h ****         Deinitializes the peripheral
 110:../DaisyExamples/libDaisy/src/per/qspi.h ****         This should be called before reinitializing QSPI in a different mode.
 111:../DaisyExamples/libDaisy/src/per/qspi.h ****         \return Result::OK or Result::ERR
 112:../DaisyExamples/libDaisy/src/per/qspi.h ****         */
 113:../DaisyExamples/libDaisy/src/per/qspi.h ****     Result DeInit();
 114:../DaisyExamples/libDaisy/src/per/qspi.h **** 
 115:../DaisyExamples/libDaisy/src/per/qspi.h ****     /** 
 116:../DaisyExamples/libDaisy/src/per/qspi.h ****         Writes a single page to to the specified address on the QSPI chip.
 117:../DaisyExamples/libDaisy/src/per/qspi.h ****         For IS25LP*, page size is 256 bytes.
 118:../DaisyExamples/libDaisy/src/per/qspi.h ****         \param address Address to write to
 119:../DaisyExamples/libDaisy/src/per/qspi.h ****         \param size Buffer size
 120:../DaisyExamples/libDaisy/src/per/qspi.h ****         \param buffer Buffer to write
 121:../DaisyExamples/libDaisy/src/per/qspi.h ****         \return Result::OK or Result::ERR
 122:../DaisyExamples/libDaisy/src/per/qspi.h ****         */
 123:../DaisyExamples/libDaisy/src/per/qspi.h ****     Result WritePage(uint32_t address, uint32_t size, uint8_t* buffer);
 124:../DaisyExamples/libDaisy/src/per/qspi.h **** 
 125:../DaisyExamples/libDaisy/src/per/qspi.h ****     /** 
 126:../DaisyExamples/libDaisy/src/per/qspi.h ****         Writes data in buffer to to the QSPI. Starting at address to address+size 
 127:../DaisyExamples/libDaisy/src/per/qspi.h ****         \param address Address to write to
 128:../DaisyExamples/libDaisy/src/per/qspi.h ****         \param size Buffer size
 129:../DaisyExamples/libDaisy/src/per/qspi.h ****         \param buffer Buffer to write
 130:../DaisyExamples/libDaisy/src/per/qspi.h ****         \return Result::OK or Result::ERR
 131:../DaisyExamples/libDaisy/src/per/qspi.h ****         */
 132:../DaisyExamples/libDaisy/src/per/qspi.h ****     Result Write(uint32_t address, uint32_t size, uint8_t* buffer);
 133:../DaisyExamples/libDaisy/src/per/qspi.h **** 
 134:../DaisyExamples/libDaisy/src/per/qspi.h ****     /** 
 135:../DaisyExamples/libDaisy/src/per/qspi.h ****         Erases the area specified on the chip.
 136:../DaisyExamples/libDaisy/src/per/qspi.h ****         Erasures will happen by 4K, 32K or 64K increments.
 137:../DaisyExamples/libDaisy/src/per/qspi.h ****         Smallest erase possible is 4kB at a time. (on IS25LP*)
 138:../DaisyExamples/libDaisy/src/per/qspi.h ****         \param start_addr Address to begin erasing from
 139:../DaisyExamples/libDaisy/src/per/qspi.h ****         \param end_addr  Address to stop erasing at
 140:../DaisyExamples/libDaisy/src/per/qspi.h ****         \return Result::OK or Result::ERR
 141:../DaisyExamples/libDaisy/src/per/qspi.h ****         */
ARM GAS  C:\Users\Marco\AppData\Local\Temp\ccmabu9E.s 			page 31


 142:../DaisyExamples/libDaisy/src/per/qspi.h ****     Result Erase(uint32_t start_addr, uint32_t end_addr);
 143:../DaisyExamples/libDaisy/src/per/qspi.h **** 
 144:../DaisyExamples/libDaisy/src/per/qspi.h ****     /**  
 145:../DaisyExamples/libDaisy/src/per/qspi.h ****          Erases a single sector of the chip.  
 146:../DaisyExamples/libDaisy/src/per/qspi.h ****         TODO: Document the size of this function. 
 147:../DaisyExamples/libDaisy/src/per/qspi.h ****         \param address Address of sector to erase
 148:../DaisyExamples/libDaisy/src/per/qspi.h ****         \return Result::OK or Result::ERR
 149:../DaisyExamples/libDaisy/src/per/qspi.h ****         */
 150:../DaisyExamples/libDaisy/src/per/qspi.h ****     Result EraseSector(uint32_t address);
 151:../DaisyExamples/libDaisy/src/per/qspi.h **** 
 152:../DaisyExamples/libDaisy/src/per/qspi.h ****     /** Returns the current class status. Useful for debugging.
 153:../DaisyExamples/libDaisy/src/per/qspi.h ****      *  \returns Status
 154:../DaisyExamples/libDaisy/src/per/qspi.h ****      */
 155:../DaisyExamples/libDaisy/src/per/qspi.h ****     Status GetStatus();
 156:../DaisyExamples/libDaisy/src/per/qspi.h **** 
 157:../DaisyExamples/libDaisy/src/per/qspi.h ****     /** Returns a pointer to the actual memory used 
 158:../DaisyExamples/libDaisy/src/per/qspi.h ****      *  The memory at this address is read-only
 159:../DaisyExamples/libDaisy/src/per/qspi.h ****      *  to write to it use the Write function.
 160:../DaisyExamples/libDaisy/src/per/qspi.h ****      * 
 161:../DaisyExamples/libDaisy/src/per/qspi.h ****      *  \param offset returns the pointer starting this 
 162:../DaisyExamples/libDaisy/src/per/qspi.h ****      *                many bytes into the memory
 163:../DaisyExamples/libDaisy/src/per/qspi.h ****     */
 164:../DaisyExamples/libDaisy/src/per/qspi.h ****     void* GetData(uint32_t offset = 0);
 165:../DaisyExamples/libDaisy/src/per/qspi.h **** 
 166:../DaisyExamples/libDaisy/src/per/qspi.h ****     QSPIHandle() : pimpl_(nullptr) {}
 912              		.loc 7 166 5 view .LVU241
 913              	.LBE183:
 914              	.LBE182:
 915              	.LBE181:
 916              	.LBE180:
 917              	.LBE179:
 918              		.loc 6 167 1 is_stmt 0 view .LVU242
 919 0000 08B5     		push	{r3, lr}
 920              		.cfi_def_cfa_offset 8
 921              		.cfi_offset 3, -8
 922              		.cfi_offset 14, -4
 923              	.LBB221:
 924              	.LBB220:
 925              	.LBB204:
 926              	.LBB202:
 927              	.LBB188:
 928              	.LBB184:
 929              	.LBB185:
 930              		.loc 7 166 34 view .LVU243
 931 0002 1A48     		ldr	r0, .L77
 932 0004 0023     		movs	r3, #0
 933              	.LBE185:
 934              	.LBE184:
 935              	.LBE188:
 936              	.LBE202:
 937              	.LBE204:
  17:LaserHarp.cpp **** DaisySeed hardware;
 938              		.loc 6 17 11 view .LVU244
 939 0006 1A4A     		ldr	r2, .L77+4
 940              	.LBB205:
 941              	.LBB203:
 942              	.LBB189:
ARM GAS  C:\Users\Marco\AppData\Local\Temp\ccmabu9E.s 			page 32


 943              	.LBB187:
 944              	.LBB186:
 945              		.loc 7 166 34 view .LVU245
 946 0008 0360     		str	r3, [r0]
 947              	.LVL71:
 948              		.loc 7 166 34 view .LVU246
 949              	.LBE186:
 950              	.LBE187:
 951              	.LBE189:
 952              	.LBB190:
 953              	.LBI190:
  95:../DaisyExamples/libDaisy/src/hid/audio.h ****     ~AudioHandle() {}
 954              		.loc 5 95 5 is_stmt 1 view .LVU247
 955              	.LBB191:
 956              	.LBB192:
  95:../DaisyExamples/libDaisy/src/hid/audio.h ****     ~AudioHandle() {}
 957              		.loc 5 95 35 is_stmt 0 view .LVU248
 958 000a 4361     		str	r3, [r0, #20]
 959              	.LVL72:
  95:../DaisyExamples/libDaisy/src/hid/audio.h ****     ~AudioHandle() {}
 960              		.loc 5 95 35 view .LVU249
 961              	.LBE192:
 962              	.LBE191:
 963              	.LBE190:
 964              	.LBB193:
 965              	.LBI193:
 109:../DaisyExamples/libDaisy/src/per/adc.h ****     ~AdcHandle() {}
 966              		.loc 4 109 5 is_stmt 1 view .LVU250
 109:../DaisyExamples/libDaisy/src/per/adc.h ****     ~AdcHandle() {}
 967              		.loc 4 109 5 is_stmt 0 view .LVU251
 968              	.LBE193:
 969              	.LBB194:
 970              	.LBI194:
 971              		.file 8 "../DaisyExamples/libDaisy/src/per/dac.h"
   1:../DaisyExamples/libDaisy/src/per/dac.h **** #pragma once
   2:../DaisyExamples/libDaisy/src/per/dac.h **** #ifndef DSY_DAC_H
   3:../DaisyExamples/libDaisy/src/per/dac.h **** #define DSY_DAC_H
   4:../DaisyExamples/libDaisy/src/per/dac.h **** 
   5:../DaisyExamples/libDaisy/src/per/dac.h **** #include "daisy_core.h"
   6:../DaisyExamples/libDaisy/src/per/dac.h **** 
   7:../DaisyExamples/libDaisy/src/per/dac.h **** namespace daisy
   8:../DaisyExamples/libDaisy/src/per/dac.h **** {
   9:../DaisyExamples/libDaisy/src/per/dac.h **** /** @brief DAC handle for Built-in DAC Peripheral 
  10:../DaisyExamples/libDaisy/src/per/dac.h ****  *  @ingroup per_analog
  11:../DaisyExamples/libDaisy/src/per/dac.h ****  ** 
  12:../DaisyExamples/libDaisy/src/per/dac.h ****  ** For now only Normal Mode is supported,
  13:../DaisyExamples/libDaisy/src/per/dac.h ****  ** Sample and hold mode provides reduced power consumption, but requires a bit more setup.
  14:../DaisyExamples/libDaisy/src/per/dac.h ****  **
  15:../DaisyExamples/libDaisy/src/per/dac.h ****  ** For now connecting the DAC through other internal peripherals is also not supported.
  16:../DaisyExamples/libDaisy/src/per/dac.h ****  **
  17:../DaisyExamples/libDaisy/src/per/dac.h ****  ** Since the DAC channels have dedicated pins we don't need to pass in a pin config like with
  18:../DaisyExamples/libDaisy/src/per/dac.h ****  ** other modules. However, it is still important to not try to use the DAC pins for anything else.
  19:../DaisyExamples/libDaisy/src/per/dac.h ****  ** DAC Channel 1 is on PA4, and DAC Channel 2 is on PA5
  20:../DaisyExamples/libDaisy/src/per/dac.h ****  ***/
  21:../DaisyExamples/libDaisy/src/per/dac.h **** class DacHandle
  22:../DaisyExamples/libDaisy/src/per/dac.h **** {
  23:../DaisyExamples/libDaisy/src/per/dac.h ****   public:
ARM GAS  C:\Users\Marco\AppData\Local\Temp\ccmabu9E.s 			page 33


  24:../DaisyExamples/libDaisy/src/per/dac.h ****     /** Return Values for the DacHandle class */
  25:../DaisyExamples/libDaisy/src/per/dac.h ****     enum class Result
  26:../DaisyExamples/libDaisy/src/per/dac.h ****     {
  27:../DaisyExamples/libDaisy/src/per/dac.h ****         OK,
  28:../DaisyExamples/libDaisy/src/per/dac.h ****         ERR,
  29:../DaisyExamples/libDaisy/src/per/dac.h ****     };
  30:../DaisyExamples/libDaisy/src/per/dac.h **** 
  31:../DaisyExamples/libDaisy/src/per/dac.h ****     /** Selects which channel(s) will be configured for use. */
  32:../DaisyExamples/libDaisy/src/per/dac.h ****     enum class Channel
  33:../DaisyExamples/libDaisy/src/per/dac.h ****     {
  34:../DaisyExamples/libDaisy/src/per/dac.h ****         ONE,
  35:../DaisyExamples/libDaisy/src/per/dac.h ****         TWO,
  36:../DaisyExamples/libDaisy/src/per/dac.h ****         BOTH,
  37:../DaisyExamples/libDaisy/src/per/dac.h ****     };
  38:../DaisyExamples/libDaisy/src/per/dac.h **** 
  39:../DaisyExamples/libDaisy/src/per/dac.h ****     /** Sets the Mode for the DAC channels.
  40:../DaisyExamples/libDaisy/src/per/dac.h ****      **
  41:../DaisyExamples/libDaisy/src/per/dac.h ****      ** Polling mode uses the blocking mode to transmit a single value at a time.
  42:../DaisyExamples/libDaisy/src/per/dac.h ****      **
  43:../DaisyExamples/libDaisy/src/per/dac.h ****      ** DMA mode uses a buffer, and periodically transmits it triggering a 
  44:../DaisyExamples/libDaisy/src/per/dac.h ****      ** callback to fill the buffer when it is ready for more samples.
  45:../DaisyExamples/libDaisy/src/per/dac.h ****      ***/
  46:../DaisyExamples/libDaisy/src/per/dac.h ****     enum class Mode
  47:../DaisyExamples/libDaisy/src/per/dac.h ****     {
  48:../DaisyExamples/libDaisy/src/per/dac.h ****         POLLING,
  49:../DaisyExamples/libDaisy/src/per/dac.h ****         DMA,
  50:../DaisyExamples/libDaisy/src/per/dac.h ****     };
  51:../DaisyExamples/libDaisy/src/per/dac.h **** 
  52:../DaisyExamples/libDaisy/src/per/dac.h ****     /** Sets the number of bits per sample transmitted out of the DAC.
  53:../DaisyExamples/libDaisy/src/per/dac.h ****      ** The output range will be: 0V - VDDA
  54:../DaisyExamples/libDaisy/src/per/dac.h ****      ** The resolution will be roughly: bitdepth / (VDDA - 0V) 
  55:../DaisyExamples/libDaisy/src/per/dac.h ****      ***/
  56:../DaisyExamples/libDaisy/src/per/dac.h ****     enum class BitDepth
  57:../DaisyExamples/libDaisy/src/per/dac.h ****     {
  58:../DaisyExamples/libDaisy/src/per/dac.h ****         BITS_8,
  59:../DaisyExamples/libDaisy/src/per/dac.h ****         BITS_12
  60:../DaisyExamples/libDaisy/src/per/dac.h ****     };
  61:../DaisyExamples/libDaisy/src/per/dac.h **** 
  62:../DaisyExamples/libDaisy/src/per/dac.h ****     /** Sets whether the DAC output is buffered for higher drive ability. */
  63:../DaisyExamples/libDaisy/src/per/dac.h ****     enum class BufferState
  64:../DaisyExamples/libDaisy/src/per/dac.h ****     {
  65:../DaisyExamples/libDaisy/src/per/dac.h ****         ENABLED,
  66:../DaisyExamples/libDaisy/src/per/dac.h ****         DISABLED,
  67:../DaisyExamples/libDaisy/src/per/dac.h ****     };
  68:../DaisyExamples/libDaisy/src/per/dac.h **** 
  69:../DaisyExamples/libDaisy/src/per/dac.h ****     /** Configuration structure for initializing the DAC structure. */
  70:../DaisyExamples/libDaisy/src/per/dac.h ****     struct Config
  71:../DaisyExamples/libDaisy/src/per/dac.h ****     {
  72:../DaisyExamples/libDaisy/src/per/dac.h ****         /** Target Samplerate in Hz used to configure the internal 
  73:../DaisyExamples/libDaisy/src/per/dac.h ****          ** timebase for DMA mode. Does nothing in POLLING mode.
  74:../DaisyExamples/libDaisy/src/per/dac.h ****          ** If the value is 0 at Init time this will default to 48000Hz 
  75:../DaisyExamples/libDaisy/src/per/dac.h ****          ** otherwise the driver will attempt meet the target.*/
  76:../DaisyExamples/libDaisy/src/per/dac.h ****         uint32_t target_samplerate;
  77:../DaisyExamples/libDaisy/src/per/dac.h **** 
  78:../DaisyExamples/libDaisy/src/per/dac.h ****         Channel     chn;
  79:../DaisyExamples/libDaisy/src/per/dac.h ****         Mode        mode;
  80:../DaisyExamples/libDaisy/src/per/dac.h ****         BitDepth    bitdepth;
ARM GAS  C:\Users\Marco\AppData\Local\Temp\ccmabu9E.s 			page 34


  81:../DaisyExamples/libDaisy/src/per/dac.h ****         BufferState buff_state;
  82:../DaisyExamples/libDaisy/src/per/dac.h ****     };
  83:../DaisyExamples/libDaisy/src/per/dac.h **** 
  84:../DaisyExamples/libDaisy/src/per/dac.h ****     DacHandle() : pimpl_(nullptr) {}
 972              		.loc 8 84 5 is_stmt 1 view .LVU252
 973              	.LBB195:
 974              	.LBB196:
 975              		.loc 8 84 33 is_stmt 0 view .LVU253
 976 000c 0362     		str	r3, [r0, #32]
 977              	.LVL73:
 978              		.loc 8 84 33 view .LVU254
 979              	.LBE196:
 980              	.LBE195:
 981              	.LBE194:
 982              	.LBB197:
 983              	.LBI197:
  40:../DaisyExamples/libDaisy/src/hid/usb.h **** 
 984              		.loc 3 40 5 is_stmt 1 view .LVU255
  40:../DaisyExamples/libDaisy/src/hid/usb.h **** 
 985              		.loc 3 40 5 is_stmt 0 view .LVU256
 986              	.LBE197:
 987              	.LBB198:
 988              	.LBI198:
  96:../DaisyExamples/libDaisy/src/sys/system.h ****     ~System() {}
 989              		.loc 2 96 5 is_stmt 1 view .LVU257
  96:../DaisyExamples/libDaisy/src/sys/system.h ****     ~System() {}
 990              		.loc 2 96 5 is_stmt 0 view .LVU258
 991              	.LBE198:
 992              	.LBB199:
 993              	.LBI199:
 994              		.file 9 "../DaisyExamples/libDaisy/src/per/sai.h"
   1:../DaisyExamples/libDaisy/src/per/sai.h **** #pragma once
   2:../DaisyExamples/libDaisy/src/per/sai.h **** #ifndef DSY_SAI_H
   3:../DaisyExamples/libDaisy/src/per/sai.h **** #define DSY_SAI_H
   4:../DaisyExamples/libDaisy/src/per/sai.h **** 
   5:../DaisyExamples/libDaisy/src/per/sai.h **** #include "daisy_core.h"
   6:../DaisyExamples/libDaisy/src/per/sai.h **** 
   7:../DaisyExamples/libDaisy/src/per/sai.h **** namespace daisy
   8:../DaisyExamples/libDaisy/src/per/sai.h **** {
   9:../DaisyExamples/libDaisy/src/per/sai.h **** /** 
  10:../DaisyExamples/libDaisy/src/per/sai.h ****  * Support for I2S Audio Protocol with different bit-depth, samplerate options
  11:../DaisyExamples/libDaisy/src/per/sai.h ****  * Allows for master or slave, as well as freedom of selecting direction, 
  12:../DaisyExamples/libDaisy/src/per/sai.h ****  * and other behavior for each peripheral, and block.
  13:../DaisyExamples/libDaisy/src/per/sai.h ****  * 
  14:../DaisyExamples/libDaisy/src/per/sai.h ****  * DMA Transfer commands must use buffers located within non-cached memory or use cache maintenance
  15:../DaisyExamples/libDaisy/src/per/sai.h ****  * To declare an unitialized global element in the DMA memory section:
  16:../DaisyExamples/libDaisy/src/per/sai.h ****  *    int32_t DSY_DMA_BUFFER_SECTOR my_buffer[96];
  17:../DaisyExamples/libDaisy/src/per/sai.h ****  *
  18:../DaisyExamples/libDaisy/src/per/sai.h ****  * Callback functions will be called once per half of the buffer. In the above example, 
  19:../DaisyExamples/libDaisy/src/per/sai.h ****  * the callback function would be called once for every 48 samples.
  20:../DaisyExamples/libDaisy/src/per/sai.h ****  * 
  21:../DaisyExamples/libDaisy/src/per/sai.h ****  * Use SAI Handle like this:
  22:../DaisyExamples/libDaisy/src/per/sai.h ****  * 
  23:../DaisyExamples/libDaisy/src/per/sai.h ****  *  SaiHandle::Config sai_config;
  24:../DaisyExamples/libDaisy/src/per/sai.h ****  *  sai_config.periph          = SaiHandle::Config::Peripheral::SAI_1;
  25:../DaisyExamples/libDaisy/src/per/sai.h ****  *  sai_config.sr              = SaiHandle::Config::SampleRate::SAI_48KHZ;
  26:../DaisyExamples/libDaisy/src/per/sai.h ****  *  sai_config.bit_depth       = SaiHandle::Config::BitDepth::SAI_24BIT;
ARM GAS  C:\Users\Marco\AppData\Local\Temp\ccmabu9E.s 			page 35


  27:../DaisyExamples/libDaisy/src/per/sai.h ****  *  sai_config.a_sync          = SaiHandle::Config::Sync::MASTER;
  28:../DaisyExamples/libDaisy/src/per/sai.h ****  *  sai_config.b_sync          = SaiHandle::Config::Sync::SLAVE;
  29:../DaisyExamples/libDaisy/src/per/sai.h ****  *  sai_config.a_dir           = SaiHandle::Config::Direction::RECEIVE;
  30:../DaisyExamples/libDaisy/src/per/sai.h ****  *  sai_config.b_dir           = SaiHandle::Config::Direction::TRANSMIT;
  31:../DaisyExamples/libDaisy/src/per/sai.h ****  *  sai_config.pin_config.fs   = {DSY_GPIOE, 4};
  32:../DaisyExamples/libDaisy/src/per/sai.h ****  *  sai_config.pin_config.mclk = {DSY_GPIOE, 2};
  33:../DaisyExamples/libDaisy/src/per/sai.h ****  *  sai_config.pin_config.sck  = {DSY_GPIOE, 5};
  34:../DaisyExamples/libDaisy/src/per/sai.h ****  *  sai_config.pin_config.sa   = {DSY_GPIOE, 6};
  35:../DaisyExamples/libDaisy/src/per/sai.h ****  *  sai_config.pin_config.sb   = {DSY_GPIOE, 3};
  36:../DaisyExamples/libDaisy/src/per/sai.h ****  *  // Then Initialize
  37:../DaisyExamples/libDaisy/src/per/sai.h ****  *  SaiHandle sai;
  38:../DaisyExamples/libDaisy/src/per/sai.h ****  *  sai.Init(sai_config);
  39:../DaisyExamples/libDaisy/src/per/sai.h ****  *  // Now you can use it:
  40:../DaisyExamples/libDaisy/src/per/sai.h ****  *  sai.StartDma(. . .);
  41:../DaisyExamples/libDaisy/src/per/sai.h ****  */
  42:../DaisyExamples/libDaisy/src/per/sai.h **** class SaiHandle
  43:../DaisyExamples/libDaisy/src/per/sai.h **** {
  44:../DaisyExamples/libDaisy/src/per/sai.h ****   public:
  45:../DaisyExamples/libDaisy/src/per/sai.h ****     /** Contains settings for initialising an SAI Interface */
  46:../DaisyExamples/libDaisy/src/per/sai.h ****     struct Config
  47:../DaisyExamples/libDaisy/src/per/sai.h ****     {
  48:../DaisyExamples/libDaisy/src/per/sai.h ****         /** Specifies the internal peripheral to use (mapped to different hardware pins) */
  49:../DaisyExamples/libDaisy/src/per/sai.h ****         enum class Peripheral
  50:../DaisyExamples/libDaisy/src/per/sai.h ****         {
  51:../DaisyExamples/libDaisy/src/per/sai.h ****             SAI_1,
  52:../DaisyExamples/libDaisy/src/per/sai.h ****             SAI_2,
  53:../DaisyExamples/libDaisy/src/per/sai.h ****         };
  54:../DaisyExamples/libDaisy/src/per/sai.h **** 
  55:../DaisyExamples/libDaisy/src/per/sai.h ****         /** Rate at which samples will be streaming to/from the device. */
  56:../DaisyExamples/libDaisy/src/per/sai.h ****         enum class SampleRate
  57:../DaisyExamples/libDaisy/src/per/sai.h ****         {
  58:../DaisyExamples/libDaisy/src/per/sai.h ****             SAI_8KHZ,
  59:../DaisyExamples/libDaisy/src/per/sai.h ****             SAI_16KHZ,
  60:../DaisyExamples/libDaisy/src/per/sai.h ****             SAI_32KHZ,
  61:../DaisyExamples/libDaisy/src/per/sai.h ****             SAI_48KHZ,
  62:../DaisyExamples/libDaisy/src/per/sai.h ****             SAI_96KHZ,
  63:../DaisyExamples/libDaisy/src/per/sai.h ****         };
  64:../DaisyExamples/libDaisy/src/per/sai.h **** 
  65:../DaisyExamples/libDaisy/src/per/sai.h ****         /** Bit Depth that the hardware expects to be transferred to/from the device. */
  66:../DaisyExamples/libDaisy/src/per/sai.h ****         enum class BitDepth
  67:../DaisyExamples/libDaisy/src/per/sai.h ****         {
  68:../DaisyExamples/libDaisy/src/per/sai.h ****             SAI_16BIT,
  69:../DaisyExamples/libDaisy/src/per/sai.h ****             SAI_24BIT,
  70:../DaisyExamples/libDaisy/src/per/sai.h ****             SAI_32BIT,
  71:../DaisyExamples/libDaisy/src/per/sai.h ****         };
  72:../DaisyExamples/libDaisy/src/per/sai.h **** 
  73:../DaisyExamples/libDaisy/src/per/sai.h ****         /** Specifies whether a particular block is the master or the slave 
  74:../DaisyExamples/libDaisy/src/per/sai.h ****          ** If both are set to slave, no MCLK signal will be used, and it is
  75:../DaisyExamples/libDaisy/src/per/sai.h ****          ** expected that the codec will have its own xtal.
  76:../DaisyExamples/libDaisy/src/per/sai.h ****          */
  77:../DaisyExamples/libDaisy/src/per/sai.h ****         enum class Sync
  78:../DaisyExamples/libDaisy/src/per/sai.h ****         {
  79:../DaisyExamples/libDaisy/src/per/sai.h ****             MASTER,
  80:../DaisyExamples/libDaisy/src/per/sai.h ****             SLAVE,
  81:../DaisyExamples/libDaisy/src/per/sai.h ****         };
  82:../DaisyExamples/libDaisy/src/per/sai.h **** 
  83:../DaisyExamples/libDaisy/src/per/sai.h ****         /** Specifies the direction for each peripheral block. */
ARM GAS  C:\Users\Marco\AppData\Local\Temp\ccmabu9E.s 			page 36


  84:../DaisyExamples/libDaisy/src/per/sai.h ****         enum class Direction
  85:../DaisyExamples/libDaisy/src/per/sai.h ****         {
  86:../DaisyExamples/libDaisy/src/per/sai.h ****             TRANSMIT,
  87:../DaisyExamples/libDaisy/src/per/sai.h ****             RECEIVE,
  88:../DaisyExamples/libDaisy/src/per/sai.h ****         };
  89:../DaisyExamples/libDaisy/src/per/sai.h **** 
  90:../DaisyExamples/libDaisy/src/per/sai.h ****         Peripheral periph;
  91:../DaisyExamples/libDaisy/src/per/sai.h ****         struct
  92:../DaisyExamples/libDaisy/src/per/sai.h ****         {
  93:../DaisyExamples/libDaisy/src/per/sai.h ****             dsy_gpio_pin mclk, fs, sck, sa, sb;
  94:../DaisyExamples/libDaisy/src/per/sai.h ****         } pin_config;
  95:../DaisyExamples/libDaisy/src/per/sai.h ****         SampleRate sr;
  96:../DaisyExamples/libDaisy/src/per/sai.h ****         BitDepth   bit_depth;
  97:../DaisyExamples/libDaisy/src/per/sai.h ****         Sync       a_sync, b_sync;
  98:../DaisyExamples/libDaisy/src/per/sai.h ****         Direction  a_dir, b_dir;
  99:../DaisyExamples/libDaisy/src/per/sai.h ****     };
 100:../DaisyExamples/libDaisy/src/per/sai.h **** 
 101:../DaisyExamples/libDaisy/src/per/sai.h ****     /** Return values for SAI functions */
 102:../DaisyExamples/libDaisy/src/per/sai.h ****     enum class Result
 103:../DaisyExamples/libDaisy/src/per/sai.h ****     {
 104:../DaisyExamples/libDaisy/src/per/sai.h ****         OK,
 105:../DaisyExamples/libDaisy/src/per/sai.h ****         ERR,
 106:../DaisyExamples/libDaisy/src/per/sai.h ****     };
 107:../DaisyExamples/libDaisy/src/per/sai.h **** 
 108:../DaisyExamples/libDaisy/src/per/sai.h ****     SaiHandle() : pimpl_(nullptr) {}
 995              		.loc 9 108 5 is_stmt 1 view .LVU259
 996              	.LBB200:
 997              	.LBB201:
 998              		.loc 9 108 33 is_stmt 0 view .LVU260
 999 000e C363     		str	r3, [r0, #60]
 1000              	.LVL74:
 1001              		.loc 9 108 33 view .LVU261
 1002              	.LBE201:
 1003              	.LBE200:
 1004              	.LBE199:
 1005              	.LBE203:
 1006              	.LBE205:
  17:LaserHarp.cpp **** DaisySeed hardware;
 1007              		.loc 6 17 11 view .LVU262
 1008 0010 1849     		ldr	r1, .L77+8
 1009 0012 FFF7FEFF 		bl	__aeabi_atexit
 1010              	.LVL75:
  20:LaserHarp.cpp **** ConfigManager configManager;
 1011              		.loc 6 20 15 view .LVU263
 1012 0016 1848     		ldr	r0, .L77+12
 1013 0018 FFF7FEFF 		bl	_ZN13ConfigManagerC1Ev
 1014              	.LVL76:
 1015 001c 144A     		ldr	r2, .L77+4
 1016 001e 1749     		ldr	r1, .L77+16
 1017 0020 1548     		ldr	r0, .L77+12
 1018 0022 FFF7FEFF 		bl	__aeabi_atexit
 1019              	.LVL77:
  21:LaserHarp.cpp **** MidiController midiController;
 1020              		.loc 6 21 16 view .LVU264
 1021 0026 1648     		ldr	r0, .L77+20
 1022 0028 FFF7FEFF 		bl	_ZN14MidiControllerC1Ev
 1023              	.LVL78:
ARM GAS  C:\Users\Marco\AppData\Local\Temp\ccmabu9E.s 			page 37


 1024 002c 104A     		ldr	r2, .L77+4
 1025 002e 1549     		ldr	r1, .L77+24
 1026 0030 1348     		ldr	r0, .L77+20
 1027 0032 FFF7FEFF 		bl	__aeabi_atexit
 1028              	.LVL79:
  22:LaserHarp.cpp **** AudioSynthesizer audioSynthesizer;
 1029              		.loc 6 22 18 view .LVU265
 1030 0036 1448     		ldr	r0, .L77+28
 1031 0038 FFF7FEFF 		bl	_ZN16AudioSynthesizerC1Ev
 1032              	.LVL80:
 1033 003c 0C4A     		ldr	r2, .L77+4
 1034 003e 1349     		ldr	r1, .L77+32
 1035 0040 1148     		ldr	r0, .L77+28
 1036 0042 FFF7FEFF 		bl	__aeabi_atexit
 1037              	.LVL81:
  25:LaserHarp.cpp **** GPIO beamInputs[7];
 1038              		.loc 6 25 18 is_stmt 1 view .LVU266
 1039 0046 124B     		ldr	r3, .L77+36
 1040 0048 03F18C0C 		add	ip, r3, #140
 1041              	.L74:
 1042              	.LVL82:
 1043              	.LBB206:
 1044              	.LBI206:
 1045              		.file 10 "../DaisyExamples/libDaisy/src/per/gpio.h"
   1:../DaisyExamples/libDaisy/src/per/gpio.h **** #pragma once
   2:../DaisyExamples/libDaisy/src/per/gpio.h **** #ifndef DSY_GPIO_H
   3:../DaisyExamples/libDaisy/src/per/gpio.h **** #define DSY_GPIO_H
   4:../DaisyExamples/libDaisy/src/per/gpio.h **** #include "daisy_core.h"
   5:../DaisyExamples/libDaisy/src/per/gpio.h **** 
   6:../DaisyExamples/libDaisy/src/per/gpio.h **** #ifdef __cplusplus
   7:../DaisyExamples/libDaisy/src/per/gpio.h **** 
   8:../DaisyExamples/libDaisy/src/per/gpio.h **** namespace daisy
   9:../DaisyExamples/libDaisy/src/per/gpio.h **** {
  10:../DaisyExamples/libDaisy/src/per/gpio.h **** /** @brief General Purpose I/O control 
  11:../DaisyExamples/libDaisy/src/per/gpio.h ****  *  @details peripheral control over a single GPIO
  12:../DaisyExamples/libDaisy/src/per/gpio.h ****  *  @ingroup peripheral
  13:../DaisyExamples/libDaisy/src/per/gpio.h ****  *   
  14:../DaisyExamples/libDaisy/src/per/gpio.h ****  *  Button Input (with internal Pullup resistor)
  15:../DaisyExamples/libDaisy/src/per/gpio.h ****  *  @include GPIO_Input.cpp 
  16:../DaisyExamples/libDaisy/src/per/gpio.h ****  * 
  17:../DaisyExamples/libDaisy/src/per/gpio.h ****  *  Output Example (perfect for blinking an LED)
  18:../DaisyExamples/libDaisy/src/per/gpio.h ****  *  @include GPIO_Output.cpp
  19:../DaisyExamples/libDaisy/src/per/gpio.h ****  * 
  20:../DaisyExamples/libDaisy/src/per/gpio.h **** */
  21:../DaisyExamples/libDaisy/src/per/gpio.h **** class GPIO
  22:../DaisyExamples/libDaisy/src/per/gpio.h **** {
  23:../DaisyExamples/libDaisy/src/per/gpio.h ****   public:
  24:../DaisyExamples/libDaisy/src/per/gpio.h ****     /** @brief Mode of operation for the specified GPIO */
  25:../DaisyExamples/libDaisy/src/per/gpio.h ****     enum class Mode
  26:../DaisyExamples/libDaisy/src/per/gpio.h ****     {
  27:../DaisyExamples/libDaisy/src/per/gpio.h ****         INPUT,     /**< Input for reading state of pin */
  28:../DaisyExamples/libDaisy/src/per/gpio.h ****         OUTPUT,    /**< Output w/ push-pull configuration */
  29:../DaisyExamples/libDaisy/src/per/gpio.h ****         OUTPUT_OD, /**< Output w/ open-drain configuration */
  30:../DaisyExamples/libDaisy/src/per/gpio.h ****         ANALOG,    /**< Analog for connection to ADC or DAC peripheral */
  31:../DaisyExamples/libDaisy/src/per/gpio.h ****     };
  32:../DaisyExamples/libDaisy/src/per/gpio.h **** 
  33:../DaisyExamples/libDaisy/src/per/gpio.h ****     /** @brief Configures whether an internal Pull up or Pull down resistor is used. 
ARM GAS  C:\Users\Marco\AppData\Local\Temp\ccmabu9E.s 			page 38


  34:../DaisyExamples/libDaisy/src/per/gpio.h ****      *  
  35:../DaisyExamples/libDaisy/src/per/gpio.h ****      * Internal Pull up/down resistors are typically 40k ohms, and will be between
  36:../DaisyExamples/libDaisy/src/per/gpio.h ****      * 30k and 50k
  37:../DaisyExamples/libDaisy/src/per/gpio.h ****      * 
  38:../DaisyExamples/libDaisy/src/per/gpio.h ****      * When the Pin is configured in Analog mode, the pull up/down resistors are
  39:../DaisyExamples/libDaisy/src/per/gpio.h ****      * disabled by hardware. 
  40:../DaisyExamples/libDaisy/src/per/gpio.h ****      */
  41:../DaisyExamples/libDaisy/src/per/gpio.h ****     enum class Pull
  42:../DaisyExamples/libDaisy/src/per/gpio.h ****     {
  43:../DaisyExamples/libDaisy/src/per/gpio.h ****         NOPULL,   /**< No pull up resistor */
  44:../DaisyExamples/libDaisy/src/per/gpio.h ****         PULLUP,   /**< Internal pull up enabled */
  45:../DaisyExamples/libDaisy/src/per/gpio.h ****         PULLDOWN, /**< Internal pull down enabled*/
  46:../DaisyExamples/libDaisy/src/per/gpio.h ****     };
  47:../DaisyExamples/libDaisy/src/per/gpio.h **** 
  48:../DaisyExamples/libDaisy/src/per/gpio.h ****     /** @brief Output speed controls the drive strength, and slew rate of the pin */
  49:../DaisyExamples/libDaisy/src/per/gpio.h ****     enum class Speed
  50:../DaisyExamples/libDaisy/src/per/gpio.h ****     {
  51:../DaisyExamples/libDaisy/src/per/gpio.h ****         LOW,
  52:../DaisyExamples/libDaisy/src/per/gpio.h ****         MEDIUM,
  53:../DaisyExamples/libDaisy/src/per/gpio.h ****         HIGH,
  54:../DaisyExamples/libDaisy/src/per/gpio.h ****         VERY_HIGH,
  55:../DaisyExamples/libDaisy/src/per/gpio.h ****     };
  56:../DaisyExamples/libDaisy/src/per/gpio.h **** 
  57:../DaisyExamples/libDaisy/src/per/gpio.h ****     /** @brief Configuration for a given GPIO */
  58:../DaisyExamples/libDaisy/src/per/gpio.h ****     struct Config
  59:../DaisyExamples/libDaisy/src/per/gpio.h ****     {
  60:../DaisyExamples/libDaisy/src/per/gpio.h ****         Pin   pin;
  61:../DaisyExamples/libDaisy/src/per/gpio.h ****         Mode  mode;
  62:../DaisyExamples/libDaisy/src/per/gpio.h ****         Pull  pull;
  63:../DaisyExamples/libDaisy/src/per/gpio.h ****         Speed speed;
  64:../DaisyExamples/libDaisy/src/per/gpio.h **** 
  65:../DaisyExamples/libDaisy/src/per/gpio.h ****         /** Constructor with no arguments will prepare an invalid GPIO set as
  66:../DaisyExamples/libDaisy/src/per/gpio.h ****          *  an input, with no pullup. 
  67:../DaisyExamples/libDaisy/src/per/gpio.h ****          */
  68:../DaisyExamples/libDaisy/src/per/gpio.h ****         Config()
  69:../DaisyExamples/libDaisy/src/per/gpio.h ****         : pin(), mode(Mode::INPUT), pull(Pull::NOPULL), speed(Speed::LOW)
  70:../DaisyExamples/libDaisy/src/per/gpio.h ****         {
  71:../DaisyExamples/libDaisy/src/per/gpio.h ****         }
  72:../DaisyExamples/libDaisy/src/per/gpio.h ****     };
  73:../DaisyExamples/libDaisy/src/per/gpio.h **** 
  74:../DaisyExamples/libDaisy/src/per/gpio.h ****     GPIO() {}
 1046              		.loc 10 74 5 view .LVU267
 1047              	.LBB207:
 1048              	.LBI207:
  68:../DaisyExamples/libDaisy/src/per/gpio.h ****         : pin(), mode(Mode::INPUT), pull(Pull::NOPULL), speed(Speed::LOW)
 1049              		.loc 10 68 9 view .LVU268
 1050              	.LBB208:
 1051              	.LBB209:
 1052              	.LBI209:
 1053              		.file 11 "../DaisyExamples/libDaisy/src/daisy_core.h"
   1:../DaisyExamples/libDaisy/src/daisy_core.h **** #pragma once
   2:../DaisyExamples/libDaisy/src/daisy_core.h **** #ifndef DSY_CORE_HW_H
   3:../DaisyExamples/libDaisy/src/daisy_core.h **** #define DSY_CORE_HW_H /**< & */
   4:../DaisyExamples/libDaisy/src/daisy_core.h **** #include <stdint.h>
   5:../DaisyExamples/libDaisy/src/daisy_core.h **** #include <stdlib.h>
   6:../DaisyExamples/libDaisy/src/daisy_core.h **** 
   7:../DaisyExamples/libDaisy/src/daisy_core.h **** #if defined(_MSC_VER)
ARM GAS  C:\Users\Marco\AppData\Local\Temp\ccmabu9E.s 			page 39


   8:../DaisyExamples/libDaisy/src/daisy_core.h **** #define FORCE_INLINE __forceinline /**< & */
   9:../DaisyExamples/libDaisy/src/daisy_core.h **** #elif defined(__clang__)
  10:../DaisyExamples/libDaisy/src/daisy_core.h **** #define FORCE_INLINE inline __attribute__((always_inline)) /**< & */
  11:../DaisyExamples/libDaisy/src/daisy_core.h **** #pragma clang diagnostic ignored "-Wduplicate-decl-specifier"
  12:../DaisyExamples/libDaisy/src/daisy_core.h **** #elif defined(__GNUC__)
  13:../DaisyExamples/libDaisy/src/daisy_core.h **** #define FORCE_INLINE inline __attribute__((always_inline)) /**< & */
  14:../DaisyExamples/libDaisy/src/daisy_core.h **** #else
  15:../DaisyExamples/libDaisy/src/daisy_core.h **** #error unknown compiler
  16:../DaisyExamples/libDaisy/src/daisy_core.h **** #endif
  17:../DaisyExamples/libDaisy/src/daisy_core.h **** 
  18:../DaisyExamples/libDaisy/src/daisy_core.h **** /** @addtogroup utility
  19:../DaisyExamples/libDaisy/src/daisy_core.h ****     @{
  20:../DaisyExamples/libDaisy/src/daisy_core.h **** */
  21:../DaisyExamples/libDaisy/src/daisy_core.h **** 
  22:../DaisyExamples/libDaisy/src/daisy_core.h **** /** Macro for area of memory that is configured as cacheless
  23:../DaisyExamples/libDaisy/src/daisy_core.h **** This should be used primarily for DMA buffers, and the like.
  24:../DaisyExamples/libDaisy/src/daisy_core.h **** */
  25:../DaisyExamples/libDaisy/src/daisy_core.h **** #define DMA_BUFFER_MEM_SECTION __attribute__((section(".sram1_bss")))
  26:../DaisyExamples/libDaisy/src/daisy_core.h **** /** 
  27:../DaisyExamples/libDaisy/src/daisy_core.h **** THE DTCM RAM section is also non-cached. However, is not suitable 
  28:../DaisyExamples/libDaisy/src/daisy_core.h **** for DMA transfers. Performance is on par with internal SRAM w/ 
  29:../DaisyExamples/libDaisy/src/daisy_core.h **** cache enabled.
  30:../DaisyExamples/libDaisy/src/daisy_core.h **** */
  31:../DaisyExamples/libDaisy/src/daisy_core.h **** #define DTCM_MEM_SECTION __attribute__((section(".dtcmram_bss")))
  32:../DaisyExamples/libDaisy/src/daisy_core.h **** 
  33:../DaisyExamples/libDaisy/src/daisy_core.h **** #define FBIPMAX 0.999985f             /**< close to 1.0f-LSB at 16 bit */
  34:../DaisyExamples/libDaisy/src/daisy_core.h **** #define FBIPMIN (-FBIPMAX)            /**< - (1 - LSB) */
  35:../DaisyExamples/libDaisy/src/daisy_core.h **** #define U82F_SCALE 0.0078740f         /**< 1 / 127 */
  36:../DaisyExamples/libDaisy/src/daisy_core.h **** #define F2U8_SCALE 127.0f             /**< 128 - 1 */
  37:../DaisyExamples/libDaisy/src/daisy_core.h **** #define S82F_SCALE 0.0078125f         /**< 1 / (2**7) */
  38:../DaisyExamples/libDaisy/src/daisy_core.h **** #define F2S8_SCALE 127.0f             /**< (2 ** 7) - 1 */
  39:../DaisyExamples/libDaisy/src/daisy_core.h **** #define S162F_SCALE 3.0517578125e-05f /**< 1 / (2** 15) */
  40:../DaisyExamples/libDaisy/src/daisy_core.h **** #define F2S16_SCALE 32767.0f          /**< (2 ** 15) - 1 */
  41:../DaisyExamples/libDaisy/src/daisy_core.h **** #define F2S24_SCALE 8388608.0f        /**< 2 ** 23 */
  42:../DaisyExamples/libDaisy/src/daisy_core.h **** #define S242F_SCALE 1.192092896e-07f  /**< 1 / (2 ** 23) */
  43:../DaisyExamples/libDaisy/src/daisy_core.h **** #define S24SIGN 0x800000              /**< 2 ** 23 */
  44:../DaisyExamples/libDaisy/src/daisy_core.h **** #define S322F_SCALE 4.6566129e-10f    /**< 1 / (2** 31) */
  45:../DaisyExamples/libDaisy/src/daisy_core.h **** #define F2S32_SCALE 2147483647.f      /**< (2 ** 31) - 1 */
  46:../DaisyExamples/libDaisy/src/daisy_core.h **** 
  47:../DaisyExamples/libDaisy/src/daisy_core.h **** 
  48:../DaisyExamples/libDaisy/src/daisy_core.h **** /** shorthand macro for simplifying the reading of the left 
  49:../DaisyExamples/libDaisy/src/daisy_core.h ****  *  channel of a non-interleaved output buffer named out */
  50:../DaisyExamples/libDaisy/src/daisy_core.h **** #define OUT_L out[0]
  51:../DaisyExamples/libDaisy/src/daisy_core.h **** 
  52:../DaisyExamples/libDaisy/src/daisy_core.h **** /** shorthand macro for simplifying the reading of the right 
  53:../DaisyExamples/libDaisy/src/daisy_core.h ****  *  channel of a non-interleaved output buffer named out */
  54:../DaisyExamples/libDaisy/src/daisy_core.h **** #define OUT_R out[1]
  55:../DaisyExamples/libDaisy/src/daisy_core.h **** 
  56:../DaisyExamples/libDaisy/src/daisy_core.h **** /** shorthand macro for simplifying the reading of the left 
  57:../DaisyExamples/libDaisy/src/daisy_core.h ****  *  channel of a non-interleaved input buffer named in */
  58:../DaisyExamples/libDaisy/src/daisy_core.h **** #define IN_L in[0]
  59:../DaisyExamples/libDaisy/src/daisy_core.h **** 
  60:../DaisyExamples/libDaisy/src/daisy_core.h **** /** shorthand macro for simplifying the reading of the right 
  61:../DaisyExamples/libDaisy/src/daisy_core.h ****  *  channel of a non-interleaved input buffer named in */
  62:../DaisyExamples/libDaisy/src/daisy_core.h **** #define IN_R in[1]
  63:../DaisyExamples/libDaisy/src/daisy_core.h **** 
  64:../DaisyExamples/libDaisy/src/daisy_core.h **** /** 
ARM GAS  C:\Users\Marco\AppData\Local\Temp\ccmabu9E.s 			page 40


  65:../DaisyExamples/libDaisy/src/daisy_core.h ****     Computes cube.
  66:../DaisyExamples/libDaisy/src/daisy_core.h ****     \param x Number to be cubed
  67:../DaisyExamples/libDaisy/src/daisy_core.h ****     \return x ^ 3
  68:../DaisyExamples/libDaisy/src/daisy_core.h **** */
  69:../DaisyExamples/libDaisy/src/daisy_core.h **** FORCE_INLINE float cube(float x)
  70:../DaisyExamples/libDaisy/src/daisy_core.h **** {
  71:../DaisyExamples/libDaisy/src/daisy_core.h ****     return (x * x) * x;
  72:../DaisyExamples/libDaisy/src/daisy_core.h **** }
  73:../DaisyExamples/libDaisy/src/daisy_core.h **** 
  74:../DaisyExamples/libDaisy/src/daisy_core.h **** /** 
  75:../DaisyExamples/libDaisy/src/daisy_core.h ****     Converts unsigned 8-bit to float
  76:../DaisyExamples/libDaisy/src/daisy_core.h ****     \param x Number to be scaled.
  77:../DaisyExamples/libDaisy/src/daisy_core.h ****     \return Scaled number.
  78:../DaisyExamples/libDaisy/src/daisy_core.h **** */
  79:../DaisyExamples/libDaisy/src/daisy_core.h **** FORCE_INLINE float u82f(uint8_t x)
  80:../DaisyExamples/libDaisy/src/daisy_core.h **** {
  81:../DaisyExamples/libDaisy/src/daisy_core.h ****     return ((float)x - 127.f) * U82F_SCALE;
  82:../DaisyExamples/libDaisy/src/daisy_core.h **** }
  83:../DaisyExamples/libDaisy/src/daisy_core.h **** 
  84:../DaisyExamples/libDaisy/src/daisy_core.h **** /**
  85:../DaisyExamples/libDaisy/src/daisy_core.h ****     Converts float to unsigned 8-bit
  86:../DaisyExamples/libDaisy/src/daisy_core.h **** */
  87:../DaisyExamples/libDaisy/src/daisy_core.h **** FORCE_INLINE uint8_t f2u8(float x)
  88:../DaisyExamples/libDaisy/src/daisy_core.h **** {
  89:../DaisyExamples/libDaisy/src/daisy_core.h ****     x = x <= FBIPMIN ? FBIPMIN : x;
  90:../DaisyExamples/libDaisy/src/daisy_core.h ****     x = x >= FBIPMAX ? FBIPMAX : x;
  91:../DaisyExamples/libDaisy/src/daisy_core.h ****     return (uint8_t)((x * F2U8_SCALE) + F2U8_SCALE);
  92:../DaisyExamples/libDaisy/src/daisy_core.h **** }
  93:../DaisyExamples/libDaisy/src/daisy_core.h **** 
  94:../DaisyExamples/libDaisy/src/daisy_core.h **** 
  95:../DaisyExamples/libDaisy/src/daisy_core.h **** /** 
  96:../DaisyExamples/libDaisy/src/daisy_core.h ****     Converts Signed 8-bit to float
  97:../DaisyExamples/libDaisy/src/daisy_core.h ****     \param x Number to be scaled.
  98:../DaisyExamples/libDaisy/src/daisy_core.h ****     \return Scaled number.
  99:../DaisyExamples/libDaisy/src/daisy_core.h **** */
 100:../DaisyExamples/libDaisy/src/daisy_core.h **** FORCE_INLINE float s82f(int8_t x)
 101:../DaisyExamples/libDaisy/src/daisy_core.h **** {
 102:../DaisyExamples/libDaisy/src/daisy_core.h ****     return (float)x * S82F_SCALE;
 103:../DaisyExamples/libDaisy/src/daisy_core.h **** }
 104:../DaisyExamples/libDaisy/src/daisy_core.h **** 
 105:../DaisyExamples/libDaisy/src/daisy_core.h **** /**
 106:../DaisyExamples/libDaisy/src/daisy_core.h ****     Converts float to Signed 8-bit
 107:../DaisyExamples/libDaisy/src/daisy_core.h **** */
 108:../DaisyExamples/libDaisy/src/daisy_core.h **** FORCE_INLINE int8_t f2s8(float x)
 109:../DaisyExamples/libDaisy/src/daisy_core.h **** {
 110:../DaisyExamples/libDaisy/src/daisy_core.h ****     x = x <= FBIPMIN ? FBIPMIN : x;
 111:../DaisyExamples/libDaisy/src/daisy_core.h ****     x = x >= FBIPMAX ? FBIPMAX : x;
 112:../DaisyExamples/libDaisy/src/daisy_core.h ****     return (int32_t)(x * F2S8_SCALE);
 113:../DaisyExamples/libDaisy/src/daisy_core.h **** }
 114:../DaisyExamples/libDaisy/src/daisy_core.h **** 
 115:../DaisyExamples/libDaisy/src/daisy_core.h **** /** 
 116:../DaisyExamples/libDaisy/src/daisy_core.h ****     Converts Signed 16-bit to float
 117:../DaisyExamples/libDaisy/src/daisy_core.h ****     \param x Number to be scaled.
 118:../DaisyExamples/libDaisy/src/daisy_core.h ****     \return Scaled number.
 119:../DaisyExamples/libDaisy/src/daisy_core.h **** */
 120:../DaisyExamples/libDaisy/src/daisy_core.h **** FORCE_INLINE float s162f(int16_t x)
 121:../DaisyExamples/libDaisy/src/daisy_core.h **** {
ARM GAS  C:\Users\Marco\AppData\Local\Temp\ccmabu9E.s 			page 41


 122:../DaisyExamples/libDaisy/src/daisy_core.h ****     return (float)x * S162F_SCALE;
 123:../DaisyExamples/libDaisy/src/daisy_core.h **** }
 124:../DaisyExamples/libDaisy/src/daisy_core.h **** 
 125:../DaisyExamples/libDaisy/src/daisy_core.h **** /**
 126:../DaisyExamples/libDaisy/src/daisy_core.h ****     Converts float to Signed 16-bit
 127:../DaisyExamples/libDaisy/src/daisy_core.h **** */
 128:../DaisyExamples/libDaisy/src/daisy_core.h **** FORCE_INLINE int16_t f2s16(float x)
 129:../DaisyExamples/libDaisy/src/daisy_core.h **** {
 130:../DaisyExamples/libDaisy/src/daisy_core.h ****     x = x <= FBIPMIN ? FBIPMIN : x;
 131:../DaisyExamples/libDaisy/src/daisy_core.h ****     x = x >= FBIPMAX ? FBIPMAX : x;
 132:../DaisyExamples/libDaisy/src/daisy_core.h ****     return (int32_t)(x * F2S16_SCALE);
 133:../DaisyExamples/libDaisy/src/daisy_core.h **** }
 134:../DaisyExamples/libDaisy/src/daisy_core.h **** 
 135:../DaisyExamples/libDaisy/src/daisy_core.h **** /**
 136:../DaisyExamples/libDaisy/src/daisy_core.h ****     Converts Signed 24-bit to float
 137:../DaisyExamples/libDaisy/src/daisy_core.h ****  */
 138:../DaisyExamples/libDaisy/src/daisy_core.h **** FORCE_INLINE float s242f(int32_t x)
 139:../DaisyExamples/libDaisy/src/daisy_core.h **** {
 140:../DaisyExamples/libDaisy/src/daisy_core.h ****     x = (x ^ S24SIGN) - S24SIGN; //sign extend aka ((x<<8)>>8)
 141:../DaisyExamples/libDaisy/src/daisy_core.h ****     return (float)x * S242F_SCALE;
 142:../DaisyExamples/libDaisy/src/daisy_core.h **** }
 143:../DaisyExamples/libDaisy/src/daisy_core.h **** /**
 144:../DaisyExamples/libDaisy/src/daisy_core.h ****     Converts float to Signed 24-bit
 145:../DaisyExamples/libDaisy/src/daisy_core.h ****  */
 146:../DaisyExamples/libDaisy/src/daisy_core.h **** FORCE_INLINE int32_t f2s24(float x)
 147:../DaisyExamples/libDaisy/src/daisy_core.h **** {
 148:../DaisyExamples/libDaisy/src/daisy_core.h ****     x = x <= FBIPMIN ? FBIPMIN : x;
 149:../DaisyExamples/libDaisy/src/daisy_core.h ****     x = x >= FBIPMAX ? FBIPMAX : x;
 150:../DaisyExamples/libDaisy/src/daisy_core.h ****     return (int32_t)(x * F2S24_SCALE);
 151:../DaisyExamples/libDaisy/src/daisy_core.h **** }
 152:../DaisyExamples/libDaisy/src/daisy_core.h **** 
 153:../DaisyExamples/libDaisy/src/daisy_core.h **** /**
 154:../DaisyExamples/libDaisy/src/daisy_core.h ****     Converts Signed 32-bit to float
 155:../DaisyExamples/libDaisy/src/daisy_core.h ****  */
 156:../DaisyExamples/libDaisy/src/daisy_core.h **** FORCE_INLINE float s322f(int32_t x)
 157:../DaisyExamples/libDaisy/src/daisy_core.h **** {
 158:../DaisyExamples/libDaisy/src/daisy_core.h ****     return (float)x * S322F_SCALE;
 159:../DaisyExamples/libDaisy/src/daisy_core.h **** }
 160:../DaisyExamples/libDaisy/src/daisy_core.h **** /**
 161:../DaisyExamples/libDaisy/src/daisy_core.h ****     Converts float to Signed 24-bit
 162:../DaisyExamples/libDaisy/src/daisy_core.h ****  */
 163:../DaisyExamples/libDaisy/src/daisy_core.h **** FORCE_INLINE int32_t f2s32(float x)
 164:../DaisyExamples/libDaisy/src/daisy_core.h **** {
 165:../DaisyExamples/libDaisy/src/daisy_core.h ****     x = x <= FBIPMIN ? FBIPMIN : x;
 166:../DaisyExamples/libDaisy/src/daisy_core.h ****     x = x >= FBIPMAX ? FBIPMAX : x;
 167:../DaisyExamples/libDaisy/src/daisy_core.h ****     return (int32_t)(x * F2S32_SCALE);
 168:../DaisyExamples/libDaisy/src/daisy_core.h **** }
 169:../DaisyExamples/libDaisy/src/daisy_core.h **** 
 170:../DaisyExamples/libDaisy/src/daisy_core.h **** 
 171:../DaisyExamples/libDaisy/src/daisy_core.h **** /** Enums and a simple struct for defining a hardware pin on the MCU
 172:../DaisyExamples/libDaisy/src/daisy_core.h ****  *  These correlate with the stm32 datasheet, and are used to configure
 173:../DaisyExamples/libDaisy/src/daisy_core.h ****  *  the hardware.
 174:../DaisyExamples/libDaisy/src/daisy_core.h ****  * 
 175:../DaisyExamples/libDaisy/src/daisy_core.h ****  *  This along with the dsy_gpio_pin class should no longer be used.
 176:../DaisyExamples/libDaisy/src/daisy_core.h ****  *  They are available for backwards compatability. 
 177:../DaisyExamples/libDaisy/src/daisy_core.h ****  * 
 178:../DaisyExamples/libDaisy/src/daisy_core.h ****  *  Please use GPIOPort enum and the Pin struct instead.
ARM GAS  C:\Users\Marco\AppData\Local\Temp\ccmabu9E.s 			page 42


 179:../DaisyExamples/libDaisy/src/daisy_core.h ****  */
 180:../DaisyExamples/libDaisy/src/daisy_core.h **** typedef enum
 181:../DaisyExamples/libDaisy/src/daisy_core.h **** {
 182:../DaisyExamples/libDaisy/src/daisy_core.h ****     DSY_GPIOA, /**< & */
 183:../DaisyExamples/libDaisy/src/daisy_core.h ****     DSY_GPIOB, /**< & */
 184:../DaisyExamples/libDaisy/src/daisy_core.h ****     DSY_GPIOC, /**< & */
 185:../DaisyExamples/libDaisy/src/daisy_core.h ****     DSY_GPIOD, /**< & */
 186:../DaisyExamples/libDaisy/src/daisy_core.h ****     DSY_GPIOE, /**< & */
 187:../DaisyExamples/libDaisy/src/daisy_core.h ****     DSY_GPIOF, /**< & */
 188:../DaisyExamples/libDaisy/src/daisy_core.h ****     DSY_GPIOG, /**< & */
 189:../DaisyExamples/libDaisy/src/daisy_core.h ****     DSY_GPIOH, /**< & */
 190:../DaisyExamples/libDaisy/src/daisy_core.h ****     DSY_GPIOI, /**< & */
 191:../DaisyExamples/libDaisy/src/daisy_core.h ****     DSY_GPIOJ, /**< & */
 192:../DaisyExamples/libDaisy/src/daisy_core.h ****     DSY_GPIOK, /**< & */
 193:../DaisyExamples/libDaisy/src/daisy_core.h ****     DSY_GPIOX, /** This is a non-existant port for unsupported bits of hardware. */
 194:../DaisyExamples/libDaisy/src/daisy_core.h ****     DSY_GPIO_LAST, /** Final enum member */
 195:../DaisyExamples/libDaisy/src/daisy_core.h **** } dsy_gpio_port;
 196:../DaisyExamples/libDaisy/src/daisy_core.h **** 
 197:../DaisyExamples/libDaisy/src/daisy_core.h **** /** Hardware define pins 
 198:../DaisyExamples/libDaisy/src/daisy_core.h ****  *  
 199:../DaisyExamples/libDaisy/src/daisy_core.h ****  *  The dsy_gpio_pin struct should no longer be used, and is only available for
 200:../DaisyExamples/libDaisy/src/daisy_core.h ****  *  backwards compatability.
 201:../DaisyExamples/libDaisy/src/daisy_core.h ****  * 
 202:../DaisyExamples/libDaisy/src/daisy_core.h ****  *  Please use Pin struct instead.
 203:../DaisyExamples/libDaisy/src/daisy_core.h ****  */
 204:../DaisyExamples/libDaisy/src/daisy_core.h **** typedef struct
 205:../DaisyExamples/libDaisy/src/daisy_core.h **** {
 206:../DaisyExamples/libDaisy/src/daisy_core.h ****     dsy_gpio_port port; /**< & */
 207:../DaisyExamples/libDaisy/src/daisy_core.h ****     uint8_t       pin;  /**< number 0-15 */
 208:../DaisyExamples/libDaisy/src/daisy_core.h **** } dsy_gpio_pin;
 209:../DaisyExamples/libDaisy/src/daisy_core.h **** 
 210:../DaisyExamples/libDaisy/src/daisy_core.h **** /** Helper for creating pins from port/pin combos easily
 211:../DaisyExamples/libDaisy/src/daisy_core.h ****  * 
 212:../DaisyExamples/libDaisy/src/daisy_core.h ****  *  The dsy_gpio_pin struct should no longer be used, and is only available for
 213:../DaisyExamples/libDaisy/src/daisy_core.h ****  *  backwards compatability.
 214:../DaisyExamples/libDaisy/src/daisy_core.h ****  * 
 215:../DaisyExamples/libDaisy/src/daisy_core.h ****  *  Please use Pin struct instead.
 216:../DaisyExamples/libDaisy/src/daisy_core.h **** */
 217:../DaisyExamples/libDaisy/src/daisy_core.h **** FORCE_INLINE dsy_gpio_pin dsy_pin(dsy_gpio_port port, uint8_t pin)
 218:../DaisyExamples/libDaisy/src/daisy_core.h **** {
 219:../DaisyExamples/libDaisy/src/daisy_core.h ****     dsy_gpio_pin p;
 220:../DaisyExamples/libDaisy/src/daisy_core.h ****     p.port = port;
 221:../DaisyExamples/libDaisy/src/daisy_core.h ****     p.pin  = pin;
 222:../DaisyExamples/libDaisy/src/daisy_core.h ****     return p;
 223:../DaisyExamples/libDaisy/src/daisy_core.h **** }
 224:../DaisyExamples/libDaisy/src/daisy_core.h **** 
 225:../DaisyExamples/libDaisy/src/daisy_core.h **** /** Helper for testing sameness of two dsy_gpio_pins
 226:../DaisyExamples/libDaisy/src/daisy_core.h ****  *  \return    1 if same, 0 if different
 227:../DaisyExamples/libDaisy/src/daisy_core.h ****  * 
 228:../DaisyExamples/libDaisy/src/daisy_core.h ****  *  The dsy_gpio_pin struct should no longer be used, and is only available for
 229:../DaisyExamples/libDaisy/src/daisy_core.h ****  *  backwards compatability.
 230:../DaisyExamples/libDaisy/src/daisy_core.h ****  * 
 231:../DaisyExamples/libDaisy/src/daisy_core.h ****  *  Please use Pin struct instead.
 232:../DaisyExamples/libDaisy/src/daisy_core.h ****  */
 233:../DaisyExamples/libDaisy/src/daisy_core.h **** FORCE_INLINE uint8_t dsy_pin_cmp(dsy_gpio_pin *a, dsy_gpio_pin *b)
 234:../DaisyExamples/libDaisy/src/daisy_core.h **** {
 235:../DaisyExamples/libDaisy/src/daisy_core.h ****     return ((a->port == b->port) && (a->pin == b->pin));
ARM GAS  C:\Users\Marco\AppData\Local\Temp\ccmabu9E.s 			page 43


 236:../DaisyExamples/libDaisy/src/daisy_core.h **** }
 237:../DaisyExamples/libDaisy/src/daisy_core.h **** 
 238:../DaisyExamples/libDaisy/src/daisy_core.h **** #ifdef __cplusplus
 239:../DaisyExamples/libDaisy/src/daisy_core.h **** 
 240:../DaisyExamples/libDaisy/src/daisy_core.h **** namespace daisy
 241:../DaisyExamples/libDaisy/src/daisy_core.h **** {
 242:../DaisyExamples/libDaisy/src/daisy_core.h **** /** @brief GPIO Port names */
 243:../DaisyExamples/libDaisy/src/daisy_core.h **** enum GPIOPort
 244:../DaisyExamples/libDaisy/src/daisy_core.h **** {
 245:../DaisyExamples/libDaisy/src/daisy_core.h ****     PORTA, /**< Port A */
 246:../DaisyExamples/libDaisy/src/daisy_core.h ****     PORTB, /**< Port B */
 247:../DaisyExamples/libDaisy/src/daisy_core.h ****     PORTC, /**< Port C */
 248:../DaisyExamples/libDaisy/src/daisy_core.h ****     PORTD, /**< Port D */
 249:../DaisyExamples/libDaisy/src/daisy_core.h ****     PORTE, /**< Port E */
 250:../DaisyExamples/libDaisy/src/daisy_core.h ****     PORTF, /**< Port F */
 251:../DaisyExamples/libDaisy/src/daisy_core.h ****     PORTG, /**< Port G */
 252:../DaisyExamples/libDaisy/src/daisy_core.h ****     PORTH, /**< Port H */
 253:../DaisyExamples/libDaisy/src/daisy_core.h ****     PORTI, /**< Port I */
 254:../DaisyExamples/libDaisy/src/daisy_core.h ****     PORTJ, /**< Port J */
 255:../DaisyExamples/libDaisy/src/daisy_core.h ****     PORTK, /**< Port K */
 256:../DaisyExamples/libDaisy/src/daisy_core.h ****     PORTX, /**< Used as a dummy port to signal an invalid pin. */
 257:../DaisyExamples/libDaisy/src/daisy_core.h **** };
 258:../DaisyExamples/libDaisy/src/daisy_core.h **** 
 259:../DaisyExamples/libDaisy/src/daisy_core.h **** /** @brief representation of hardware port/pin combination */
 260:../DaisyExamples/libDaisy/src/daisy_core.h **** struct Pin
 261:../DaisyExamples/libDaisy/src/daisy_core.h **** {
 262:../DaisyExamples/libDaisy/src/daisy_core.h ****     GPIOPort port;
 263:../DaisyExamples/libDaisy/src/daisy_core.h ****     uint8_t  pin;
 264:../DaisyExamples/libDaisy/src/daisy_core.h **** 
 265:../DaisyExamples/libDaisy/src/daisy_core.h ****     /** @brief Constructor creates a valid pin. 
 266:../DaisyExamples/libDaisy/src/daisy_core.h ****      *  @param pt GPIOPort between PA, and PK corresponding to STM32 Port.
 267:../DaisyExamples/libDaisy/src/daisy_core.h ****      *  @param pn pin number in range of 0-15
 268:../DaisyExamples/libDaisy/src/daisy_core.h ****     */
 269:../DaisyExamples/libDaisy/src/daisy_core.h ****     constexpr Pin(const GPIOPort pt, const uint8_t pn) : port(pt), pin(pn) {}
 270:../DaisyExamples/libDaisy/src/daisy_core.h **** 
 271:../DaisyExamples/libDaisy/src/daisy_core.h ****     /** @brief Basic Constructor creates an invalid Pin object */
 272:../DaisyExamples/libDaisy/src/daisy_core.h ****     constexpr Pin() : port(PORTX), pin(255) {}
 1054              		.loc 11 272 15 view .LVU269
 1055              	.LBE209:
 1056              	.LBE208:
 1057              	.LBE207:
 1058              	.LBE206:
  25:LaserHarp.cpp **** GPIO beamInputs[7];
 1059              		.loc 6 25 18 is_stmt 0 view .LVU270
 1060 004c 1433     		adds	r3, r3, #20
 1061              	.LVL83:
 1062              	.LBB218:
 1063              	.LBB216:
 1064              	.LBB214:
  69:../DaisyExamples/libDaisy/src/per/gpio.h ****         {
 1065              		.loc 10 69 73 view .LVU271
 1066 004e 0022     		movs	r2, #0
 1067              	.LBB212:
 1068              	.LBB210:
 1069              		.loc 11 272 43 view .LVU272
 1070 0050 0B20     		movs	r0, #11
 1071 0052 FF21     		movs	r1, #255
ARM GAS  C:\Users\Marco\AppData\Local\Temp\ccmabu9E.s 			page 44


 1072              	.LBE210:
 1073              	.LBE212:
 1074              	.LBE214:
 1075              	.LBE216:
 1076              	.LBE218:
  25:LaserHarp.cpp **** GPIO beamInputs[7];
 1077              		.loc 6 25 18 view .LVU273
 1078 0054 6345     		cmp	r3, ip
 1079              	.LBB219:
 1080              	.LBB217:
 1081              	.LBB215:
  69:../DaisyExamples/libDaisy/src/per/gpio.h ****         {
 1082              		.loc 10 69 73 view .LVU274
 1083 0056 43F8102C 		str	r2, [r3, #-16]
 1084              	.LBB213:
 1085              	.LBB211:
 1086              		.loc 11 272 43 view .LVU275
 1087 005a 03F8140C 		strb	r0, [r3, #-20]
 1088 005e 03F8131C 		strb	r1, [r3, #-19]
 1089              	.LVL84:
 1090              		.loc 11 272 43 view .LVU276
 1091              	.LBE211:
 1092              	.LBE213:
  69:../DaisyExamples/libDaisy/src/per/gpio.h ****         {
 1093              		.loc 10 69 73 view .LVU277
 1094 0062 43E90322 		strd	r2, r2, [r3, #-12]
 1095              	.LVL85:
  69:../DaisyExamples/libDaisy/src/per/gpio.h ****         {
 1096              		.loc 10 69 73 view .LVU278
 1097              	.LBE215:
 1098              	.LBE217:
 1099              	.LBE219:
  25:LaserHarp.cpp **** GPIO beamInputs[7];
 1100              		.loc 6 25 18 is_stmt 1 view .LVU279
  25:LaserHarp.cpp **** GPIO beamInputs[7];
 1101              		.loc 6 25 18 view .LVU280
 1102 0066 F1D1     		bne	.L74
 1103              	.LBE220:
 1104              	.LBE221:
 1105              		.loc 6 167 1 is_stmt 0 view .LVU281
 1106 0068 08BD     		pop	{r3, pc}
 1107              	.L78:
 1108 006a 00BF     		.align	2
 1109              	.L77:
 1110 006c 00000000 		.word	.LANCHOR0
 1111 0070 00000000 		.word	__dso_handle
 1112 0074 00000000 		.word	_ZN5daisy9DaisySeedD1Ev
 1113 0078 00000000 		.word	.LANCHOR1
 1114 007c 00000000 		.word	_ZN13ConfigManagerD1Ev
 1115 0080 00000000 		.word	midiController
 1116 0084 00000000 		.word	_ZN14MidiControllerD1Ev
 1117 0088 00000000 		.word	audioSynthesizer
 1118 008c 00000000 		.word	_ZN16AudioSynthesizerD1Ev
 1119 0090 00000000 		.word	.LANCHOR2
 1120              		.cfi_endproc
 1121              	.LFE5247:
 1123              		.section	.init_array,"aw",%init_array
ARM GAS  C:\Users\Marco\AppData\Local\Temp\ccmabu9E.s 			page 45


 1124              		.align	2
 1125 0000 00000000 		.word	_GLOBAL__sub_I_hardware(target1)
 1126              		.global	beamNotes
 1127              		.global	lastDebounceTime
 1128              		.global	previousBeamStates
 1129              		.global	beamStates
 1130              		.global	beamInputs
 1131              		.global	audioSynthesizer
 1132              		.global	midiController
 1133              		.global	configManager
 1134              		.global	hardware
 1135              		.section	.bss.audioSynthesizer,"aw",%nobits
 1136              		.align	2
 1139              	audioSynthesizer:
 1140 0000 00000000 		.space	194452
 1140      00000000 
 1140      00000000 
 1140      00000000 
 1140      00000000 
 1141              		.section	.bss.beamInputs,"aw",%nobits
 1142              		.align	2
 1143              		.set	.LANCHOR2,. + 0
 1146              	beamInputs:
 1147 0000 00000000 		.space	140
 1147      00000000 
 1147      00000000 
 1147      00000000 
 1147      00000000 
 1148              		.section	.bss.beamNotes,"aw",%nobits
 1149              		.align	2
 1150              		.set	.LANCHOR13,. + 0
 1153              	beamNotes:
 1154 0000 00000000 		.space	7
 1154      000000
 1155              		.section	.bss.beamStates,"aw",%nobits
 1156              		.align	2
 1157              		.set	.LANCHOR3,. + 0
 1160              	beamStates:
 1161 0000 00000000 		.space	7
 1161      000000
 1162              		.section	.bss.configManager,"aw",%nobits
 1163              		.align	2
 1164              		.set	.LANCHOR1,. + 0
 1167              	configManager:
 1168 0000 00000000 		.space	40
 1168      00000000 
 1168      00000000 
 1168      00000000 
 1168      00000000 
 1169              		.section	.bss.hardware,"aw",%nobits
 1170              		.align	2
 1171              		.set	.LANCHOR0,. + 0
 1174              	hardware:
 1175 0000 00000000 		.space	64
 1175      00000000 
 1175      00000000 
 1175      00000000 
ARM GAS  C:\Users\Marco\AppData\Local\Temp\ccmabu9E.s 			page 46


 1175      00000000 
 1176              		.section	.bss.lastDebounceTime,"aw",%nobits
 1177              		.align	2
 1178              		.set	.LANCHOR5,. + 0
 1181              	lastDebounceTime:
 1182 0000 00000000 		.space	28
 1182      00000000 
 1182      00000000 
 1182      00000000 
 1182      00000000 
 1183              		.section	.bss.midiController,"aw",%nobits
 1184              		.align	2
 1187              	midiController:
 1188 0000 00000000 		.space	75340
 1188      00000000 
 1188      00000000 
 1188      00000000 
 1188      00000000 
 1189              		.section	.bss.previousBeamStates,"aw",%nobits
 1190              		.align	2
 1191              		.set	.LANCHOR4,. + 0
 1194              	previousBeamStates:
 1195 0000 00000000 		.space	7
 1195      000000
 1196              		.section	.rodata._ZN5daisy4seedL2D0E,"a"
 1197              		.align	2
 1198              		.set	.LANCHOR6,. + 0
 1201              	_ZN5daisy4seedL2D0E:
 1202 0000 01       		.byte	1
 1203 0001 0C       		.byte	12
 1204              		.section	.rodata._ZN5daisy4seedL2D1E,"a"
 1205              		.align	2
 1206              		.set	.LANCHOR7,. + 0
 1209              	_ZN5daisy4seedL2D1E:
 1210 0000 02       		.byte	2
 1211 0001 0B       		.byte	11
 1212              		.section	.rodata._ZN5daisy4seedL2D2E,"a"
 1213              		.align	2
 1214              		.set	.LANCHOR8,. + 0
 1217              	_ZN5daisy4seedL2D2E:
 1218 0000 02       		.byte	2
 1219 0001 0A       		.byte	10
 1220              		.section	.rodata._ZN5daisy4seedL2D3E,"a"
 1221              		.align	2
 1222              		.set	.LANCHOR9,. + 0
 1225              	_ZN5daisy4seedL2D3E:
 1226 0000 02       		.byte	2
 1227 0001 09       		.byte	9
 1228              		.section	.rodata._ZN5daisy4seedL2D4E,"a"
 1229              		.align	2
 1230              		.set	.LANCHOR10,. + 0
 1233              	_ZN5daisy4seedL2D4E:
 1234 0000 02       		.byte	2
 1235 0001 08       		.byte	8
 1236              		.section	.rodata._ZN5daisy4seedL2D5E,"a"
 1237              		.align	2
 1238              		.set	.LANCHOR11,. + 0
ARM GAS  C:\Users\Marco\AppData\Local\Temp\ccmabu9E.s 			page 47


 1241              	_ZN5daisy4seedL2D5E:
 1242 0000 03       		.byte	3
 1243 0001 02       		.byte	2
 1244              		.section	.rodata._ZN5daisy4seedL2D6E,"a"
 1245              		.align	2
 1246              		.set	.LANCHOR12,. + 0
 1249              	_ZN5daisy4seedL2D6E:
 1250 0000 02       		.byte	2
 1251 0001 0C       		.byte	12
 1252              		.text
 1253              	.Letext0:
 1254              		.file 12 "c:\\program files\\daisytoolchain\\arm-none-eabi\\include\\machine\\_default_types.h"
 1255              		.file 13 "c:\\program files\\daisytoolchain\\arm-none-eabi\\include\\sys\\_stdint.h"
 1256              		.file 14 "c:\\program files\\daisytoolchain\\arm-none-eabi\\include\\stdint.h"
 1257              		.file 15 "c:\\program files\\daisytoolchain\\lib\\gcc\\arm-none-eabi\\10.2.1\\include\\stddef.h"
 1258              		.file 16 "c:\\program files\\daisytoolchain\\arm-none-eabi\\include\\c++\\10.2.1\\cmath"
 1259              		.file 17 "c:\\program files\\daisytoolchain\\arm-none-eabi\\include\\c++\\10.2.1\\bits\\std_abs.h"
 1260              		.file 18 "c:\\program files\\daisytoolchain\\arm-none-eabi\\include\\c++\\10.2.1\\cstdlib"
 1261              		.file 19 "c:\\program files\\daisytoolchain\\arm-none-eabi\\include\\c++\\10.2.1\\cstdint"
 1262              		.file 20 "c:\\program files\\daisytoolchain\\arm-none-eabi\\include\\c++\\10.2.1\\arm-none-eabi\\t
 1263              		.file 21 "c:\\program files\\daisytoolchain\\arm-none-eabi\\include\\c++\\10.2.1\\type_traits"
 1264              		.file 22 "c:\\program files\\daisytoolchain\\arm-none-eabi\\include\\c++\\10.2.1\\debug\\debug.h"
 1265              		.file 23 "c:\\program files\\daisytoolchain\\arm-none-eabi\\include\\c++\\10.2.1\\bits\\algorithmf
 1266              		.file 24 "c:\\program files\\daisytoolchain\\arm-none-eabi\\include\\c++\\10.2.1\\bits\\stl_pair.h
 1267              		.file 25 "c:\\program files\\daisytoolchain\\arm-none-eabi\\include\\c++\\10.2.1\\bits\\exception_
 1268              		.file 26 "c:\\program files\\daisytoolchain\\arm-none-eabi\\include\\c++\\10.2.1\\initializer_list
 1269              		.file 27 "c:\\program files\\daisytoolchain\\arm-none-eabi\\include\\c++\\10.2.1\\cstdarg"
 1270              		.file 28 "c:\\program files\\daisytoolchain\\arm-none-eabi\\include\\c++\\10.2.1\\cstdio"
 1271              		.file 29 "c:\\program files\\daisytoolchain\\arm-none-eabi\\include\\c++\\10.2.1\\cstring"
 1272              		.file 30 "c:\\program files\\daisytoolchain\\arm-none-eabi\\include\\c++\\10.2.1\\cwchar"
 1273              		.file 31 "c:\\program files\\daisytoolchain\\arm-none-eabi\\include\\c++\\10.2.1\\clocale"
 1274              		.file 32 "c:\\program files\\daisytoolchain\\arm-none-eabi\\include\\c++\\10.2.1\\bits\\basic_stri
 1275              		.file 33 "c:\\program files\\daisytoolchain\\arm-none-eabi\\include\\c++\\10.2.1\\bits\\stl_tempbu
 1276              		.file 34 "c:\\program files\\daisytoolchain\\arm-none-eabi\\include\\c++\\10.2.1\\bits\\predefined
 1277              		.file 35 "c:\\program files\\daisytoolchain\\arm-none-eabi\\include\\sys\\_types.h"
 1278              		.file 36 "c:\\program files\\daisytoolchain\\arm-none-eabi\\include\\sys\\reent.h"
 1279              		.file 37 "c:\\program files\\daisytoolchain\\arm-none-eabi\\include\\sys\\lock.h"
 1280              		.file 38 "c:\\program files\\daisytoolchain\\arm-none-eabi\\include\\math.h"
 1281              		.file 39 "c:\\program files\\daisytoolchain\\arm-none-eabi\\include\\stdlib.h"
 1282              		.file 40 "c:\\program files\\daisytoolchain\\arm-none-eabi\\include\\c++\\10.2.1\\math.h"
 1283              		.file 41 "c:\\program files\\daisytoolchain\\arm-none-eabi\\include\\c++\\10.2.1\\stdlib.h"
 1284              		.file 42 "../DaisyExamples/libDaisy/src/per/tim.h"
 1285              		.file 43 "../DaisyExamples/libDaisy/src/per/uart.h"
 1286              		.file 44 "../DaisyExamples/libDaisy/src/hid/MidiEvent.h"
 1287              		.file 45 "../DaisyExamples/libDaisy/src/hid/midi_parser.h"
 1288              		.file 46 "../DaisyExamples/libDaisy/src/hid/usb_midi.h"
 1289              		.file 47 "../DaisyExamples/libDaisy/src/hid/midi.h"
 1290              		.file 48 "../DaisyExamples/libDaisy/src/util/FIFO.h"
 1291              		.file 49 "../DaisyExamples/libDaisy/src/util/wav_format.h"
 1292              		.file 50 "../DaisyExamples/libDaisy/src/dev/max11300.h"
 1293              		.file 51 "../DaisyExamples/libDaisy/src/dev/sdram.h"
 1294              		.file 52 "c:\\program files\\daisytoolchain\\lib\\gcc\\arm-none-eabi\\10.2.1\\include\\stdarg.h"
 1295              		.file 53 "c:\\program files\\daisytoolchain\\arm-none-eabi\\include\\stdio.h"
 1296              		.file 54 "c:\\program files\\daisytoolchain\\arm-none-eabi\\include\\string.h"
 1297              		.file 55 "ConfigManager.h"
 1298              		.file 56 "MidiController.h"
 1299              		.file 57 "../DaisyExamples/DaisySP/Source/Control/adenv.h"
ARM GAS  C:\Users\Marco\AppData\Local\Temp\ccmabu9E.s 			page 48


 1300              		.file 58 "../DaisyExamples/DaisySP/Source/Control/adsr.h"
 1301              		.file 59 "../DaisyExamples/DaisySP/Source/Utility/dsp.h"
 1302              		.file 60 "../DaisyExamples/DaisySP/Source/Synthesis/oscillator.h"
 1303              		.file 61 "../DaisyExamples/DaisySP/Source/Filters/onepole.h"
 1304              		.file 62 "../DaisyExamples/DaisySP/Source/Utility/delayline.h"
 1305              		.file 63 "c:\\program files\\daisytoolchain\\arm-none-eabi\\include\\wchar.h"
 1306              		.file 64 "c:\\program files\\daisytoolchain\\arm-none-eabi\\include\\locale.h"
 1307              		.file 65 "AudioSynthesizer.h"
 1308              		.file 66 "../DaisyExamples/libDaisy/src/dev/sr_595.h"
 1309              		.file 67 "<built-in>"
ARM GAS  C:\Users\Marco\AppData\Local\Temp\ccmabu9E.s 			page 49

