ARM GAS  C:\Users\Marco\AppData\Local\Temp\ccyPdXhV.s 			page 1


   1              		.cpu cortex-m7
   2              		.eabi_attribute 28, 1
   3              		.eabi_attribute 20, 1
   4              		.eabi_attribute 21, 1
   5              		.eabi_attribute 23, 3
   6              		.eabi_attribute 24, 1
   7              		.eabi_attribute 25, 1
   8              		.eabi_attribute 26, 1
   9              		.eabi_attribute 30, 2
  10              		.eabi_attribute 34, 1
  11              		.eabi_attribute 18, 4
  12              		.file	"AudioSynthesizer.cpp"
  13              		.text
  14              	.Ltext0:
  15              		.cfi_sections	.debug_frame
  16              		.section	.text._ZN16AudioSynthesizerC2Ev,"ax",%progbits
  17              		.align	1
  18              		.p2align 2,,3
  19              		.global	_ZN16AudioSynthesizerC2Ev
  20              		.arch armv7e-m
  21              		.syntax unified
  22              		.thumb
  23              		.thumb_func
  24              		.fpu fpv5-d16
  26              	_ZN16AudioSynthesizerC2Ev:
  27              	.LVL0:
  28              	.LFB3516:
  29              		.file 1 "AudioSynthesizer.cpp"
   1:AudioSynthesizer.cpp **** #include "AudioSynthesizer.h"
   2:AudioSynthesizer.cpp **** 
   3:AudioSynthesizer.cpp **** // Constructor
   4:AudioSynthesizer.cpp **** AudioSynthesizer::AudioSynthesizer() 
  30              		.loc 1 4 1 view -0
  31              		.cfi_startproc
  32              		@ args = 0, pretend = 0, frame = 0
  33              		@ frame_needed = 0, uses_anonymous_args = 0
  34              		.loc 1 4 1 is_stmt 0 view .LVU1
  35 0000 10B5     		push	{r4, lr}
  36              		.cfi_def_cfa_offset 8
  37              		.cfi_offset 4, -8
  38              		.cfi_offset 14, -4
  39              	.LBB90:
   5:AudioSynthesizer.cpp ****     : config_(nullptr), sampleRate_(48000.0f), activeVoiceCount_(0), 
   6:AudioSynthesizer.cpp ****       voiceAllocationIndex_(0), masterVolume_(0.8f), currentWaveform_(WAVE_SINE),
   7:AudioSynthesizer.cpp ****       pitchBendAmount_(0.0f), modulationAmount_(0.0f), reverbEnabled_(true), 
   8:AudioSynthesizer.cpp ****       reverbLevel_(0.3f), delayEnabled_(false), delayTime_(0.25f), 
   9:AudioSynthesizer.cpp ****       delayFeedback_(0.4f), filterCutoff_(1000.0f), filterResonance_(0.5f),
  10:AudioSynthesizer.cpp ****       lastProcessingTime_(0), currentOutputLevel_(0.0f) {
  40              		.loc 1 10 55 view .LVU2
  41 0002 3F49     		ldr	r1, .L8
  42 0004 0024     		movs	r4, #0
  43 0006 00F10803 		add	r3, r0, #8
  44 000a 0246     		mov	r2, r0
  45 000c 00F6C80E 		addw	lr, r0, #2248
  46 0010 0460     		str	r4, [r0]
  47 0012 4160     		str	r1, [r0, #4]	@ float
  48              		.loc 1 10 55 is_stmt 1 view .LVU3
ARM GAS  C:\Users\Marco\AppData\Local\Temp\ccyPdXhV.s 			page 2


  49              	.L2:
  50              	.LVL1:
  51              	.LBB91:
  52              	.LBI91:
  53              		.file 2 "AudioSynthesizer.h"
   1:AudioSynthesizer.h **** #pragma once
   2:AudioSynthesizer.h **** #include "daisysp.h"
   3:AudioSynthesizer.h **** #include "ConfigManager.h"
   4:AudioSynthesizer.h **** 
   5:AudioSynthesizer.h **** // Voice states
   6:AudioSynthesizer.h **** enum VoiceState {
   7:AudioSynthesizer.h ****     VOICE_IDLE,
   8:AudioSynthesizer.h ****     VOICE_ATTACK,
   9:AudioSynthesizer.h ****     VOICE_DECAY,
  10:AudioSynthesizer.h ****     VOICE_SUSTAIN,
  11:AudioSynthesizer.h ****     VOICE_RELEASE
  12:AudioSynthesizer.h **** };
  13:AudioSynthesizer.h **** 
  14:AudioSynthesizer.h **** // Waveform types
  15:AudioSynthesizer.h **** enum WaveformType {
  16:AudioSynthesizer.h ****     WAVE_SINE = 0,
  17:AudioSynthesizer.h ****     WAVE_SAW,
  18:AudioSynthesizer.h ****     WAVE_SQUARE,
  19:AudioSynthesizer.h ****     WAVE_TRIANGLE,
  20:AudioSynthesizer.h ****     WAVE_NOISE
  21:AudioSynthesizer.h **** };
  22:AudioSynthesizer.h **** 
  23:AudioSynthesizer.h **** // Individual voice structure
  24:AudioSynthesizer.h **** struct Voice {
  54              		.loc 2 24 8 view .LVU4
  55              	.LBB92:
  56              	.LBI92:
  57              		.file 3 "../DaisyExamples/DaisySP/Source/Synthesis/oscillator.h"
   1:../DaisyExamples/DaisySP/Source/Synthesis/oscillator.h **** /*
   2:../DaisyExamples/DaisySP/Source/Synthesis/oscillator.h **** Copyright (c) 2020 Electrosmith, Corp
   3:../DaisyExamples/DaisySP/Source/Synthesis/oscillator.h **** 
   4:../DaisyExamples/DaisySP/Source/Synthesis/oscillator.h **** Use of this source code is governed by an MIT-style
   5:../DaisyExamples/DaisySP/Source/Synthesis/oscillator.h **** license that can be found in the LICENSE file or at
   6:../DaisyExamples/DaisySP/Source/Synthesis/oscillator.h **** https://opensource.org/licenses/MIT.
   7:../DaisyExamples/DaisySP/Source/Synthesis/oscillator.h **** */
   8:../DaisyExamples/DaisySP/Source/Synthesis/oscillator.h **** 
   9:../DaisyExamples/DaisySP/Source/Synthesis/oscillator.h **** #pragma once
  10:../DaisyExamples/DaisySP/Source/Synthesis/oscillator.h **** #ifndef DSY_OSCILLATOR_H
  11:../DaisyExamples/DaisySP/Source/Synthesis/oscillator.h **** #define DSY_OSCILLATOR_H
  12:../DaisyExamples/DaisySP/Source/Synthesis/oscillator.h **** #include <stdint.h>
  13:../DaisyExamples/DaisySP/Source/Synthesis/oscillator.h **** #include "Utility/dsp.h"
  14:../DaisyExamples/DaisySP/Source/Synthesis/oscillator.h **** #ifdef __cplusplus
  15:../DaisyExamples/DaisySP/Source/Synthesis/oscillator.h **** 
  16:../DaisyExamples/DaisySP/Source/Synthesis/oscillator.h **** namespace daisysp
  17:../DaisyExamples/DaisySP/Source/Synthesis/oscillator.h **** {
  18:../DaisyExamples/DaisySP/Source/Synthesis/oscillator.h **** /** Synthesis of several waveforms, including polyBLEP bandlimited waveforms.
  19:../DaisyExamples/DaisySP/Source/Synthesis/oscillator.h **** */
  20:../DaisyExamples/DaisySP/Source/Synthesis/oscillator.h **** class Oscillator
  21:../DaisyExamples/DaisySP/Source/Synthesis/oscillator.h **** {
  22:../DaisyExamples/DaisySP/Source/Synthesis/oscillator.h ****   public:
  23:../DaisyExamples/DaisySP/Source/Synthesis/oscillator.h ****     Oscillator() {}
  58              		.loc 3 23 5 view .LVU5
ARM GAS  C:\Users\Marco\AppData\Local\Temp\ccyPdXhV.s 			page 3


  59              		.loc 3 23 5 is_stmt 0 view .LVU6
  60              	.LBE92:
  61              	.LBB93:
  62              	.LBI93:
  63              		.file 4 "../DaisyExamples/DaisySP/Source/Control/adsr.h"
   1:../DaisyExamples/DaisySP/Source/Control/adsr.h **** /*
   2:../DaisyExamples/DaisySP/Source/Control/adsr.h **** Copyright (c) 2020 Electrosmith, Corp, Paul Batchelor
   3:../DaisyExamples/DaisySP/Source/Control/adsr.h **** 
   4:../DaisyExamples/DaisySP/Source/Control/adsr.h **** Use of this source code is governed by an MIT-style
   5:../DaisyExamples/DaisySP/Source/Control/adsr.h **** license that can be found in the LICENSE file or at
   6:../DaisyExamples/DaisySP/Source/Control/adsr.h **** https://opensource.org/licenses/MIT.
   7:../DaisyExamples/DaisySP/Source/Control/adsr.h **** */
   8:../DaisyExamples/DaisySP/Source/Control/adsr.h **** 
   9:../DaisyExamples/DaisySP/Source/Control/adsr.h **** #pragma once
  10:../DaisyExamples/DaisySP/Source/Control/adsr.h **** #ifndef DSY_ADSR_H
  11:../DaisyExamples/DaisySP/Source/Control/adsr.h **** #define DSY_ADSR_H
  12:../DaisyExamples/DaisySP/Source/Control/adsr.h **** 
  13:../DaisyExamples/DaisySP/Source/Control/adsr.h **** #include <stdint.h>
  14:../DaisyExamples/DaisySP/Source/Control/adsr.h **** #ifdef __cplusplus
  15:../DaisyExamples/DaisySP/Source/Control/adsr.h **** 
  16:../DaisyExamples/DaisySP/Source/Control/adsr.h **** namespace daisysp
  17:../DaisyExamples/DaisySP/Source/Control/adsr.h **** {
  18:../DaisyExamples/DaisySP/Source/Control/adsr.h **** /** Distinct stages that the phase of the envelope can be located in.
  19:../DaisyExamples/DaisySP/Source/Control/adsr.h **** - IDLE   = located at phase location 0, and not currently running
  20:../DaisyExamples/DaisySP/Source/Control/adsr.h **** - ATTACK  = First segment of envelope where phase moves from 0 to 1
  21:../DaisyExamples/DaisySP/Source/Control/adsr.h **** - DECAY   = Second segment of envelope where phase moves from 1 to SUSTAIN value
  22:../DaisyExamples/DaisySP/Source/Control/adsr.h **** - RELEASE =     Fourth segment of envelop where phase moves from SUSTAIN to 0
  23:../DaisyExamples/DaisySP/Source/Control/adsr.h **** */
  24:../DaisyExamples/DaisySP/Source/Control/adsr.h **** enum
  25:../DaisyExamples/DaisySP/Source/Control/adsr.h **** {
  26:../DaisyExamples/DaisySP/Source/Control/adsr.h ****     ADSR_SEG_IDLE    = 0,
  27:../DaisyExamples/DaisySP/Source/Control/adsr.h ****     ADSR_SEG_ATTACK  = 1,
  28:../DaisyExamples/DaisySP/Source/Control/adsr.h ****     ADSR_SEG_DECAY   = 2,
  29:../DaisyExamples/DaisySP/Source/Control/adsr.h ****     ADSR_SEG_RELEASE = 4
  30:../DaisyExamples/DaisySP/Source/Control/adsr.h **** };
  31:../DaisyExamples/DaisySP/Source/Control/adsr.h **** 
  32:../DaisyExamples/DaisySP/Source/Control/adsr.h **** 
  33:../DaisyExamples/DaisySP/Source/Control/adsr.h **** /** adsr envelope module
  34:../DaisyExamples/DaisySP/Source/Control/adsr.h **** 
  35:../DaisyExamples/DaisySP/Source/Control/adsr.h **** Original author(s) : Paul Batchelor
  36:../DaisyExamples/DaisySP/Source/Control/adsr.h **** 
  37:../DaisyExamples/DaisySP/Source/Control/adsr.h **** Ported from Soundpipe by Ben Sergentanis, May 2020
  38:../DaisyExamples/DaisySP/Source/Control/adsr.h ****  
  39:../DaisyExamples/DaisySP/Source/Control/adsr.h **** Remake by Steffan DIedrichsen, May 2021
  40:../DaisyExamples/DaisySP/Source/Control/adsr.h **** */
  41:../DaisyExamples/DaisySP/Source/Control/adsr.h **** class Adsr
  42:../DaisyExamples/DaisySP/Source/Control/adsr.h **** {
  43:../DaisyExamples/DaisySP/Source/Control/adsr.h ****   public:
  44:../DaisyExamples/DaisySP/Source/Control/adsr.h ****     Adsr() {}
  64              		.loc 4 44 5 is_stmt 1 view .LVU7
  65              	.LBE93:
  66              	.LBE91:
  67              		.loc 1 10 55 is_stmt 0 view .LVU8
  68 0014 8C33     		adds	r3, r3, #140
  69              	.LVL2:
  70              	.LBB99:
  71              	.LBB96:
ARM GAS  C:\Users\Marco\AppData\Local\Temp\ccyPdXhV.s 			page 4


  72              	.LBB94:
  73              		.loc 4 44 12 view .LVU9
  74 0016 0021     		movs	r1, #0
  75 0018 DFF8FCC0 		ldr	ip, .L8+24
  76 001c 0024     		movs	r4, #0
  77              	.LBE94:
  78              	.LBE96:
  79              	.LBE99:
  80              		.loc 1 10 55 view .LVU10
  81 001e 7345     		cmp	r3, lr
  82              	.LBB100:
  83              	.LBB97:
  84              	.LBB95:
  85              		.loc 4 44 12 view .LVU11
  86 0020 43F8601C 		str	r1, [r3, #-96]	@ float
  87 0024 43F85C1C 		str	r1, [r3, #-92]	@ float
  88 0028 43F858CC 		str	ip, [r3, #-88]	@ float
  89 002c 43F8541C 		str	r1, [r3, #-84]	@ float
  90 0030 43F850CC 		str	ip, [r3, #-80]	@ float
  91 0034 43F84CCC 		str	ip, [r3, #-76]	@ float
  92 0038 43F848CC 		str	ip, [r3, #-72]	@ float
  93 003c 43F8441C 		str	r1, [r3, #-68]	@ float
  94 0040 43F8401C 		str	r1, [r3, #-64]	@ float
  95 0044 43F83C1C 		str	r1, [r3, #-60]	@ float
  96 0048 03F8344C 		strb	r4, [r3, #-52]
  97 004c 03F8334C 		strb	r4, [r3, #-51]
  98              	.LVL3:
  99              		.loc 4 44 12 view .LVU12
 100              	.LBE95:
 101              	.LBE97:
 102              	.LBB98:
 103              	.LBI98:
 104              		.file 5 "../DaisyExamples/DaisySP/Source/Filters/onepole.h"
   1:../DaisyExamples/DaisySP/Source/Filters/onepole.h **** /*
   2:../DaisyExamples/DaisySP/Source/Filters/onepole.h **** Copyright (c) 2020 Electrosmith, Corp, Emilie Gillet
   3:../DaisyExamples/DaisySP/Source/Filters/onepole.h **** 
   4:../DaisyExamples/DaisySP/Source/Filters/onepole.h **** Use of this source code is governed by an MIT-style
   5:../DaisyExamples/DaisySP/Source/Filters/onepole.h **** license that can be found in the LICENSE file or at
   6:../DaisyExamples/DaisySP/Source/Filters/onepole.h **** https://opensource.org/licenses/MIT.
   7:../DaisyExamples/DaisySP/Source/Filters/onepole.h **** */
   8:../DaisyExamples/DaisySP/Source/Filters/onepole.h **** 
   9:../DaisyExamples/DaisySP/Source/Filters/onepole.h **** #ifndef DSY_ONEPOLE_H
  10:../DaisyExamples/DaisySP/Source/Filters/onepole.h **** #define DSY_ONEPOLE_H
  11:../DaisyExamples/DaisySP/Source/Filters/onepole.h **** 
  12:../DaisyExamples/DaisySP/Source/Filters/onepole.h **** #include "Utility/dsp.h"
  13:../DaisyExamples/DaisySP/Source/Filters/onepole.h **** #include <cmath>
  14:../DaisyExamples/DaisySP/Source/Filters/onepole.h **** #include <algorithm>
  15:../DaisyExamples/DaisySP/Source/Filters/onepole.h **** 
  16:../DaisyExamples/DaisySP/Source/Filters/onepole.h **** namespace daisysp
  17:../DaisyExamples/DaisySP/Source/Filters/onepole.h **** {
  18:../DaisyExamples/DaisySP/Source/Filters/onepole.h **** /**         
  19:../DaisyExamples/DaisySP/Source/Filters/onepole.h ****     @brief One Pole Lowpass / Highpass Filter
  20:../DaisyExamples/DaisySP/Source/Filters/onepole.h ****     @author beserge
  21:../DaisyExamples/DaisySP/Source/Filters/onepole.h ****     @date Dec 2023 
  22:../DaisyExamples/DaisySP/Source/Filters/onepole.h ****     Ported from pichenettes/stmlib/dsp/filter.h \n 
  23:../DaisyExamples/DaisySP/Source/Filters/onepole.h ****     \n to an independent module. \n
  24:../DaisyExamples/DaisySP/Source/Filters/onepole.h ****     Original code written by Emilie Gillet. \n
ARM GAS  C:\Users\Marco\AppData\Local\Temp\ccyPdXhV.s 			page 5


  25:../DaisyExamples/DaisySP/Source/Filters/onepole.h **** */
  26:../DaisyExamples/DaisySP/Source/Filters/onepole.h **** class OnePole
  27:../DaisyExamples/DaisySP/Source/Filters/onepole.h **** {
  28:../DaisyExamples/DaisySP/Source/Filters/onepole.h ****   public:
  29:../DaisyExamples/DaisySP/Source/Filters/onepole.h ****     OnePole() {}
 105              		.loc 5 29 5 is_stmt 1 view .LVU13
 106              		.loc 5 29 5 is_stmt 0 view .LVU14
 107              	.LBE98:
 108              	.LBE100:
 109              		.loc 1 10 55 is_stmt 1 view .LVU15
 110              		.loc 1 10 55 view .LVU16
 111 0050 E0D1     		bne	.L2
 112              		.loc 1 10 55 is_stmt 0 discriminator 2 view .LVU17
 113 0052 00F53C33 		add	r3, r0, #192512
 114 0056 00F6CC0C 		addw	ip, r0, #2252
 115 005a 9FED2A7A 		vldr.32	s14, .L8+4
 116 005e F5EE007A 		vmov.f32	s15, #2.5e-1
 117 0062 A0F8C848 		strh	r4, [r0, #2248]	@ movhi
 118 0066 4FF07C5E 		mov	lr, #1056964608
 119 006a 8CED007A 		vstr.32	s14, [ip]
 120 006e 03F5ED6C 		add	ip, r3, #1896
 121 0072 80F8D048 		strb	r4, [r0, #2256]
 122              	.LVL4:
 123              	.LBB101:
 124              	.LBI101:
 125              		.loc 5 29 5 is_stmt 1 discriminator 2 view .LVU18
 126              		.loc 5 29 5 is_stmt 0 discriminator 2 view .LVU19
 127              	.LBE101:
 128              	.LBB102:
 129              	.LBI102:
 130              		.file 6 "../DaisyExamples/DaisySP/Source/Utility/delayline.h"
   1:../DaisyExamples/DaisySP/Source/Utility/delayline.h **** /*
   2:../DaisyExamples/DaisySP/Source/Utility/delayline.h **** Copyright (c) 2020 Electrosmith, Corp
   3:../DaisyExamples/DaisySP/Source/Utility/delayline.h **** 
   4:../DaisyExamples/DaisySP/Source/Utility/delayline.h **** Use of this source code is governed by an MIT-style
   5:../DaisyExamples/DaisySP/Source/Utility/delayline.h **** license that can be found in the LICENSE file or at
   6:../DaisyExamples/DaisySP/Source/Utility/delayline.h **** https://opensource.org/licenses/MIT.
   7:../DaisyExamples/DaisySP/Source/Utility/delayline.h **** */
   8:../DaisyExamples/DaisySP/Source/Utility/delayline.h **** 
   9:../DaisyExamples/DaisySP/Source/Utility/delayline.h **** #pragma once
  10:../DaisyExamples/DaisySP/Source/Utility/delayline.h **** #ifndef DSY_DELAY_H
  11:../DaisyExamples/DaisySP/Source/Utility/delayline.h **** #define DSY_DELAY_H
  12:../DaisyExamples/DaisySP/Source/Utility/delayline.h **** #include <stdlib.h>
  13:../DaisyExamples/DaisySP/Source/Utility/delayline.h **** #include <stdint.h>
  14:../DaisyExamples/DaisySP/Source/Utility/delayline.h **** namespace daisysp
  15:../DaisyExamples/DaisySP/Source/Utility/delayline.h **** {
  16:../DaisyExamples/DaisySP/Source/Utility/delayline.h **** /** Simple Delay line.
  17:../DaisyExamples/DaisySP/Source/Utility/delayline.h **** November 2019
  18:../DaisyExamples/DaisySP/Source/Utility/delayline.h **** 
  19:../DaisyExamples/DaisySP/Source/Utility/delayline.h **** Converted to Template December 2019
  20:../DaisyExamples/DaisySP/Source/Utility/delayline.h **** 
  21:../DaisyExamples/DaisySP/Source/Utility/delayline.h **** declaration example: (1 second of floats)
  22:../DaisyExamples/DaisySP/Source/Utility/delayline.h **** 
  23:../DaisyExamples/DaisySP/Source/Utility/delayline.h **** DelayLine<float, SAMPLE_RATE> del;
  24:../DaisyExamples/DaisySP/Source/Utility/delayline.h **** 
  25:../DaisyExamples/DaisySP/Source/Utility/delayline.h **** By: shensley
  26:../DaisyExamples/DaisySP/Source/Utility/delayline.h **** */
ARM GAS  C:\Users\Marco\AppData\Local\Temp\ccyPdXhV.s 			page 6


  27:../DaisyExamples/DaisySP/Source/Utility/delayline.h **** template <typename T, size_t max_size>
  28:../DaisyExamples/DaisySP/Source/Utility/delayline.h **** class DelayLine
  29:../DaisyExamples/DaisySP/Source/Utility/delayline.h **** {
  30:../DaisyExamples/DaisySP/Source/Utility/delayline.h ****   public:
  31:../DaisyExamples/DaisySP/Source/Utility/delayline.h ****     DelayLine() {}
 131              		.loc 6 31 5 is_stmt 1 discriminator 2 view .LVU20
 132              		.loc 6 31 5 is_stmt 0 discriminator 2 view .LVU21
 133              	.LBE102:
 134              	.LBB103:
 135              	.LBI103:
 136              		.loc 5 29 5 is_stmt 1 discriminator 2 view .LVU22
 137              		.loc 5 29 5 is_stmt 0 discriminator 2 view .LVU23
 138              	.LBE103:
 139              	.LBB104:
 140              	.LBI104:
 141              		.loc 5 29 5 is_stmt 1 discriminator 2 view .LVU24
 142              		.loc 5 29 5 is_stmt 0 discriminator 2 view .LVU25
 143              	.LBE104:
 144              	.LBB105:
 145              	.LBI105:
 146              		.loc 3 23 5 is_stmt 1 discriminator 2 view .LVU26
 147              		.loc 3 23 5 is_stmt 0 discriminator 2 view .LVU27
 148              	.LBE105:
 149              	.LBB106:
 150              	.LBI106:
 151              		.loc 3 23 5 is_stmt 1 discriminator 2 view .LVU28
 152              		.loc 3 23 5 is_stmt 0 discriminator 2 view .LVU29
 153              	.LBE106:
 154              		.loc 1 10 55 discriminator 2 view .LVU30
 155 0076 CCF80010 		str	r1, [ip]	@ float
 156 007a 03F26C7C 		addw	ip, r3, #1900
 157 007e 9FED227A 		vldr.32	s14, .L8+8
 158 0082 CCF80010 		str	r1, [ip]	@ float
 159 0086 4FF0010C 		mov	ip, #1
 160 008a 83F870C7 		strb	ip, [r3, #1904]
 161 008e 03F2747C 		addw	ip, r3, #1908
 162 0092 8CED007A 		vstr.32	s14, [ip]
 163 0096 03F27C7C 		addw	ip, r3, #1916
 164 009a 83F87847 		strb	r4, [r3, #1912]
 165 009e CCED007A 		vstr.32	s15, [ip]
 166 00a2 03F5F06C 		add	ip, r3, #1920
 167 00a6 DFED197A 		vldr.32	s15, .L8+12
 168 00aa CCED007A 		vstr.32	s15, [ip]
 169 00ae 03F2847C 		addw	ip, r3, #1924
 170 00b2 DFED177A 		vldr.32	s15, .L8+16
 171 00b6 CCED007A 		vstr.32	s15, [ip]
 172 00ba 03F5F16C 		add	ip, r3, #1928
 173 00be 03F5F263 		add	r3, r3, #1936
 174 00c2 CCF800E0 		str	lr, [ip]	@ float
 175 00c6 00F50C6C 		add	ip, r0, #2240
 176 00ca 43F8044C 		str	r4, [r3, #-4]
 177 00ce 1960     		str	r1, [r3]	@ float
 178              	.LBE90:
  11:AudioSynthesizer.cpp ****     
  12:AudioSynthesizer.cpp ****     // Initialize voice array
  13:AudioSynthesizer.cpp ****     for (int i = 0; i < MAX_VOICES; i++) {
 179              		.loc 1 13 5 is_stmt 1 discriminator 2 view .LVU31
ARM GAS  C:\Users\Marco\AppData\Local\Temp\ccyPdXhV.s 			page 7


 180              	.LVL5:
 181              	.LBB108:
 182              	.LBB107:
 183              		.loc 1 13 23 discriminator 2 view .LVU32
 184              	.L3:
  14:AudioSynthesizer.cpp ****         voices_[i].active = false;
 185              		.loc 1 14 9 discriminator 2 view .LVU33
  13:AudioSynthesizer.cpp ****         voices_[i].active = false;
 186              		.loc 1 13 23 is_stmt 0 discriminator 2 view .LVU34
 187 00d0 8C32     		adds	r2, r2, #140
 188              		.loc 1 14 27 discriminator 2 view .LVU35
 189 00d2 0023     		movs	r3, #0
  15:AudioSynthesizer.cpp ****         voices_[i].note = 0;
  16:AudioSynthesizer.cpp ****         voices_[i].velocity = 0;
  17:AudioSynthesizer.cpp ****         voices_[i].frequency = 440.0f;
  18:AudioSynthesizer.cpp ****         voices_[i].amplitude = 0.0f;
 190              		.loc 1 18 30 discriminator 2 view .LVU36
 191 00d4 0021     		movs	r1, #0
  17:AudioSynthesizer.cpp ****         voices_[i].amplitude = 0.0f;
 192              		.loc 1 17 30 discriminator 2 view .LVU37
 193 00d6 0F4C     		ldr	r4, .L8+20
  13:AudioSynthesizer.cpp ****         voices_[i].active = false;
 194              		.loc 1 13 23 discriminator 2 view .LVU38
 195 00d8 6245     		cmp	r2, ip
  14:AudioSynthesizer.cpp ****         voices_[i].note = 0;
 196              		.loc 1 14 27 discriminator 2 view .LVU39
 197 00da 02F8183C 		strb	r3, [r2, #-24]
  15:AudioSynthesizer.cpp ****         voices_[i].note = 0;
 198              		.loc 1 15 9 is_stmt 1 discriminator 2 view .LVU40
  15:AudioSynthesizer.cpp ****         voices_[i].note = 0;
 199              		.loc 1 15 25 is_stmt 0 discriminator 2 view .LVU41
 200 00de 02F8173C 		strb	r3, [r2, #-23]
  16:AudioSynthesizer.cpp ****         voices_[i].frequency = 440.0f;
 201              		.loc 1 16 9 is_stmt 1 discriminator 2 view .LVU42
  16:AudioSynthesizer.cpp ****         voices_[i].frequency = 440.0f;
 202              		.loc 1 16 29 is_stmt 0 discriminator 2 view .LVU43
 203 00e2 02F8163C 		strb	r3, [r2, #-22]
  17:AudioSynthesizer.cpp ****         voices_[i].amplitude = 0.0f;
 204              		.loc 1 17 9 is_stmt 1 discriminator 2 view .LVU44
  17:AudioSynthesizer.cpp ****         voices_[i].amplitude = 0.0f;
 205              		.loc 1 17 30 is_stmt 0 discriminator 2 view .LVU45
 206 00e6 42F8144C 		str	r4, [r2, #-20]	@ float
 207              		.loc 1 18 9 is_stmt 1 discriminator 2 view .LVU46
 208              		.loc 1 18 30 is_stmt 0 discriminator 2 view .LVU47
 209 00ea 42F8101C 		str	r1, [r2, #-16]	@ float
  19:AudioSynthesizer.cpp ****         voices_[i].state = VOICE_IDLE;
 210              		.loc 1 19 9 is_stmt 1 discriminator 2 view .LVU48
 211              		.loc 1 19 26 is_stmt 0 discriminator 2 view .LVU49
 212 00ee 02F80C3C 		strb	r3, [r2, #-12]
  20:AudioSynthesizer.cpp ****         voices_[i].noteOnTime = 0;
 213              		.loc 1 20 9 is_stmt 1 discriminator 2 view .LVU50
  21:AudioSynthesizer.cpp ****         voices_[i].noteOffTime = 0;
  22:AudioSynthesizer.cpp ****         voices_[i].pitchBend = 0.0f;
 214              		.loc 1 22 30 is_stmt 0 discriminator 2 view .LVU51
 215 00f2 1160     		str	r1, [r2]	@ float
  23:AudioSynthesizer.cpp ****         voices_[i].modulation = 0.0f;
 216              		.loc 1 23 31 discriminator 2 view .LVU52
ARM GAS  C:\Users\Marco\AppData\Local\Temp\ccyPdXhV.s 			page 8


 217 00f4 5160     		str	r1, [r2, #4]	@ float
  21:AudioSynthesizer.cpp ****         voices_[i].noteOffTime = 0;
 218              		.loc 1 21 32 discriminator 2 view .LVU53
 219 00f6 42E90233 		strd	r3, r3, [r2, #-8]
  22:AudioSynthesizer.cpp ****         voices_[i].modulation = 0.0f;
 220              		.loc 1 22 9 is_stmt 1 discriminator 2 view .LVU54
 221              		.loc 1 23 9 discriminator 2 view .LVU55
  13:AudioSynthesizer.cpp ****         voices_[i].active = false;
 222              		.loc 1 13 5 discriminator 2 view .LVU56
  13:AudioSynthesizer.cpp ****         voices_[i].active = false;
 223              		.loc 1 13 23 discriminator 2 view .LVU57
 224 00fa E9D1     		bne	.L3
 225              	.LBE107:
 226              	.LBE108:
  24:AudioSynthesizer.cpp ****     }
  25:AudioSynthesizer.cpp **** }
 227              		.loc 1 25 1 is_stmt 0 view .LVU58
 228 00fc 10BD     		pop	{r4, pc}
 229              	.L9:
 230 00fe 00BF     		.align	2
 231              	.L8:
 232 0100 00803B47 		.word	1195081728
 233 0104 CDCC4C3F 		.word	1061997773
 234 0108 9A99993E 		.word	1050253722
 235 010c CDCCCC3E 		.word	1053609165
 236 0110 00007A44 		.word	1148846080
 237 0114 0000DC43 		.word	1138491392
 238 0118 000080BF 		.word	-1082130432
 239              		.cfi_endproc
 240              	.LFE3516:
 242              		.global	_ZN16AudioSynthesizerC1Ev
 243              		.thumb_set _ZN16AudioSynthesizerC1Ev,_ZN16AudioSynthesizerC2Ev
 244              		.section	.text._ZN16AudioSynthesizerD2Ev,"ax",%progbits
 245              		.align	1
 246              		.p2align 2,,3
 247              		.global	_ZN16AudioSynthesizerD2Ev
 248              		.syntax unified
 249              		.thumb
 250              		.thumb_func
 251              		.fpu fpv5-d16
 253              	_ZN16AudioSynthesizerD2Ev:
 254              	.LVL6:
 255              	.LFB3519:
  26:AudioSynthesizer.cpp **** 
  27:AudioSynthesizer.cpp **** // Destructor
  28:AudioSynthesizer.cpp **** AudioSynthesizer::~AudioSynthesizer() {
 256              		.loc 1 28 1 is_stmt 1 view -0
 257              		.cfi_startproc
 258              		@ args = 0, pretend = 0, frame = 0
 259              		@ frame_needed = 0, uses_anonymous_args = 0
 260              		@ link register save eliminated.
 261              	.LBB109:
 262              	.LBI109:
  24:../DaisyExamples/DaisySP/Source/Synthesis/oscillator.h ****     ~Oscillator() {}
 263              		.loc 3 24 5 view .LVU60
 264              		.loc 3 24 5 is_stmt 0 view .LVU61
 265              	.LBE109:
ARM GAS  C:\Users\Marco\AppData\Local\Temp\ccyPdXhV.s 			page 9


 266              	.LBB110:
 267              	.LBI110:
 268              		.loc 3 24 5 is_stmt 1 view .LVU62
 269              		.loc 3 24 5 is_stmt 0 view .LVU63
 270              	.LBE110:
 271              	.LBB111:
 272              	.LBI111:
  30:../DaisyExamples/DaisySP/Source/Filters/onepole.h ****     ~OnePole() {}
 273              		.loc 5 30 5 is_stmt 1 view .LVU64
 274              		.loc 5 30 5 is_stmt 0 view .LVU65
 275              	.LBE111:
 276              	.LBB112:
 277              	.LBI112:
 278              		.loc 5 30 5 is_stmt 1 view .LVU66
 279              		.loc 5 30 5 is_stmt 0 view .LVU67
 280              	.LBE112:
 281              	.LBB113:
 282              	.LBI113:
  32:../DaisyExamples/DaisySP/Source/Utility/delayline.h ****     ~DelayLine() {}
 283              		.loc 6 32 5 is_stmt 1 view .LVU68
 284              		.loc 6 32 5 is_stmt 0 view .LVU69
 285              	.LBE113:
 286              	.LBB114:
 287              	.LBI114:
 288              		.loc 5 30 5 is_stmt 1 view .LVU70
 289              		.loc 5 30 5 is_stmt 0 view .LVU71
 290              	.LBE114:
  29:AudioSynthesizer.cpp ****     // Destructor body - will be implemented later
  30:AudioSynthesizer.cpp **** }
 291              		.loc 1 30 1 view .LVU72
 292 0000 7047     		bx	lr
 293              		.cfi_endproc
 294              	.LFE3519:
 296              		.global	_ZN16AudioSynthesizerD1Ev
 297              		.thumb_set _ZN16AudioSynthesizerD1Ev,_ZN16AudioSynthesizerD2Ev
 298 0002 00BF     		.section	.text._ZN16AudioSynthesizer4InitEfP13ConfigManager,"ax",%progbits
 299              		.align	1
 300              		.p2align 2,,3
 301              		.global	_ZN16AudioSynthesizer4InitEfP13ConfigManager
 302              		.syntax unified
 303              		.thumb
 304              		.thumb_func
 305              		.fpu fpv5-d16
 307              	_ZN16AudioSynthesizer4InitEfP13ConfigManager:
 308              	.LVL7:
 309              	.LFB3521:
  31:AudioSynthesizer.cpp **** 
  32:AudioSynthesizer.cpp **** // Initialization
  33:AudioSynthesizer.cpp **** void AudioSynthesizer::Init(float sampleRate, ConfigManager* config) {
 310              		.loc 1 33 70 is_stmt 1 view -0
 311              		.cfi_startproc
 312              		@ args = 0, pretend = 0, frame = 0
 313              		@ frame_needed = 0, uses_anonymous_args = 0
 314              		@ link register save eliminated.
  34:AudioSynthesizer.cpp ****     sampleRate_ = sampleRate;
 315              		.loc 1 34 5 view .LVU74
 316              		.loc 1 34 17 is_stmt 0 view .LVU75
ARM GAS  C:\Users\Marco\AppData\Local\Temp\ccyPdXhV.s 			page 10


 317 0000 80ED010A 		vstr.32	s0, [r0, #4]
  35:AudioSynthesizer.cpp ****     config_ = config;
 318              		.loc 1 35 5 is_stmt 1 view .LVU76
 319              		.loc 1 35 13 is_stmt 0 view .LVU77
 320 0004 0160     		str	r1, [r0]
  36:AudioSynthesizer.cpp ****     
  37:AudioSynthesizer.cpp ****     // TODO: Initialize DSP components
  38:AudioSynthesizer.cpp ****     // Initialize reverb, delay, filters, LFOs, etc.
  39:AudioSynthesizer.cpp **** }
 321              		.loc 1 39 1 view .LVU78
 322 0006 7047     		bx	lr
 323              		.cfi_endproc
 324              	.LFE3521:
 326              		.section	.text._ZN16AudioSynthesizer7ProcessEPfj,"ax",%progbits
 327              		.align	1
 328              		.p2align 2,,3
 329              		.global	_ZN16AudioSynthesizer7ProcessEPfj
 330              		.syntax unified
 331              		.thumb
 332              		.thumb_func
 333              		.fpu fpv5-d16
 335              	_ZN16AudioSynthesizer7ProcessEPfj:
 336              	.LVL8:
 337              	.LFB3522:
  40:AudioSynthesizer.cpp **** 
  41:AudioSynthesizer.cpp **** // Main audio processing
  42:AudioSynthesizer.cpp **** void AudioSynthesizer::Process(float* output, size_t size) {
 338              		.loc 1 42 60 is_stmt 1 view -0
 339              		.cfi_startproc
 340              		@ args = 0, pretend = 0, frame = 0
 341              		@ frame_needed = 0, uses_anonymous_args = 0
 342              		@ link register save eliminated.
  43:AudioSynthesizer.cpp ****     // TODO: Implement main audio processing
  44:AudioSynthesizer.cpp ****     // ProcessVoices(output, size);
  45:AudioSynthesizer.cpp ****     // ProcessEffects(output, size);
  46:AudioSynthesizer.cpp ****     // ApplyMasterVolume(output, size);
  47:AudioSynthesizer.cpp ****     
  48:AudioSynthesizer.cpp ****     // For now, just clear the buffer
  49:AudioSynthesizer.cpp ****     ClearBuffer(output, size);
 343              		.loc 1 49 5 view .LVU80
  42:AudioSynthesizer.cpp ****     // TODO: Implement main audio processing
 344              		.loc 1 42 60 is_stmt 0 view .LVU81
 345 0000 0846     		mov	r0, r1
 346              	.LVL9:
 347              	.LBB115:
 348              	.LBI115:
  50:AudioSynthesizer.cpp **** }
  51:AudioSynthesizer.cpp **** 
  52:AudioSynthesizer.cpp **** void AudioSynthesizer::ProcessStereo(float* outputLeft, float* outputRight, size_t size) {
  53:AudioSynthesizer.cpp ****     // TODO: Implement stereo processing
  54:AudioSynthesizer.cpp ****     ClearBuffer(outputLeft, size);
  55:AudioSynthesizer.cpp ****     ClearBuffer(outputRight, size);
  56:AudioSynthesizer.cpp **** }
  57:AudioSynthesizer.cpp **** 
  58:AudioSynthesizer.cpp **** // Note control
  59:AudioSynthesizer.cpp **** void AudioSynthesizer::NoteOn(uint8_t note, uint8_t velocity) {
  60:AudioSynthesizer.cpp ****     // TODO: Implement note on
ARM GAS  C:\Users\Marco\AppData\Local\Temp\ccyPdXhV.s 			page 11


  61:AudioSynthesizer.cpp ****     Voice* voice = GetFreeVoice();
  62:AudioSynthesizer.cpp ****     if (voice != nullptr) {
  63:AudioSynthesizer.cpp ****         InitializeVoice(voice, note, velocity);
  64:AudioSynthesizer.cpp ****     }
  65:AudioSynthesizer.cpp **** }
  66:AudioSynthesizer.cpp **** 
  67:AudioSynthesizer.cpp **** void AudioSynthesizer::NoteOff(uint8_t note) {
  68:AudioSynthesizer.cpp ****     // TODO: Implement note off
  69:AudioSynthesizer.cpp ****     Voice* voice = FindVoice(note);
  70:AudioSynthesizer.cpp ****     if (voice != nullptr) {
  71:AudioSynthesizer.cpp ****         ReleaseVoice(voice);
  72:AudioSynthesizer.cpp ****     }
  73:AudioSynthesizer.cpp **** }
  74:AudioSynthesizer.cpp **** 
  75:AudioSynthesizer.cpp **** void AudioSynthesizer::AllNotesOff() {
  76:AudioSynthesizer.cpp ****     // TODO: Implement all notes off
  77:AudioSynthesizer.cpp ****     for (int i = 0; i < MAX_VOICES; i++) {
  78:AudioSynthesizer.cpp ****         if (voices_[i].active) {
  79:AudioSynthesizer.cpp ****             ReleaseVoice(&voices_[i]);
  80:AudioSynthesizer.cpp ****         }
  81:AudioSynthesizer.cpp ****     }
  82:AudioSynthesizer.cpp **** }
  83:AudioSynthesizer.cpp **** 
  84:AudioSynthesizer.cpp **** // Voice management
  85:AudioSynthesizer.cpp **** uint8_t AudioSynthesizer::GetActiveVoiceCount() {
  86:AudioSynthesizer.cpp ****     return activeVoiceCount_;
  87:AudioSynthesizer.cpp **** }
  88:AudioSynthesizer.cpp **** 
  89:AudioSynthesizer.cpp **** bool AudioSynthesizer::IsVoiceActive(uint8_t voiceIndex) {
  90:AudioSynthesizer.cpp ****     if (voiceIndex < MAX_VOICES) {
  91:AudioSynthesizer.cpp ****         return voices_[voiceIndex].active;
  92:AudioSynthesizer.cpp ****     }
  93:AudioSynthesizer.cpp ****     return false;
  94:AudioSynthesizer.cpp **** }
  95:AudioSynthesizer.cpp **** 
  96:AudioSynthesizer.cpp **** Voice* AudioSynthesizer::GetVoice(uint8_t voiceIndex) {
  97:AudioSynthesizer.cpp ****     if (voiceIndex < MAX_VOICES) {
  98:AudioSynthesizer.cpp ****         return &voices_[voiceIndex];
  99:AudioSynthesizer.cpp ****     }
 100:AudioSynthesizer.cpp ****     return nullptr;
 101:AudioSynthesizer.cpp **** }
 102:AudioSynthesizer.cpp **** 
 103:AudioSynthesizer.cpp **** // Real-time parameter control
 104:AudioSynthesizer.cpp **** void AudioSynthesizer::SetMasterVolume(float volume) {
 105:AudioSynthesizer.cpp ****     masterVolume_ = volume;
 106:AudioSynthesizer.cpp **** }
 107:AudioSynthesizer.cpp **** 
 108:AudioSynthesizer.cpp **** void AudioSynthesizer::SetWaveform(WaveformType waveform) {
 109:AudioSynthesizer.cpp ****     currentWaveform_ = waveform;
 110:AudioSynthesizer.cpp **** }
 111:AudioSynthesizer.cpp **** 
 112:AudioSynthesizer.cpp **** void AudioSynthesizer::SetReverbLevel(float level) {
 113:AudioSynthesizer.cpp ****     reverbLevel_ = level;
 114:AudioSynthesizer.cpp **** }
 115:AudioSynthesizer.cpp **** 
 116:AudioSynthesizer.cpp **** void AudioSynthesizer::SetFilterCutoff(float cutoff) {
 117:AudioSynthesizer.cpp ****     filterCutoff_ = cutoff;
ARM GAS  C:\Users\Marco\AppData\Local\Temp\ccyPdXhV.s 			page 12


 118:AudioSynthesizer.cpp **** }
 119:AudioSynthesizer.cpp **** 
 120:AudioSynthesizer.cpp **** void AudioSynthesizer::SetFilterResonance(float resonance) {
 121:AudioSynthesizer.cpp ****     filterResonance_ = resonance;
 122:AudioSynthesizer.cpp **** }
 123:AudioSynthesizer.cpp **** 
 124:AudioSynthesizer.cpp **** // ADSR envelope control
 125:AudioSynthesizer.cpp **** void AudioSynthesizer::SetAttackTime(float timeSeconds) {
 126:AudioSynthesizer.cpp ****     // TODO: Implement attack time setting for all voices
 127:AudioSynthesizer.cpp **** }
 128:AudioSynthesizer.cpp **** 
 129:AudioSynthesizer.cpp **** void AudioSynthesizer::SetDecayTime(float timeSeconds) {
 130:AudioSynthesizer.cpp ****     // TODO: Implement decay time setting for all voices
 131:AudioSynthesizer.cpp **** }
 132:AudioSynthesizer.cpp **** 
 133:AudioSynthesizer.cpp **** void AudioSynthesizer::SetSustainLevel(float level) {
 134:AudioSynthesizer.cpp ****     // TODO: Implement sustain level setting for all voices
 135:AudioSynthesizer.cpp **** }
 136:AudioSynthesizer.cpp **** 
 137:AudioSynthesizer.cpp **** void AudioSynthesizer::SetReleaseTime(float timeSeconds) {
 138:AudioSynthesizer.cpp ****     // TODO: Implement release time setting for all voices
 139:AudioSynthesizer.cpp **** }
 140:AudioSynthesizer.cpp **** 
 141:AudioSynthesizer.cpp **** // Effects control
 142:AudioSynthesizer.cpp **** void AudioSynthesizer::SetReverbEnabled(bool enabled) {
 143:AudioSynthesizer.cpp ****     reverbEnabled_ = enabled;
 144:AudioSynthesizer.cpp **** }
 145:AudioSynthesizer.cpp **** 
 146:AudioSynthesizer.cpp **** void AudioSynthesizer::SetDelayEnabled(bool enabled) {
 147:AudioSynthesizer.cpp ****     delayEnabled_ = enabled;
 148:AudioSynthesizer.cpp **** }
 149:AudioSynthesizer.cpp **** 
 150:AudioSynthesizer.cpp **** void AudioSynthesizer::SetDelayTime(float timeSeconds) {
 151:AudioSynthesizer.cpp ****     delayTime_ = timeSeconds;
 152:AudioSynthesizer.cpp **** }
 153:AudioSynthesizer.cpp **** 
 154:AudioSynthesizer.cpp **** void AudioSynthesizer::SetDelayFeedback(float feedback) {
 155:AudioSynthesizer.cpp ****     delayFeedback_ = feedback;
 156:AudioSynthesizer.cpp **** }
 157:AudioSynthesizer.cpp **** 
 158:AudioSynthesizer.cpp **** // Modulation
 159:AudioSynthesizer.cpp **** void AudioSynthesizer::SetPitchBend(float semitones) {
 160:AudioSynthesizer.cpp ****     pitchBendAmount_ = semitones;
 161:AudioSynthesizer.cpp **** }
 162:AudioSynthesizer.cpp **** 
 163:AudioSynthesizer.cpp **** void AudioSynthesizer::SetModulation(float amount) {
 164:AudioSynthesizer.cpp ****     modulationAmount_ = amount;
 165:AudioSynthesizer.cpp **** }
 166:AudioSynthesizer.cpp **** 
 167:AudioSynthesizer.cpp **** void AudioSynthesizer::SetVibratoRate(float hz) {
 168:AudioSynthesizer.cpp ****     // TODO: Implement vibrato rate setting
 169:AudioSynthesizer.cpp **** }
 170:AudioSynthesizer.cpp **** 
 171:AudioSynthesizer.cpp **** void AudioSynthesizer::SetVibratoDepth(float semitones) {
 172:AudioSynthesizer.cpp ****     // TODO: Implement vibrato depth setting
 173:AudioSynthesizer.cpp **** }
 174:AudioSynthesizer.cpp **** 
ARM GAS  C:\Users\Marco\AppData\Local\Temp\ccyPdXhV.s 			page 13


 175:AudioSynthesizer.cpp **** // Presets and configuration
 176:AudioSynthesizer.cpp **** void AudioSynthesizer::LoadPreset(uint8_t presetNumber) {
 177:AudioSynthesizer.cpp ****     // TODO: Implement preset loading
 178:AudioSynthesizer.cpp **** }
 179:AudioSynthesizer.cpp **** 
 180:AudioSynthesizer.cpp **** void AudioSynthesizer::SavePreset(uint8_t presetNumber) {
 181:AudioSynthesizer.cpp ****     // TODO: Implement preset saving
 182:AudioSynthesizer.cpp **** }
 183:AudioSynthesizer.cpp **** 
 184:AudioSynthesizer.cpp **** void AudioSynthesizer::UpdateFromConfig() {
 185:AudioSynthesizer.cpp ****     // TODO: Implement configuration update
 186:AudioSynthesizer.cpp **** }
 187:AudioSynthesizer.cpp **** 
 188:AudioSynthesizer.cpp **** // Analysis and monitoring
 189:AudioSynthesizer.cpp **** float AudioSynthesizer::GetOutputLevel() {
 190:AudioSynthesizer.cpp ****     return currentOutputLevel_;
 191:AudioSynthesizer.cpp **** }
 192:AudioSynthesizer.cpp **** 
 193:AudioSynthesizer.cpp **** float AudioSynthesizer::GetCPUUsage() {
 194:AudioSynthesizer.cpp ****     // TODO: Implement CPU usage calculation
 195:AudioSynthesizer.cpp ****     return 0.0f;
 196:AudioSynthesizer.cpp **** }
 197:AudioSynthesizer.cpp **** 
 198:AudioSynthesizer.cpp **** uint32_t AudioSynthesizer::GetProcessingTime() {
 199:AudioSynthesizer.cpp ****     return lastProcessingTime_;
 200:AudioSynthesizer.cpp **** }
 201:AudioSynthesizer.cpp **** 
 202:AudioSynthesizer.cpp **** // Private methods - stubs for now
 203:AudioSynthesizer.cpp **** Voice* AudioSynthesizer::GetFreeVoice() {
 204:AudioSynthesizer.cpp ****     // TODO: Implement free voice finding
 205:AudioSynthesizer.cpp ****     for (int i = 0; i < MAX_VOICES; i++) {
 206:AudioSynthesizer.cpp ****         if (!voices_[i].active) {
 207:AudioSynthesizer.cpp ****             return &voices_[i];
 208:AudioSynthesizer.cpp ****         }
 209:AudioSynthesizer.cpp ****     }
 210:AudioSynthesizer.cpp ****     return nullptr; // No free voices
 211:AudioSynthesizer.cpp **** }
 212:AudioSynthesizer.cpp **** 
 213:AudioSynthesizer.cpp **** Voice* AudioSynthesizer::FindVoice(uint8_t note) {
 214:AudioSynthesizer.cpp ****     // TODO: Implement voice finding by note
 215:AudioSynthesizer.cpp ****     for (int i = 0; i < MAX_VOICES; i++) {
 216:AudioSynthesizer.cpp ****         if (voices_[i].active && voices_[i].note == note) {
 217:AudioSynthesizer.cpp ****             return &voices_[i];
 218:AudioSynthesizer.cpp ****         }
 219:AudioSynthesizer.cpp ****     }
 220:AudioSynthesizer.cpp ****     return nullptr;
 221:AudioSynthesizer.cpp **** }
 222:AudioSynthesizer.cpp **** 
 223:AudioSynthesizer.cpp **** void AudioSynthesizer::InitializeVoice(Voice* voice, uint8_t note, uint8_t velocity) {
 224:AudioSynthesizer.cpp ****     // TODO: Implement voice initialization
 225:AudioSynthesizer.cpp ****     if (voice != nullptr) {
 226:AudioSynthesizer.cpp ****         voice->active = true;
 227:AudioSynthesizer.cpp ****         voice->note = note;
 228:AudioSynthesizer.cpp ****         voice->velocity = velocity;
 229:AudioSynthesizer.cpp ****         voice->frequency = GetNoteFrequency(note);
 230:AudioSynthesizer.cpp ****         voice->state = VOICE_ATTACK;
 231:AudioSynthesizer.cpp ****         activeVoiceCount_++;
ARM GAS  C:\Users\Marco\AppData\Local\Temp\ccyPdXhV.s 			page 14


 232:AudioSynthesizer.cpp ****     }
 233:AudioSynthesizer.cpp **** }
 234:AudioSynthesizer.cpp **** 
 235:AudioSynthesizer.cpp **** void AudioSynthesizer::ReleaseVoice(Voice* voice) {
 236:AudioSynthesizer.cpp ****     // TODO: Implement voice release
 237:AudioSynthesizer.cpp ****     if (voice != nullptr && voice->active) {
 238:AudioSynthesizer.cpp ****         voice->state = VOICE_RELEASE;
 239:AudioSynthesizer.cpp ****         // Don't set active = false yet, let the envelope finish
 240:AudioSynthesizer.cpp ****     }
 241:AudioSynthesizer.cpp **** }
 242:AudioSynthesizer.cpp **** 
 243:AudioSynthesizer.cpp **** void AudioSynthesizer::UpdateVoiceParameters(Voice* voice) {
 244:AudioSynthesizer.cpp ****     // TODO: Implement voice parameter updates
 245:AudioSynthesizer.cpp **** }
 246:AudioSynthesizer.cpp **** 
 247:AudioSynthesizer.cpp **** void AudioSynthesizer::ProcessVoices(float* buffer, size_t size) {
 248:AudioSynthesizer.cpp ****     // TODO: Implement voice processing
 249:AudioSynthesizer.cpp **** }
 250:AudioSynthesizer.cpp **** 
 251:AudioSynthesizer.cpp **** void AudioSynthesizer::ProcessEffects(float* buffer, size_t size) {
 252:AudioSynthesizer.cpp ****     // TODO: Implement effects processing
 253:AudioSynthesizer.cpp **** }
 254:AudioSynthesizer.cpp **** 
 255:AudioSynthesizer.cpp **** void AudioSynthesizer::ProcessGlobalFilter(float* buffer, size_t size) {
 256:AudioSynthesizer.cpp ****     // TODO: Implement global filter processing
 257:AudioSynthesizer.cpp **** }
 258:AudioSynthesizer.cpp **** 
 259:AudioSynthesizer.cpp **** void AudioSynthesizer::ApplyMasterVolume(float* buffer, size_t size) {
 260:AudioSynthesizer.cpp ****     // TODO: Implement master volume application
 261:AudioSynthesizer.cpp **** }
 262:AudioSynthesizer.cpp **** 
 263:AudioSynthesizer.cpp **** float AudioSynthesizer::GetNoteFrequency(uint8_t midiNote) {
 264:AudioSynthesizer.cpp ****     // Standard MIDI note to frequency conversion
 265:AudioSynthesizer.cpp ****     return 440.0f * powf(2.0f, (midiNote - 69) / 12.0f);
 266:AudioSynthesizer.cpp **** }
 267:AudioSynthesizer.cpp **** 
 268:AudioSynthesizer.cpp **** float AudioSynthesizer::MidiToFrequency(float midiNote) {
 269:AudioSynthesizer.cpp ****     return 440.0f * powf(2.0f, (midiNote - 69.0f) / 12.0f);
 270:AudioSynthesizer.cpp **** }
 271:AudioSynthesizer.cpp **** 
 272:AudioSynthesizer.cpp **** float AudioSynthesizer::SemitonesToRatio(float semitones) {
 273:AudioSynthesizer.cpp ****     return powf(2.0f, semitones / 12.0f);
 274:AudioSynthesizer.cpp **** }
 275:AudioSynthesizer.cpp **** 
 276:AudioSynthesizer.cpp **** void AudioSynthesizer::UpdateModulation() {
 277:AudioSynthesizer.cpp ****     // TODO: Implement modulation updates
 278:AudioSynthesizer.cpp **** }
 279:AudioSynthesizer.cpp **** 
 280:AudioSynthesizer.cpp **** float AudioSynthesizer::GetVibratoValue() {
 281:AudioSynthesizer.cpp ****     // TODO: Implement vibrato value calculation
 282:AudioSynthesizer.cpp ****     return 0.0f;
 283:AudioSynthesizer.cpp **** }
 284:AudioSynthesizer.cpp **** 
 285:AudioSynthesizer.cpp **** float AudioSynthesizer::GetLFOValue() {
 286:AudioSynthesizer.cpp ****     // TODO: Implement LFO value calculation
 287:AudioSynthesizer.cpp ****     return 0.0f;
 288:AudioSynthesizer.cpp **** }
ARM GAS  C:\Users\Marco\AppData\Local\Temp\ccyPdXhV.s 			page 15


 289:AudioSynthesizer.cpp **** 
 290:AudioSynthesizer.cpp **** void AudioSynthesizer::ClearBuffer(float* buffer, size_t size) {
 349              		.loc 1 290 6 is_stmt 1 view .LVU82
 350              	.LBE115:
 291:AudioSynthesizer.cpp ****     for (size_t i = 0; i < size; i++) {
 351              		.loc 1 291 5 view .LVU83
 352              	.LBB117:
 353              	.LBB116:
 354              		.loc 1 291 26 view .LVU84
 355 0002 1AB1     		cbz	r2, .L12
 292:AudioSynthesizer.cpp ****         buffer[i] = 0.0f;
 356              		.loc 1 292 19 is_stmt 0 view .LVU85
 357 0004 9200     		lsls	r2, r2, #2
 358              	.LVL10:
 359              		.loc 1 292 19 view .LVU86
 360 0006 0021     		movs	r1, #0
 361              	.LVL11:
 362              		.loc 1 292 19 view .LVU87
 363 0008 FFF7FEBF 		b	memset
 364              	.LVL12:
 365              	.L12:
 366              		.loc 1 292 19 view .LVU88
 367              	.LBE116:
 368              	.LBE117:
  50:AudioSynthesizer.cpp **** }
 369              		.loc 1 50 1 view .LVU89
 370 000c 7047     		bx	lr
 371              		.cfi_endproc
 372              	.LFE3522:
 374 000e 00BF     		.section	.text._ZN16AudioSynthesizer13ProcessStereoEPfS0_j,"ax",%progbits
 375              		.align	1
 376              		.p2align 2,,3
 377              		.global	_ZN16AudioSynthesizer13ProcessStereoEPfS0_j
 378              		.syntax unified
 379              		.thumb
 380              		.thumb_func
 381              		.fpu fpv5-d16
 383              	_ZN16AudioSynthesizer13ProcessStereoEPfS0_j:
 384              	.LVL13:
 385              	.LFB3523:
  52:AudioSynthesizer.cpp ****     // TODO: Implement stereo processing
 386              		.loc 1 52 90 is_stmt 1 view -0
 387              		.cfi_startproc
 388              		@ args = 0, pretend = 0, frame = 8
 389              		@ frame_needed = 0, uses_anonymous_args = 0
  54:AudioSynthesizer.cpp ****     ClearBuffer(outputRight, size);
 390              		.loc 1 54 5 view .LVU91
 391              	.LBB118:
 392              	.LBI118:
 290:AudioSynthesizer.cpp ****     for (size_t i = 0; i < size; i++) {
 393              		.loc 1 290 6 view .LVU92
 394              	.LBE118:
 291:AudioSynthesizer.cpp ****         buffer[i] = 0.0f;
 395              		.loc 1 291 5 view .LVU93
 396              	.LBB121:
 397              	.LBB119:
 291:AudioSynthesizer.cpp ****         buffer[i] = 0.0f;
ARM GAS  C:\Users\Marco\AppData\Local\Temp\ccyPdXhV.s 			page 16


 398              		.loc 1 291 26 view .LVU94
 399 0000 83B1     		cbz	r3, .L14
 400 0002 0846     		mov	r0, r1
 401              	.LVL14:
 402              		.loc 1 292 19 is_stmt 0 view .LVU95
 403 0004 0021     		movs	r1, #0
 404              	.LVL15:
 405              		.loc 1 292 19 view .LVU96
 406              	.LBE119:
 407              	.LBE121:
  52:AudioSynthesizer.cpp ****     // TODO: Implement stereo processing
 408              		.loc 1 52 90 view .LVU97
 409 0006 10B5     		push	{r4, lr}
 410              		.cfi_def_cfa_offset 8
 411              		.cfi_offset 4, -8
 412              		.cfi_offset 14, -4
 413 0008 1446     		mov	r4, r2
 414 000a 82B0     		sub	sp, sp, #8
 415              		.cfi_def_cfa_offset 16
 416              	.LBB122:
 417              	.LBB120:
 418              		.loc 1 292 19 view .LVU98
 419 000c 9A00     		lsls	r2, r3, #2
 420              	.LVL16:
 421              		.loc 1 292 19 view .LVU99
 422 000e 0192     		str	r2, [sp, #4]
 423 0010 FFF7FEFF 		bl	memset
 424              	.LVL17:
 425              		.loc 1 292 19 view .LVU100
 426              	.LBE120:
 427              	.LBE122:
 428              	.LBB123:
 429              	.LBB124:
 430 0014 019A     		ldr	r2, [sp, #4]
 431 0016 0021     		movs	r1, #0
 432 0018 2046     		mov	r0, r4
 433              	.LBE124:
 434              	.LBE123:
  56:AudioSynthesizer.cpp **** 
 435              		.loc 1 56 1 view .LVU101
 436 001a 02B0     		add	sp, sp, #8
 437              		.cfi_def_cfa_offset 8
 438              		@ sp needed
 439 001c BDE81040 		pop	{r4, lr}
 440              		.cfi_restore 14
 441              		.cfi_restore 4
 442              		.cfi_def_cfa_offset 0
 443              	.LVL18:
 444              	.LBB126:
 445              	.LBB125:
 446              		.loc 1 292 19 view .LVU102
 447 0020 FFF7FEBF 		b	memset
 448              	.LVL19:
 449              	.L14:
 450              		.loc 1 292 19 view .LVU103
 451 0024 7047     		bx	lr
 452              	.LBE125:
ARM GAS  C:\Users\Marco\AppData\Local\Temp\ccyPdXhV.s 			page 17


 453              	.LBE126:
 454              		.cfi_endproc
 455              	.LFE3523:
 457 0026 00BF     		.section	.text._ZN16AudioSynthesizer6NoteOnEhh,"ax",%progbits
 458              		.align	1
 459              		.p2align 2,,3
 460              		.global	_ZN16AudioSynthesizer6NoteOnEhh
 461              		.syntax unified
 462              		.thumb
 463              		.thumb_func
 464              		.fpu fpv5-d16
 466              	_ZN16AudioSynthesizer6NoteOnEhh:
 467              	.LVL20:
 468              	.LFB3524:
  59:AudioSynthesizer.cpp ****     // TODO: Implement note on
 469              		.loc 1 59 63 is_stmt 1 view -0
 470              		.cfi_startproc
 471              		@ args = 0, pretend = 0, frame = 0
 472              		@ frame_needed = 0, uses_anonymous_args = 0
  61:AudioSynthesizer.cpp ****     if (voice != nullptr) {
 473              		.loc 1 61 5 view .LVU105
  59:AudioSynthesizer.cpp ****     // TODO: Implement note on
 474              		.loc 1 59 63 is_stmt 0 view .LVU106
 475 0000 70B5     		push	{r4, r5, r6, lr}
 476              		.cfi_def_cfa_offset 16
 477              		.cfi_offset 4, -16
 478              		.cfi_offset 5, -12
 479              		.cfi_offset 6, -8
 480              		.cfi_offset 14, -4
 481              	.LBB136:
 482              	.LBB137:
 205:AudioSynthesizer.cpp ****         if (!voices_[i].active) {
 483              		.loc 1 205 14 view .LVU107
 484 0002 0023     		movs	r3, #0
 485              	.LBE137:
 486              	.LBE136:
  59:AudioSynthesizer.cpp ****     // TODO: Implement note on
 487              		.loc 1 59 63 view .LVU108
 488 0004 0646     		mov	r6, r0
 489              	.LVL21:
 490              	.LBB140:
 491              	.LBI136:
 203:AudioSynthesizer.cpp ****     // TODO: Implement free voice finding
 492              		.loc 1 203 8 is_stmt 1 view .LVU109
 493              	.LBE140:
 205:AudioSynthesizer.cpp ****         if (!voices_[i].active) {
 494              		.loc 1 205 5 view .LVU110
 495              	.LBB141:
 496              	.LBB138:
 205:AudioSynthesizer.cpp ****         if (!voices_[i].active) {
 497              		.loc 1 205 23 view .LVU111
 498 0006 0446     		mov	r4, r0
 499              	.LVL22:
 500              	.L22:
 206:AudioSynthesizer.cpp ****             return &voices_[i];
 501              		.loc 1 206 9 view .LVU112
 205:AudioSynthesizer.cpp ****         if (!voices_[i].active) {
ARM GAS  C:\Users\Marco\AppData\Local\Temp\ccyPdXhV.s 			page 18


 502              		.loc 1 205 5 view .LVU113
 206:AudioSynthesizer.cpp ****             return &voices_[i];
 503              		.loc 1 206 9 is_stmt 0 view .LVU114
 504 0008 94F87450 		ldrb	r5, [r4, #116]	@ zero_extendqisi2
 205:AudioSynthesizer.cpp ****         if (!voices_[i].active) {
 505              		.loc 1 205 23 view .LVU115
 506 000c 8C34     		adds	r4, r4, #140
 206:AudioSynthesizer.cpp ****             return &voices_[i];
 507              		.loc 1 206 9 view .LVU116
 508 000e 1DB1     		cbz	r5, .L25
 205:AudioSynthesizer.cpp ****         if (!voices_[i].active) {
 509              		.loc 1 205 5 view .LVU117
 510 0010 0133     		adds	r3, r3, #1
 511              	.LVL23:
 205:AudioSynthesizer.cpp ****         if (!voices_[i].active) {
 512              		.loc 1 205 23 is_stmt 1 view .LVU118
 513 0012 102B     		cmp	r3, #16
 514 0014 F8D1     		bne	.L22
 515              	.LBE138:
 516              	.LBE141:
  65:AudioSynthesizer.cpp **** 
 517              		.loc 1 65 1 is_stmt 0 view .LVU119
 518 0016 70BD     		pop	{r4, r5, r6, pc}
 519              	.L25:
 520              	.LBB142:
 521              	.LBB139:
 207:AudioSynthesizer.cpp ****         }
 522              		.loc 1 207 13 is_stmt 1 view .LVU120
 523              	.LVL24:
 207:AudioSynthesizer.cpp ****         }
 524              		.loc 1 207 13 is_stmt 0 view .LVU121
 525              	.LBE139:
 526              	.LBE142:
  62:AudioSynthesizer.cpp ****         InitializeVoice(voice, note, velocity);
 527              		.loc 1 62 5 is_stmt 1 view .LVU122
  63:AudioSynthesizer.cpp ****     }
 528              		.loc 1 63 9 view .LVU123
 529              	.LBB143:
 530              	.LBI143:
 223:AudioSynthesizer.cpp ****     // TODO: Implement voice initialization
 531              		.loc 1 223 6 view .LVU124
 532              	.LBE143:
 225:AudioSynthesizer.cpp ****         voice->active = true;
 533              		.loc 1 225 5 view .LVU125
 534              	.LBB158:
 535              	.LBB144:
 536              	.LBI144:
 223:AudioSynthesizer.cpp ****     // TODO: Implement voice initialization
 537              		.loc 1 223 6 view .LVU126
 538              	.LBB145:
 226:AudioSynthesizer.cpp ****         voice->note = note;
 539              		.loc 1 226 9 view .LVU127
 226:AudioSynthesizer.cpp ****         voice->note = note;
 540              		.loc 1 226 23 is_stmt 0 view .LVU128
 541 0018 8C24     		movs	r4, #140
 542              	.LBB146:
 543              	.LBB147:
ARM GAS  C:\Users\Marco\AppData\Local\Temp\ccyPdXhV.s 			page 19


 265:AudioSynthesizer.cpp **** }
 544              		.loc 1 265 25 view .LVU129
 545 001a F2EE080A 		vmov.f32	s1, #1.2e+1
 546              	.LBE147:
 547              	.LBE146:
 226:AudioSynthesizer.cpp ****         voice->note = note;
 548              		.loc 1 226 23 view .LVU130
 549 001e 0125     		movs	r5, #1
 550              	.LBB153:
 551              	.LBB148:
 265:AudioSynthesizer.cpp **** }
 552              		.loc 1 265 25 view .LVU131
 553 0020 B0EE000A 		vmov.f32	s0, #2.0e+0
 554              	.LBE148:
 555              	.LBE153:
 226:AudioSynthesizer.cpp ****         voice->note = note;
 556              		.loc 1 226 23 view .LVU132
 557 0024 04FB0364 		mla	r4, r4, r3, r6
 227:AudioSynthesizer.cpp ****         voice->velocity = velocity;
 558              		.loc 1 227 21 view .LVU133
 559 0028 84F87510 		strb	r1, [r4, #117]
 560              	.LBB154:
 561              	.LBB149:
 265:AudioSynthesizer.cpp **** }
 562              		.loc 1 265 42 view .LVU134
 563 002c 4539     		subs	r1, r1, #69
 564              	.LVL25:
 265:AudioSynthesizer.cpp **** }
 565              		.loc 1 265 42 view .LVU135
 566              	.LBE149:
 567              	.LBE154:
 226:AudioSynthesizer.cpp ****         voice->note = note;
 568              		.loc 1 226 23 view .LVU136
 569 002e 84F87450 		strb	r5, [r4, #116]
 227:AudioSynthesizer.cpp ****         voice->velocity = velocity;
 570              		.loc 1 227 9 is_stmt 1 view .LVU137
 228:AudioSynthesizer.cpp ****         voice->frequency = GetNoteFrequency(note);
 571              		.loc 1 228 9 view .LVU138
 572              	.LBB155:
 573              	.LBB150:
 265:AudioSynthesizer.cpp **** }
 574              		.loc 1 265 25 is_stmt 0 view .LVU139
 575 0032 07EE901A 		vmov	s15, r1	@ int
 576              	.LBE150:
 577              	.LBE155:
 228:AudioSynthesizer.cpp ****         voice->frequency = GetNoteFrequency(note);
 578              		.loc 1 228 25 view .LVU140
 579 0036 84F87620 		strb	r2, [r4, #118]
 229:AudioSynthesizer.cpp ****         voice->state = VOICE_ATTACK;
 580              		.loc 1 229 9 is_stmt 1 view .LVU141
 581              	.LVL26:
 582              	.LBB156:
 583              	.LBI146:
 263:AudioSynthesizer.cpp ****     // Standard MIDI note to frequency conversion
 584              		.loc 1 263 7 view .LVU142
 585              	.LBB151:
 265:AudioSynthesizer.cpp **** }
ARM GAS  C:\Users\Marco\AppData\Local\Temp\ccyPdXhV.s 			page 20


 586              		.loc 1 265 5 view .LVU143
 265:AudioSynthesizer.cpp **** }
 587              		.loc 1 265 25 is_stmt 0 view .LVU144
 588 003a F8EEE77A 		vcvt.f32.s32	s15, s15
 589 003e C7EEA00A 		vdiv.f32	s1, s15, s1
 590 0042 FFF7FEFF 		bl	powf
 591              	.LVL27:
 265:AudioSynthesizer.cpp **** }
 592              		.loc 1 265 55 view .LVU145
 593 0046 DFED077A 		vldr.32	s15, .L26
 594              	.LBE151:
 595              	.LBE156:
 230:AudioSynthesizer.cpp ****         activeVoiceCount_++;
 596              		.loc 1 230 22 view .LVU146
 597 004a 84F88050 		strb	r5, [r4, #128]
 598              	.LBB157:
 599              	.LBB152:
 265:AudioSynthesizer.cpp **** }
 600              		.loc 1 265 55 view .LVU147
 601 004e 20EE270A 		vmul.f32	s0, s0, s15
 602              	.LBE152:
 603              	.LBE157:
 229:AudioSynthesizer.cpp ****         voice->state = VOICE_ATTACK;
 604              		.loc 1 229 26 view .LVU148
 605 0052 84ED1E0A 		vstr.32	s0, [r4, #120]
 230:AudioSynthesizer.cpp ****         activeVoiceCount_++;
 606              		.loc 1 230 9 is_stmt 1 view .LVU149
 231:AudioSynthesizer.cpp ****     }
 607              		.loc 1 231 9 view .LVU150
 231:AudioSynthesizer.cpp ****     }
 608              		.loc 1 231 26 is_stmt 0 view .LVU151
 609 0056 96F8C838 		ldrb	r3, [r6, #2248]	@ zero_extendqisi2
 610 005a 2B44     		add	r3, r3, r5
 611 005c 86F8C838 		strb	r3, [r6, #2248]
 612              	.LBE145:
 613              	.LBE144:
 614              	.LBE158:
  65:AudioSynthesizer.cpp **** 
 615              		.loc 1 65 1 view .LVU152
 616 0060 70BD     		pop	{r4, r5, r6, pc}
 617              	.LVL28:
 618              	.L27:
  65:AudioSynthesizer.cpp **** 
 619              		.loc 1 65 1 view .LVU153
 620 0062 00BF     		.align	2
 621              	.L26:
 622 0064 0000DC43 		.word	1138491392
 623              		.cfi_endproc
 624              	.LFE3524:
 626              		.section	.text._ZN16AudioSynthesizer7NoteOffEh,"ax",%progbits
 627              		.align	1
 628              		.p2align 2,,3
 629              		.global	_ZN16AudioSynthesizer7NoteOffEh
 630              		.syntax unified
 631              		.thumb
 632              		.thumb_func
 633              		.fpu fpv5-d16
ARM GAS  C:\Users\Marco\AppData\Local\Temp\ccyPdXhV.s 			page 21


 635              	_ZN16AudioSynthesizer7NoteOffEh:
 636              	.LVL29:
 637              	.LFB3525:
  67:AudioSynthesizer.cpp ****     // TODO: Implement note off
 638              		.loc 1 67 46 is_stmt 1 view -0
 639              		.cfi_startproc
 640              		@ args = 0, pretend = 0, frame = 0
 641              		@ frame_needed = 0, uses_anonymous_args = 0
 642              		@ link register save eliminated.
  69:AudioSynthesizer.cpp ****     if (voice != nullptr) {
 643              		.loc 1 69 5 view .LVU155
 644              	.LBB159:
 645              	.LBB160:
 215:AudioSynthesizer.cpp ****         if (voices_[i].active && voices_[i].note == note) {
 646              		.loc 1 215 14 is_stmt 0 view .LVU156
 647 0000 0022     		movs	r2, #0
 648              	.LVL30:
 215:AudioSynthesizer.cpp ****         if (voices_[i].active && voices_[i].note == note) {
 649              		.loc 1 215 14 view .LVU157
 650              	.LBE160:
 651              	.LBI159:
 213:AudioSynthesizer.cpp ****     // TODO: Implement voice finding by note
 652              		.loc 1 213 8 is_stmt 1 view .LVU158
 653              	.LBE159:
 215:AudioSynthesizer.cpp ****         if (voices_[i].active && voices_[i].note == note) {
 654              		.loc 1 215 5 view .LVU159
 655              	.LBB164:
 656              	.LBB161:
 215:AudioSynthesizer.cpp ****         if (voices_[i].active && voices_[i].note == note) {
 657              		.loc 1 215 23 view .LVU160
 658 0002 0346     		mov	r3, r0
 659              	.LBE161:
 660              	.LBE164:
  67:AudioSynthesizer.cpp ****     // TODO: Implement note off
 661              		.loc 1 67 46 is_stmt 0 view .LVU161
 662 0004 10B4     		push	{r4}
 663              		.cfi_def_cfa_offset 4
 664              		.cfi_offset 4, -4
 665              	.LVL31:
 666              	.L31:
 667              	.LBB165:
 668              	.LBB162:
 216:AudioSynthesizer.cpp ****             return &voices_[i];
 669              		.loc 1 216 9 is_stmt 1 view .LVU162
 215:AudioSynthesizer.cpp ****         if (voices_[i].active && voices_[i].note == note) {
 670              		.loc 1 215 5 view .LVU163
 216:AudioSynthesizer.cpp ****             return &voices_[i];
 671              		.loc 1 216 9 is_stmt 0 view .LVU164
 672 0006 93F87440 		ldrb	r4, [r3, #116]	@ zero_extendqisi2
 673 000a 1CB1     		cbz	r4, .L29
 216:AudioSynthesizer.cpp ****             return &voices_[i];
 674              		.loc 1 216 31 view .LVU165
 675 000c 93F87540 		ldrb	r4, [r3, #117]	@ zero_extendqisi2
 676 0010 8C42     		cmp	r4, r1
 677 0012 06D0     		beq	.L37
 678              	.L29:
 215:AudioSynthesizer.cpp ****         if (voices_[i].active && voices_[i].note == note) {
ARM GAS  C:\Users\Marco\AppData\Local\Temp\ccyPdXhV.s 			page 22


 679              		.loc 1 215 5 view .LVU166
 680 0014 0132     		adds	r2, r2, #1
 681              	.LVL32:
 215:AudioSynthesizer.cpp ****         if (voices_[i].active && voices_[i].note == note) {
 682              		.loc 1 215 23 is_stmt 1 view .LVU167
 683 0016 8C33     		adds	r3, r3, #140
 684 0018 102A     		cmp	r2, #16
 685 001a F4D1     		bne	.L31
 686              	.LBE162:
 687              	.LBE165:
  73:AudioSynthesizer.cpp **** 
 688              		.loc 1 73 1 is_stmt 0 view .LVU168
 689 001c 5DF8044B 		ldr	r4, [sp], #4
 690              		.cfi_remember_state
 691              		.cfi_restore 4
 692              		.cfi_def_cfa_offset 0
 693 0020 7047     		bx	lr
 694              	.L37:
 695              		.cfi_restore_state
 696              	.LBB166:
 697              	.LBB163:
 217:AudioSynthesizer.cpp ****         }
 698              		.loc 1 217 13 is_stmt 1 view .LVU169
 699              	.LVL33:
 217:AudioSynthesizer.cpp ****         }
 700              		.loc 1 217 13 is_stmt 0 view .LVU170
 701              	.LBE163:
 702              	.LBE166:
  70:AudioSynthesizer.cpp ****         ReleaseVoice(voice);
 703              		.loc 1 70 5 is_stmt 1 view .LVU171
  71:AudioSynthesizer.cpp ****     }
 704              		.loc 1 71 9 view .LVU172
 705              	.LBB167:
 706              	.LBI167:
 235:AudioSynthesizer.cpp ****     // TODO: Implement voice release
 707              		.loc 1 235 6 view .LVU173
 708              	.LBB168:
 237:AudioSynthesizer.cpp ****         voice->state = VOICE_RELEASE;
 709              		.loc 1 237 5 view .LVU174
 238:AudioSynthesizer.cpp ****         // Don't set active = false yet, let the envelope finish
 710              		.loc 1 238 9 view .LVU175
 238:AudioSynthesizer.cpp ****         // Don't set active = false yet, let the envelope finish
 711              		.loc 1 238 22 is_stmt 0 view .LVU176
 712 0022 8C21     		movs	r1, #140
 713              	.LVL34:
 238:AudioSynthesizer.cpp ****         // Don't set active = false yet, let the envelope finish
 714              		.loc 1 238 22 view .LVU177
 715 0024 0423     		movs	r3, #4
 716              	.LBE168:
 717              	.LBE167:
  73:AudioSynthesizer.cpp **** 
 718              		.loc 1 73 1 view .LVU178
 719 0026 5DF8044B 		ldr	r4, [sp], #4
 720              		.cfi_restore 4
 721              		.cfi_def_cfa_offset 0
 722              	.LBB170:
 723              	.LBB169:
ARM GAS  C:\Users\Marco\AppData\Local\Temp\ccyPdXhV.s 			page 23


 238:AudioSynthesizer.cpp ****         // Don't set active = false yet, let the envelope finish
 724              		.loc 1 238 22 view .LVU179
 725 002a 01FB0200 		mla	r0, r1, r2, r0
 726              	.LVL35:
 238:AudioSynthesizer.cpp ****         // Don't set active = false yet, let the envelope finish
 727              		.loc 1 238 22 view .LVU180
 728 002e 80F88030 		strb	r3, [r0, #128]
 729              	.LBE169:
 730              	.LBE170:
  73:AudioSynthesizer.cpp **** 
 731              		.loc 1 73 1 view .LVU181
 732 0032 7047     		bx	lr
 733              		.cfi_endproc
 734              	.LFE3525:
 736              		.section	.text._ZN16AudioSynthesizer11AllNotesOffEv,"ax",%progbits
 737              		.align	1
 738              		.p2align 2,,3
 739              		.global	_ZN16AudioSynthesizer11AllNotesOffEv
 740              		.syntax unified
 741              		.thumb
 742              		.thumb_func
 743              		.fpu fpv5-d16
 745              	_ZN16AudioSynthesizer11AllNotesOffEv:
 746              	.LVL36:
 747              	.LFB3526:
  75:AudioSynthesizer.cpp ****     // TODO: Implement all notes off
 748              		.loc 1 75 38 is_stmt 1 view -0
 749              		.cfi_startproc
 750              		@ args = 0, pretend = 0, frame = 0
 751              		@ frame_needed = 0, uses_anonymous_args = 0
 752              		@ link register save eliminated.
  77:AudioSynthesizer.cpp ****         if (voices_[i].active) {
 753              		.loc 1 77 5 view .LVU183
 754              	.LBB171:
  77:AudioSynthesizer.cpp ****         if (voices_[i].active) {
 755              		.loc 1 77 23 view .LVU184
 756 0000 00F50C61 		add	r1, r0, #2240
 757              	.LVL37:
 758              	.L40:
  78:AudioSynthesizer.cpp ****             ReleaseVoice(&voices_[i]);
 759              		.loc 1 78 9 view .LVU185
  79:AudioSynthesizer.cpp ****         }
 760              		.loc 1 79 13 view .LVU186
 761              	.LBB172:
 762              	.LBI172:
 235:AudioSynthesizer.cpp ****     // TODO: Implement voice release
 763              		.loc 1 235 6 view .LVU187
 764              	.LBB173:
 237:AudioSynthesizer.cpp ****         voice->state = VOICE_RELEASE;
 765              		.loc 1 237 5 view .LVU188
 238:AudioSynthesizer.cpp ****         // Don't set active = false yet, let the envelope finish
 766              		.loc 1 238 9 view .LVU189
 238:AudioSynthesizer.cpp ****         // Don't set active = false yet, let the envelope finish
 767              		.loc 1 238 9 is_stmt 0 view .LVU190
 768              	.LBE173:
 769              	.LBE172:
  77:AudioSynthesizer.cpp ****         if (voices_[i].active) {
ARM GAS  C:\Users\Marco\AppData\Local\Temp\ccyPdXhV.s 			page 24


 770              		.loc 1 77 5 is_stmt 1 view .LVU191
  77:AudioSynthesizer.cpp ****         if (voices_[i].active) {
 771              		.loc 1 77 23 view .LVU192
  78:AudioSynthesizer.cpp ****             ReleaseVoice(&voices_[i]);
 772              		.loc 1 78 9 is_stmt 0 view .LVU193
 773 0004 90F87430 		ldrb	r3, [r0, #116]	@ zero_extendqisi2
 774              	.LBB176:
 775              	.LBB174:
 238:AudioSynthesizer.cpp ****         // Don't set active = false yet, let the envelope finish
 776              		.loc 1 238 22 view .LVU194
 777 0008 0422     		movs	r2, #4
 778              	.LBE174:
 779              	.LBE176:
  78:AudioSynthesizer.cpp ****             ReleaseVoice(&voices_[i]);
 780              		.loc 1 78 9 view .LVU195
 781 000a 0BB1     		cbz	r3, .L39
 782              	.LBB177:
 783              	.LBB175:
 238:AudioSynthesizer.cpp ****         // Don't set active = false yet, let the envelope finish
 784              		.loc 1 238 22 view .LVU196
 785 000c 80F88020 		strb	r2, [r0, #128]
 786              	.L39:
 787              	.LBE175:
 788              	.LBE177:
  77:AudioSynthesizer.cpp ****         if (voices_[i].active) {
 789              		.loc 1 77 23 discriminator 2 view .LVU197
 790 0010 8C30     		adds	r0, r0, #140
 791 0012 8842     		cmp	r0, r1
 792 0014 F6D1     		bne	.L40
 793              	.LBE171:
  82:AudioSynthesizer.cpp **** 
 794              		.loc 1 82 1 view .LVU198
 795 0016 7047     		bx	lr
 796              		.cfi_endproc
 797              	.LFE3526:
 799              		.section	.text._ZN16AudioSynthesizer19GetActiveVoiceCountEv,"ax",%progbits
 800              		.align	1
 801              		.p2align 2,,3
 802              		.global	_ZN16AudioSynthesizer19GetActiveVoiceCountEv
 803              		.syntax unified
 804              		.thumb
 805              		.thumb_func
 806              		.fpu fpv5-d16
 808              	_ZN16AudioSynthesizer19GetActiveVoiceCountEv:
 809              	.LVL38:
 810              	.LFB3527:
  85:AudioSynthesizer.cpp ****     return activeVoiceCount_;
 811              		.loc 1 85 49 is_stmt 1 view -0
 812              		.cfi_startproc
 813              		@ args = 0, pretend = 0, frame = 0
 814              		@ frame_needed = 0, uses_anonymous_args = 0
 815              		@ link register save eliminated.
  86:AudioSynthesizer.cpp **** }
 816              		.loc 1 86 5 view .LVU200
  87:AudioSynthesizer.cpp **** 
 817              		.loc 1 87 1 is_stmt 0 view .LVU201
 818 0000 90F8C808 		ldrb	r0, [r0, #2248]	@ zero_extendqisi2
ARM GAS  C:\Users\Marco\AppData\Local\Temp\ccyPdXhV.s 			page 25


 819              	.LVL39:
  87:AudioSynthesizer.cpp **** 
 820              		.loc 1 87 1 view .LVU202
 821 0004 7047     		bx	lr
 822              		.cfi_endproc
 823              	.LFE3527:
 825 0006 00BF     		.section	.text._ZN16AudioSynthesizer13IsVoiceActiveEh,"ax",%progbits
 826              		.align	1
 827              		.p2align 2,,3
 828              		.global	_ZN16AudioSynthesizer13IsVoiceActiveEh
 829              		.syntax unified
 830              		.thumb
 831              		.thumb_func
 832              		.fpu fpv5-d16
 834              	_ZN16AudioSynthesizer13IsVoiceActiveEh:
 835              	.LVL40:
 836              	.LFB3528:
  89:AudioSynthesizer.cpp ****     if (voiceIndex < MAX_VOICES) {
 837              		.loc 1 89 58 is_stmt 1 view -0
 838              		.cfi_startproc
 839              		@ args = 0, pretend = 0, frame = 0
 840              		@ frame_needed = 0, uses_anonymous_args = 0
 841              		@ link register save eliminated.
  90:AudioSynthesizer.cpp ****         return voices_[voiceIndex].active;
 842              		.loc 1 90 5 view .LVU204
 843 0000 0F29     		cmp	r1, #15
 844 0002 01D9     		bls	.L49
  93:AudioSynthesizer.cpp **** }
 845              		.loc 1 93 12 is_stmt 0 view .LVU205
 846 0004 0020     		movs	r0, #0
 847              	.LVL41:
  94:AudioSynthesizer.cpp **** 
 848              		.loc 1 94 1 view .LVU206
 849 0006 7047     		bx	lr
 850              	.LVL42:
 851              	.L49:
  91:AudioSynthesizer.cpp ****     }
 852              		.loc 1 91 9 is_stmt 1 view .LVU207
  91:AudioSynthesizer.cpp ****     }
 853              		.loc 1 91 36 is_stmt 0 view .LVU208
 854 0008 8C23     		movs	r3, #140
 855 000a 03FB0100 		mla	r0, r3, r1, r0
 856              	.LVL43:
  91:AudioSynthesizer.cpp ****     }
 857              		.loc 1 91 36 view .LVU209
 858 000e 90F87400 		ldrb	r0, [r0, #116]	@ zero_extendqisi2
 859 0012 7047     		bx	lr
 860              		.cfi_endproc
 861              	.LFE3528:
 863              		.section	.text._ZN16AudioSynthesizer8GetVoiceEh,"ax",%progbits
 864              		.align	1
 865              		.p2align 2,,3
 866              		.global	_ZN16AudioSynthesizer8GetVoiceEh
 867              		.syntax unified
 868              		.thumb
 869              		.thumb_func
 870              		.fpu fpv5-d16
ARM GAS  C:\Users\Marco\AppData\Local\Temp\ccyPdXhV.s 			page 26


 872              	_ZN16AudioSynthesizer8GetVoiceEh:
 873              	.LVL44:
 874              	.LFB3529:
  96:AudioSynthesizer.cpp ****     if (voiceIndex < MAX_VOICES) {
 875              		.loc 1 96 55 is_stmt 1 view -0
 876              		.cfi_startproc
 877              		@ args = 0, pretend = 0, frame = 0
 878              		@ frame_needed = 0, uses_anonymous_args = 0
 879              		@ link register save eliminated.
  97:AudioSynthesizer.cpp ****         return &voices_[voiceIndex];
 880              		.loc 1 97 5 view .LVU211
 881 0000 0F29     		cmp	r1, #15
 882 0002 04D8     		bhi	.L52
  98:AudioSynthesizer.cpp ****     }
 883              		.loc 1 98 9 view .LVU212
  98:AudioSynthesizer.cpp ****     }
 884              		.loc 1 98 35 is_stmt 0 view .LVU213
 885 0004 8C23     		movs	r3, #140
 886 0006 03FB0100 		mla	r0, r3, r1, r0
 887              	.LVL45:
  98:AudioSynthesizer.cpp ****     }
 888              		.loc 1 98 35 view .LVU214
 889 000a 0830     		adds	r0, r0, #8
 890 000c 7047     		bx	lr
 891              	.LVL46:
 892              	.L52:
 100:AudioSynthesizer.cpp **** }
 893              		.loc 1 100 12 view .LVU215
 894 000e 0020     		movs	r0, #0
 895              	.LVL47:
 101:AudioSynthesizer.cpp **** 
 896              		.loc 1 101 1 view .LVU216
 897 0010 7047     		bx	lr
 898              		.cfi_endproc
 899              	.LFE3529:
 901 0012 00BF     		.section	.text._ZN16AudioSynthesizer15SetMasterVolumeEf,"ax",%progbits
 902              		.align	1
 903              		.p2align 2,,3
 904              		.global	_ZN16AudioSynthesizer15SetMasterVolumeEf
 905              		.syntax unified
 906              		.thumb
 907              		.thumb_func
 908              		.fpu fpv5-d16
 910              	_ZN16AudioSynthesizer15SetMasterVolumeEf:
 911              	.LVL48:
 912              	.LFB3530:
 104:AudioSynthesizer.cpp ****     masterVolume_ = volume;
 913              		.loc 1 104 54 is_stmt 1 view -0
 914              		.cfi_startproc
 915              		@ args = 0, pretend = 0, frame = 0
 916              		@ frame_needed = 0, uses_anonymous_args = 0
 917              		@ link register save eliminated.
 105:AudioSynthesizer.cpp **** }
 918              		.loc 1 105 5 view .LVU218
 105:AudioSynthesizer.cpp **** }
 919              		.loc 1 105 19 is_stmt 0 view .LVU219
 920 0000 00F6CC00 		addw	r0, r0, #2252
ARM GAS  C:\Users\Marco\AppData\Local\Temp\ccyPdXhV.s 			page 27


 921              	.LVL49:
 105:AudioSynthesizer.cpp **** }
 922              		.loc 1 105 19 view .LVU220
 923 0004 80ED000A 		vstr.32	s0, [r0]
 106:AudioSynthesizer.cpp **** 
 924              		.loc 1 106 1 view .LVU221
 925 0008 7047     		bx	lr
 926              		.cfi_endproc
 927              	.LFE3530:
 929 000a 00BF     		.section	.text._ZN16AudioSynthesizer11SetWaveformE12WaveformType,"ax",%progbits
 930              		.align	1
 931              		.p2align 2,,3
 932              		.global	_ZN16AudioSynthesizer11SetWaveformE12WaveformType
 933              		.syntax unified
 934              		.thumb
 935              		.thumb_func
 936              		.fpu fpv5-d16
 938              	_ZN16AudioSynthesizer11SetWaveformE12WaveformType:
 939              	.LVL50:
 940              	.LFB3531:
 108:AudioSynthesizer.cpp ****     currentWaveform_ = waveform;
 941              		.loc 1 108 59 is_stmt 1 view -0
 942              		.cfi_startproc
 943              		@ args = 0, pretend = 0, frame = 0
 944              		@ frame_needed = 0, uses_anonymous_args = 0
 945              		@ link register save eliminated.
 109:AudioSynthesizer.cpp **** }
 946              		.loc 1 109 5 view .LVU223
 109:AudioSynthesizer.cpp **** }
 947              		.loc 1 109 22 is_stmt 0 view .LVU224
 948 0000 80F8D018 		strb	r1, [r0, #2256]
 110:AudioSynthesizer.cpp **** 
 949              		.loc 1 110 1 view .LVU225
 950 0004 7047     		bx	lr
 951              		.cfi_endproc
 952              	.LFE3531:
 954 0006 00BF     		.section	.text._ZN16AudioSynthesizer14SetReverbLevelEf,"ax",%progbits
 955              		.align	1
 956              		.p2align 2,,3
 957              		.global	_ZN16AudioSynthesizer14SetReverbLevelEf
 958              		.syntax unified
 959              		.thumb
 960              		.thumb_func
 961              		.fpu fpv5-d16
 963              	_ZN16AudioSynthesizer14SetReverbLevelEf:
 964              	.LVL51:
 965              	.LFB3532:
 112:AudioSynthesizer.cpp ****     reverbLevel_ = level;
 966              		.loc 1 112 52 is_stmt 1 view -0
 967              		.cfi_startproc
 968              		@ args = 0, pretend = 0, frame = 0
 969              		@ frame_needed = 0, uses_anonymous_args = 0
 970              		@ link register save eliminated.
 113:AudioSynthesizer.cpp **** }
 971              		.loc 1 113 5 view .LVU227
 113:AudioSynthesizer.cpp **** }
 972              		.loc 1 113 18 is_stmt 0 view .LVU228
ARM GAS  C:\Users\Marco\AppData\Local\Temp\ccyPdXhV.s 			page 28


 973 0000 024B     		ldr	r3, .L56
 974 0002 0344     		add	r3, r3, r0
 975 0004 83ED000A 		vstr.32	s0, [r3]
 114:AudioSynthesizer.cpp **** 
 976              		.loc 1 114 1 view .LVU229
 977 0008 7047     		bx	lr
 978              	.L57:
 979 000a 00BF     		.align	2
 980              	.L56:
 981 000c 74F70200 		.word	194420
 982              		.cfi_endproc
 983              	.LFE3532:
 985              		.section	.text._ZN16AudioSynthesizer15SetFilterCutoffEf,"ax",%progbits
 986              		.align	1
 987              		.p2align 2,,3
 988              		.global	_ZN16AudioSynthesizer15SetFilterCutoffEf
 989              		.syntax unified
 990              		.thumb
 991              		.thumb_func
 992              		.fpu fpv5-d16
 994              	_ZN16AudioSynthesizer15SetFilterCutoffEf:
 995              	.LVL52:
 996              	.LFB3533:
 116:AudioSynthesizer.cpp ****     filterCutoff_ = cutoff;
 997              		.loc 1 116 54 is_stmt 1 view -0
 998              		.cfi_startproc
 999              		@ args = 0, pretend = 0, frame = 0
 1000              		@ frame_needed = 0, uses_anonymous_args = 0
 1001              		@ link register save eliminated.
 117:AudioSynthesizer.cpp **** }
 1002              		.loc 1 117 5 view .LVU231
 117:AudioSynthesizer.cpp **** }
 1003              		.loc 1 117 19 is_stmt 0 view .LVU232
 1004 0000 024B     		ldr	r3, .L59
 1005 0002 0344     		add	r3, r3, r0
 1006 0004 83ED000A 		vstr.32	s0, [r3]
 118:AudioSynthesizer.cpp **** 
 1007              		.loc 1 118 1 view .LVU233
 1008 0008 7047     		bx	lr
 1009              	.L60:
 1010 000a 00BF     		.align	2
 1011              	.L59:
 1012 000c 84F70200 		.word	194436
 1013              		.cfi_endproc
 1014              	.LFE3533:
 1016              		.section	.text._ZN16AudioSynthesizer18SetFilterResonanceEf,"ax",%progbits
 1017              		.align	1
 1018              		.p2align 2,,3
 1019              		.global	_ZN16AudioSynthesizer18SetFilterResonanceEf
 1020              		.syntax unified
 1021              		.thumb
 1022              		.thumb_func
 1023              		.fpu fpv5-d16
 1025              	_ZN16AudioSynthesizer18SetFilterResonanceEf:
 1026              	.LVL53:
 1027              	.LFB3534:
 120:AudioSynthesizer.cpp ****     filterResonance_ = resonance;
ARM GAS  C:\Users\Marco\AppData\Local\Temp\ccyPdXhV.s 			page 29


 1028              		.loc 1 120 60 is_stmt 1 view -0
 1029              		.cfi_startproc
 1030              		@ args = 0, pretend = 0, frame = 0
 1031              		@ frame_needed = 0, uses_anonymous_args = 0
 1032              		@ link register save eliminated.
 121:AudioSynthesizer.cpp **** }
 1033              		.loc 1 121 5 view .LVU235
 121:AudioSynthesizer.cpp **** }
 1034              		.loc 1 121 22 is_stmt 0 view .LVU236
 1035 0000 024B     		ldr	r3, .L62
 1036 0002 0344     		add	r3, r3, r0
 1037 0004 83ED000A 		vstr.32	s0, [r3]
 122:AudioSynthesizer.cpp **** 
 1038              		.loc 1 122 1 view .LVU237
 1039 0008 7047     		bx	lr
 1040              	.L63:
 1041 000a 00BF     		.align	2
 1042              	.L62:
 1043 000c 88F70200 		.word	194440
 1044              		.cfi_endproc
 1045              	.LFE3534:
 1047              		.section	.text._ZN16AudioSynthesizer13SetAttackTimeEf,"ax",%progbits
 1048              		.align	1
 1049              		.p2align 2,,3
 1050              		.global	_ZN16AudioSynthesizer13SetAttackTimeEf
 1051              		.syntax unified
 1052              		.thumb
 1053              		.thumb_func
 1054              		.fpu fpv5-d16
 1056              	_ZN16AudioSynthesizer13SetAttackTimeEf:
 1057              	.LVL54:
 1058              	.LFB3535:
 125:AudioSynthesizer.cpp ****     // TODO: Implement attack time setting for all voices
 1059              		.loc 1 125 57 is_stmt 1 view -0
 1060              		.cfi_startproc
 1061              		@ args = 0, pretend = 0, frame = 0
 1062              		@ frame_needed = 0, uses_anonymous_args = 0
 1063              		@ link register save eliminated.
 127:AudioSynthesizer.cpp **** 
 1064              		.loc 1 127 1 is_stmt 0 view .LVU239
 1065 0000 7047     		bx	lr
 1066              		.cfi_endproc
 1067              	.LFE3535:
 1069 0002 00BF     		.section	.text._ZN16AudioSynthesizer12SetDecayTimeEf,"ax",%progbits
 1070              		.align	1
 1071              		.p2align 2,,3
 1072              		.global	_ZN16AudioSynthesizer12SetDecayTimeEf
 1073              		.syntax unified
 1074              		.thumb
 1075              		.thumb_func
 1076              		.fpu fpv5-d16
 1078              	_ZN16AudioSynthesizer12SetDecayTimeEf:
 1079              	.LFB4126:
 1080              		.cfi_startproc
 1081              		@ args = 0, pretend = 0, frame = 0
 1082              		@ frame_needed = 0, uses_anonymous_args = 0
 1083              		@ link register save eliminated.
ARM GAS  C:\Users\Marco\AppData\Local\Temp\ccyPdXhV.s 			page 30


 1084 0000 7047     		bx	lr
 1085              		.cfi_endproc
 1086              	.LFE4126:
 1088 0002 00BF     		.section	.text._ZN16AudioSynthesizer15SetSustainLevelEf,"ax",%progbits
 1089              		.align	1
 1090              		.p2align 2,,3
 1091              		.global	_ZN16AudioSynthesizer15SetSustainLevelEf
 1092              		.syntax unified
 1093              		.thumb
 1094              		.thumb_func
 1095              		.fpu fpv5-d16
 1097              	_ZN16AudioSynthesizer15SetSustainLevelEf:
 1098              	.LFB4128:
 1099              		.cfi_startproc
 1100              		@ args = 0, pretend = 0, frame = 0
 1101              		@ frame_needed = 0, uses_anonymous_args = 0
 1102              		@ link register save eliminated.
 1103 0000 7047     		bx	lr
 1104              		.cfi_endproc
 1105              	.LFE4128:
 1107 0002 00BF     		.section	.text._ZN16AudioSynthesizer14SetReleaseTimeEf,"ax",%progbits
 1108              		.align	1
 1109              		.p2align 2,,3
 1110              		.global	_ZN16AudioSynthesizer14SetReleaseTimeEf
 1111              		.syntax unified
 1112              		.thumb
 1113              		.thumb_func
 1114              		.fpu fpv5-d16
 1116              	_ZN16AudioSynthesizer14SetReleaseTimeEf:
 1117              	.LFB4130:
 1118              		.cfi_startproc
 1119              		@ args = 0, pretend = 0, frame = 0
 1120              		@ frame_needed = 0, uses_anonymous_args = 0
 1121              		@ link register save eliminated.
 1122 0000 7047     		bx	lr
 1123              		.cfi_endproc
 1124              	.LFE4130:
 1126 0002 00BF     		.section	.text._ZN16AudioSynthesizer16SetReverbEnabledEb,"ax",%progbits
 1127              		.align	1
 1128              		.p2align 2,,3
 1129              		.global	_ZN16AudioSynthesizer16SetReverbEnabledEb
 1130              		.syntax unified
 1131              		.thumb
 1132              		.thumb_func
 1133              		.fpu fpv5-d16
 1135              	_ZN16AudioSynthesizer16SetReverbEnabledEb:
 1136              	.LVL55:
 1137              	.LFB3539:
 142:AudioSynthesizer.cpp ****     reverbEnabled_ = enabled;
 1138              		.loc 1 142 55 is_stmt 1 view -0
 1139              		.cfi_startproc
 1140              		@ args = 0, pretend = 0, frame = 0
 1141              		@ frame_needed = 0, uses_anonymous_args = 0
 1142              		@ link register save eliminated.
 143:AudioSynthesizer.cpp **** }
 1143              		.loc 1 143 5 view .LVU241
 143:AudioSynthesizer.cpp **** }
ARM GAS  C:\Users\Marco\AppData\Local\Temp\ccyPdXhV.s 			page 31


 1144              		.loc 1 143 20 is_stmt 0 view .LVU242
 1145 0000 00F53C30 		add	r0, r0, #192512
 1146              	.LVL56:
 143:AudioSynthesizer.cpp **** }
 1147              		.loc 1 143 20 view .LVU243
 1148 0004 80F87017 		strb	r1, [r0, #1904]
 144:AudioSynthesizer.cpp **** 
 1149              		.loc 1 144 1 view .LVU244
 1150 0008 7047     		bx	lr
 1151              		.cfi_endproc
 1152              	.LFE3539:
 1154 000a 00BF     		.section	.text._ZN16AudioSynthesizer15SetDelayEnabledEb,"ax",%progbits
 1155              		.align	1
 1156              		.p2align 2,,3
 1157              		.global	_ZN16AudioSynthesizer15SetDelayEnabledEb
 1158              		.syntax unified
 1159              		.thumb
 1160              		.thumb_func
 1161              		.fpu fpv5-d16
 1163              	_ZN16AudioSynthesizer15SetDelayEnabledEb:
 1164              	.LVL57:
 1165              	.LFB3540:
 146:AudioSynthesizer.cpp ****     delayEnabled_ = enabled;
 1166              		.loc 1 146 54 is_stmt 1 view -0
 1167              		.cfi_startproc
 1168              		@ args = 0, pretend = 0, frame = 0
 1169              		@ frame_needed = 0, uses_anonymous_args = 0
 1170              		@ link register save eliminated.
 147:AudioSynthesizer.cpp **** }
 1171              		.loc 1 147 5 view .LVU246
 147:AudioSynthesizer.cpp **** }
 1172              		.loc 1 147 19 is_stmt 0 view .LVU247
 1173 0000 00F53C30 		add	r0, r0, #192512
 1174              	.LVL58:
 147:AudioSynthesizer.cpp **** }
 1175              		.loc 1 147 19 view .LVU248
 1176 0004 80F87817 		strb	r1, [r0, #1912]
 148:AudioSynthesizer.cpp **** 
 1177              		.loc 1 148 1 view .LVU249
 1178 0008 7047     		bx	lr
 1179              		.cfi_endproc
 1180              	.LFE3540:
 1182 000a 00BF     		.section	.text._ZN16AudioSynthesizer12SetDelayTimeEf,"ax",%progbits
 1183              		.align	1
 1184              		.p2align 2,,3
 1185              		.global	_ZN16AudioSynthesizer12SetDelayTimeEf
 1186              		.syntax unified
 1187              		.thumb
 1188              		.thumb_func
 1189              		.fpu fpv5-d16
 1191              	_ZN16AudioSynthesizer12SetDelayTimeEf:
 1192              	.LVL59:
 1193              	.LFB3541:
 150:AudioSynthesizer.cpp ****     delayTime_ = timeSeconds;
 1194              		.loc 1 150 56 is_stmt 1 view -0
 1195              		.cfi_startproc
 1196              		@ args = 0, pretend = 0, frame = 0
ARM GAS  C:\Users\Marco\AppData\Local\Temp\ccyPdXhV.s 			page 32


 1197              		@ frame_needed = 0, uses_anonymous_args = 0
 1198              		@ link register save eliminated.
 151:AudioSynthesizer.cpp **** }
 1199              		.loc 1 151 5 view .LVU251
 151:AudioSynthesizer.cpp **** }
 1200              		.loc 1 151 16 is_stmt 0 view .LVU252
 1201 0000 024B     		ldr	r3, .L71
 1202 0002 0344     		add	r3, r3, r0
 1203 0004 83ED000A 		vstr.32	s0, [r3]
 152:AudioSynthesizer.cpp **** 
 1204              		.loc 1 152 1 view .LVU253
 1205 0008 7047     		bx	lr
 1206              	.L72:
 1207 000a 00BF     		.align	2
 1208              	.L71:
 1209 000c 7CF70200 		.word	194428
 1210              		.cfi_endproc
 1211              	.LFE3541:
 1213              		.section	.text._ZN16AudioSynthesizer16SetDelayFeedbackEf,"ax",%progbits
 1214              		.align	1
 1215              		.p2align 2,,3
 1216              		.global	_ZN16AudioSynthesizer16SetDelayFeedbackEf
 1217              		.syntax unified
 1218              		.thumb
 1219              		.thumb_func
 1220              		.fpu fpv5-d16
 1222              	_ZN16AudioSynthesizer16SetDelayFeedbackEf:
 1223              	.LVL60:
 1224              	.LFB3542:
 154:AudioSynthesizer.cpp ****     delayFeedback_ = feedback;
 1225              		.loc 1 154 57 is_stmt 1 view -0
 1226              		.cfi_startproc
 1227              		@ args = 0, pretend = 0, frame = 0
 1228              		@ frame_needed = 0, uses_anonymous_args = 0
 1229              		@ link register save eliminated.
 155:AudioSynthesizer.cpp **** }
 1230              		.loc 1 155 5 view .LVU255
 155:AudioSynthesizer.cpp **** }
 1231              		.loc 1 155 20 is_stmt 0 view .LVU256
 1232 0000 024B     		ldr	r3, .L74
 1233 0002 0344     		add	r3, r3, r0
 1234 0004 83ED000A 		vstr.32	s0, [r3]
 156:AudioSynthesizer.cpp **** 
 1235              		.loc 1 156 1 view .LVU257
 1236 0008 7047     		bx	lr
 1237              	.L75:
 1238 000a 00BF     		.align	2
 1239              	.L74:
 1240 000c 80F70200 		.word	194432
 1241              		.cfi_endproc
 1242              	.LFE3542:
 1244              		.section	.text._ZN16AudioSynthesizer12SetPitchBendEf,"ax",%progbits
 1245              		.align	1
 1246              		.p2align 2,,3
 1247              		.global	_ZN16AudioSynthesizer12SetPitchBendEf
 1248              		.syntax unified
 1249              		.thumb
ARM GAS  C:\Users\Marco\AppData\Local\Temp\ccyPdXhV.s 			page 33


 1250              		.thumb_func
 1251              		.fpu fpv5-d16
 1253              	_ZN16AudioSynthesizer12SetPitchBendEf:
 1254              	.LVL61:
 1255              	.LFB3543:
 159:AudioSynthesizer.cpp ****     pitchBendAmount_ = semitones;
 1256              		.loc 1 159 54 is_stmt 1 view -0
 1257              		.cfi_startproc
 1258              		@ args = 0, pretend = 0, frame = 0
 1259              		@ frame_needed = 0, uses_anonymous_args = 0
 1260              		@ link register save eliminated.
 160:AudioSynthesizer.cpp **** }
 1261              		.loc 1 160 5 view .LVU259
 160:AudioSynthesizer.cpp **** }
 1262              		.loc 1 160 22 is_stmt 0 view .LVU260
 1263 0000 024B     		ldr	r3, .L77
 1264 0002 0344     		add	r3, r3, r0
 1265 0004 83ED000A 		vstr.32	s0, [r3]
 161:AudioSynthesizer.cpp **** 
 1266              		.loc 1 161 1 view .LVU261
 1267 0008 7047     		bx	lr
 1268              	.L78:
 1269 000a 00BF     		.align	2
 1270              	.L77:
 1271 000c 68F70200 		.word	194408
 1272              		.cfi_endproc
 1273              	.LFE3543:
 1275              		.section	.text._ZN16AudioSynthesizer13SetModulationEf,"ax",%progbits
 1276              		.align	1
 1277              		.p2align 2,,3
 1278              		.global	_ZN16AudioSynthesizer13SetModulationEf
 1279              		.syntax unified
 1280              		.thumb
 1281              		.thumb_func
 1282              		.fpu fpv5-d16
 1284              	_ZN16AudioSynthesizer13SetModulationEf:
 1285              	.LVL62:
 1286              	.LFB3544:
 163:AudioSynthesizer.cpp ****     modulationAmount_ = amount;
 1287              		.loc 1 163 52 is_stmt 1 view -0
 1288              		.cfi_startproc
 1289              		@ args = 0, pretend = 0, frame = 0
 1290              		@ frame_needed = 0, uses_anonymous_args = 0
 1291              		@ link register save eliminated.
 164:AudioSynthesizer.cpp **** }
 1292              		.loc 1 164 5 view .LVU263
 164:AudioSynthesizer.cpp **** }
 1293              		.loc 1 164 23 is_stmt 0 view .LVU264
 1294 0000 024B     		ldr	r3, .L80
 1295 0002 0344     		add	r3, r3, r0
 1296 0004 83ED000A 		vstr.32	s0, [r3]
 165:AudioSynthesizer.cpp **** 
 1297              		.loc 1 165 1 view .LVU265
 1298 0008 7047     		bx	lr
 1299              	.L81:
 1300 000a 00BF     		.align	2
 1301              	.L80:
ARM GAS  C:\Users\Marco\AppData\Local\Temp\ccyPdXhV.s 			page 34


 1302 000c 6CF70200 		.word	194412
 1303              		.cfi_endproc
 1304              	.LFE3544:
 1306              		.section	.text._ZN16AudioSynthesizer14SetVibratoRateEf,"ax",%progbits
 1307              		.align	1
 1308              		.p2align 2,,3
 1309              		.global	_ZN16AudioSynthesizer14SetVibratoRateEf
 1310              		.syntax unified
 1311              		.thumb
 1312              		.thumb_func
 1313              		.fpu fpv5-d16
 1315              	_ZN16AudioSynthesizer14SetVibratoRateEf:
 1316              	.LFB4132:
 1317              		.cfi_startproc
 1318              		@ args = 0, pretend = 0, frame = 0
 1319              		@ frame_needed = 0, uses_anonymous_args = 0
 1320              		@ link register save eliminated.
 1321 0000 7047     		bx	lr
 1322              		.cfi_endproc
 1323              	.LFE4132:
 1325 0002 00BF     		.section	.text._ZN16AudioSynthesizer15SetVibratoDepthEf,"ax",%progbits
 1326              		.align	1
 1327              		.p2align 2,,3
 1328              		.global	_ZN16AudioSynthesizer15SetVibratoDepthEf
 1329              		.syntax unified
 1330              		.thumb
 1331              		.thumb_func
 1332              		.fpu fpv5-d16
 1334              	_ZN16AudioSynthesizer15SetVibratoDepthEf:
 1335              	.LFB4134:
 1336              		.cfi_startproc
 1337              		@ args = 0, pretend = 0, frame = 0
 1338              		@ frame_needed = 0, uses_anonymous_args = 0
 1339              		@ link register save eliminated.
 1340 0000 7047     		bx	lr
 1341              		.cfi_endproc
 1342              	.LFE4134:
 1344 0002 00BF     		.section	.text._ZN16AudioSynthesizer10LoadPresetEh,"ax",%progbits
 1345              		.align	1
 1346              		.p2align 2,,3
 1347              		.global	_ZN16AudioSynthesizer10LoadPresetEh
 1348              		.syntax unified
 1349              		.thumb
 1350              		.thumb_func
 1351              		.fpu fpv5-d16
 1353              	_ZN16AudioSynthesizer10LoadPresetEh:
 1354              	.LVL63:
 1355              	.LFB3547:
 176:AudioSynthesizer.cpp ****     // TODO: Implement preset loading
 1356              		.loc 1 176 57 is_stmt 1 view -0
 1357              		.cfi_startproc
 1358              		@ args = 0, pretend = 0, frame = 0
 1359              		@ frame_needed = 0, uses_anonymous_args = 0
 1360              		@ link register save eliminated.
 178:AudioSynthesizer.cpp **** 
 1361              		.loc 1 178 1 is_stmt 0 view .LVU267
 1362 0000 7047     		bx	lr
ARM GAS  C:\Users\Marco\AppData\Local\Temp\ccyPdXhV.s 			page 35


 1363              		.cfi_endproc
 1364              	.LFE3547:
 1366 0002 00BF     		.section	.text._ZN16AudioSynthesizer10SavePresetEh,"ax",%progbits
 1367              		.align	1
 1368              		.p2align 2,,3
 1369              		.global	_ZN16AudioSynthesizer10SavePresetEh
 1370              		.syntax unified
 1371              		.thumb
 1372              		.thumb_func
 1373              		.fpu fpv5-d16
 1375              	_ZN16AudioSynthesizer10SavePresetEh:
 1376              	.LFB4136:
 1377              		.cfi_startproc
 1378              		@ args = 0, pretend = 0, frame = 0
 1379              		@ frame_needed = 0, uses_anonymous_args = 0
 1380              		@ link register save eliminated.
 1381 0000 7047     		bx	lr
 1382              		.cfi_endproc
 1383              	.LFE4136:
 1385 0002 00BF     		.section	.text._ZN16AudioSynthesizer16UpdateFromConfigEv,"ax",%progbits
 1386              		.align	1
 1387              		.p2align 2,,3
 1388              		.global	_ZN16AudioSynthesizer16UpdateFromConfigEv
 1389              		.syntax unified
 1390              		.thumb
 1391              		.thumb_func
 1392              		.fpu fpv5-d16
 1394              	_ZN16AudioSynthesizer16UpdateFromConfigEv:
 1395              	.LVL64:
 1396              	.LFB3549:
 184:AudioSynthesizer.cpp ****     // TODO: Implement configuration update
 1397              		.loc 1 184 43 is_stmt 1 view -0
 1398              		.cfi_startproc
 1399              		@ args = 0, pretend = 0, frame = 0
 1400              		@ frame_needed = 0, uses_anonymous_args = 0
 1401              		@ link register save eliminated.
 186:AudioSynthesizer.cpp **** 
 1402              		.loc 1 186 1 is_stmt 0 view .LVU269
 1403 0000 7047     		bx	lr
 1404              		.cfi_endproc
 1405              	.LFE3549:
 1407 0002 00BF     		.section	.text._ZN16AudioSynthesizer14GetOutputLevelEv,"ax",%progbits
 1408              		.align	1
 1409              		.p2align 2,,3
 1410              		.global	_ZN16AudioSynthesizer14GetOutputLevelEv
 1411              		.syntax unified
 1412              		.thumb
 1413              		.thumb_func
 1414              		.fpu fpv5-d16
 1416              	_ZN16AudioSynthesizer14GetOutputLevelEv:
 1417              	.LVL65:
 1418              	.LFB3550:
 189:AudioSynthesizer.cpp ****     return currentOutputLevel_;
 1419              		.loc 1 189 42 is_stmt 1 view -0
 1420              		.cfi_startproc
 1421              		@ args = 0, pretend = 0, frame = 0
 1422              		@ frame_needed = 0, uses_anonymous_args = 0
ARM GAS  C:\Users\Marco\AppData\Local\Temp\ccyPdXhV.s 			page 36


 1423              		@ link register save eliminated.
 190:AudioSynthesizer.cpp **** }
 1424              		.loc 1 190 5 view .LVU271
 190:AudioSynthesizer.cpp **** }
 1425              		.loc 1 190 12 is_stmt 0 view .LVU272
 1426 0000 024B     		ldr	r3, .L88
 1427 0002 0344     		add	r3, r3, r0
 191:AudioSynthesizer.cpp **** 
 1428              		.loc 1 191 1 view .LVU273
 1429 0004 93ED000A 		vldr.32	s0, [r3]
 1430 0008 7047     		bx	lr
 1431              	.L89:
 1432 000a 00BF     		.align	2
 1433              	.L88:
 1434 000c 90F70200 		.word	194448
 1435              		.cfi_endproc
 1436              	.LFE3550:
 1438              		.section	.text._ZN16AudioSynthesizer11GetCPUUsageEv,"ax",%progbits
 1439              		.align	1
 1440              		.p2align 2,,3
 1441              		.global	_ZN16AudioSynthesizer11GetCPUUsageEv
 1442              		.syntax unified
 1443              		.thumb
 1444              		.thumb_func
 1445              		.fpu fpv5-d16
 1447              	_ZN16AudioSynthesizer11GetCPUUsageEv:
 1448              	.LVL66:
 1449              	.LFB3551:
 193:AudioSynthesizer.cpp ****     // TODO: Implement CPU usage calculation
 1450              		.loc 1 193 39 is_stmt 1 view -0
 1451              		.cfi_startproc
 1452              		@ args = 0, pretend = 0, frame = 0
 1453              		@ frame_needed = 0, uses_anonymous_args = 0
 1454              		@ link register save eliminated.
 195:AudioSynthesizer.cpp **** }
 1455              		.loc 1 195 5 view .LVU275
 196:AudioSynthesizer.cpp **** 
 1456              		.loc 1 196 1 is_stmt 0 view .LVU276
 1457 0000 9FED010A 		vldr.32	s0, .L91
 1458 0004 7047     		bx	lr
 1459              	.L92:
 1460 0006 00BF     		.align	2
 1461              	.L91:
 1462 0008 00000000 		.word	0
 1463              		.cfi_endproc
 1464              	.LFE3551:
 1466              		.section	.text._ZN16AudioSynthesizer17GetProcessingTimeEv,"ax",%progbits
 1467              		.align	1
 1468              		.p2align 2,,3
 1469              		.global	_ZN16AudioSynthesizer17GetProcessingTimeEv
 1470              		.syntax unified
 1471              		.thumb
 1472              		.thumb_func
 1473              		.fpu fpv5-d16
 1475              	_ZN16AudioSynthesizer17GetProcessingTimeEv:
 1476              	.LVL67:
 1477              	.LFB3552:
ARM GAS  C:\Users\Marco\AppData\Local\Temp\ccyPdXhV.s 			page 37


 198:AudioSynthesizer.cpp ****     return lastProcessingTime_;
 1478              		.loc 1 198 48 is_stmt 1 view -0
 1479              		.cfi_startproc
 1480              		@ args = 0, pretend = 0, frame = 0
 1481              		@ frame_needed = 0, uses_anonymous_args = 0
 1482              		@ link register save eliminated.
 199:AudioSynthesizer.cpp **** }
 1483              		.loc 1 199 5 view .LVU278
 199:AudioSynthesizer.cpp **** }
 1484              		.loc 1 199 12 is_stmt 0 view .LVU279
 1485 0000 00F53C30 		add	r0, r0, #192512
 1486              	.LVL68:
 200:AudioSynthesizer.cpp **** 
 1487              		.loc 1 200 1 view .LVU280
 1488 0004 D0F88C07 		ldr	r0, [r0, #1932]
 1489              	.LVL69:
 200:AudioSynthesizer.cpp **** 
 1490              		.loc 1 200 1 view .LVU281
 1491 0008 7047     		bx	lr
 1492              		.cfi_endproc
 1493              	.LFE3552:
 1495 000a 00BF     		.section	.text._ZN16AudioSynthesizer12GetFreeVoiceEv,"ax",%progbits
 1496              		.align	1
 1497              		.p2align 2,,3
 1498              		.global	_ZN16AudioSynthesizer12GetFreeVoiceEv
 1499              		.syntax unified
 1500              		.thumb
 1501              		.thumb_func
 1502              		.fpu fpv5-d16
 1504              	_ZN16AudioSynthesizer12GetFreeVoiceEv:
 1505              	.LVL70:
 1506              	.LFB3553:
 203:AudioSynthesizer.cpp ****     // TODO: Implement free voice finding
 1507              		.loc 1 203 41 is_stmt 1 view -0
 1508              		.cfi_startproc
 1509              		@ args = 0, pretend = 0, frame = 0
 1510              		@ frame_needed = 0, uses_anonymous_args = 0
 1511              		@ link register save eliminated.
 205:AudioSynthesizer.cpp ****         if (!voices_[i].active) {
 1512              		.loc 1 205 5 view .LVU283
 1513              	.LBB178:
 205:AudioSynthesizer.cpp ****         if (!voices_[i].active) {
 1514              		.loc 1 205 23 view .LVU284
 205:AudioSynthesizer.cpp ****         if (!voices_[i].active) {
 1515              		.loc 1 205 14 is_stmt 0 view .LVU285
 1516 0000 0022     		movs	r2, #0
 1517 0002 0346     		mov	r3, r0
 1518              	.LVL71:
 1519              	.L97:
 206:AudioSynthesizer.cpp ****             return &voices_[i];
 1520              		.loc 1 206 9 is_stmt 1 view .LVU286
 205:AudioSynthesizer.cpp ****         if (!voices_[i].active) {
 1521              		.loc 1 205 5 view .LVU287
 206:AudioSynthesizer.cpp ****             return &voices_[i];
 1522              		.loc 1 206 9 is_stmt 0 view .LVU288
 1523 0004 93F87410 		ldrb	r1, [r3, #116]	@ zero_extendqisi2
 205:AudioSynthesizer.cpp ****         if (!voices_[i].active) {
ARM GAS  C:\Users\Marco\AppData\Local\Temp\ccyPdXhV.s 			page 38


 1524              		.loc 1 205 23 view .LVU289
 1525 0008 8C33     		adds	r3, r3, #140
 206:AudioSynthesizer.cpp ****             return &voices_[i];
 1526              		.loc 1 206 9 view .LVU290
 1527 000a 21B1     		cbz	r1, .L99
 205:AudioSynthesizer.cpp ****         if (!voices_[i].active) {
 1528              		.loc 1 205 5 discriminator 2 view .LVU291
 1529 000c 0132     		adds	r2, r2, #1
 1530              	.LVL72:
 205:AudioSynthesizer.cpp ****         if (!voices_[i].active) {
 1531              		.loc 1 205 23 is_stmt 1 discriminator 2 view .LVU292
 1532 000e 102A     		cmp	r2, #16
 1533 0010 F8D1     		bne	.L97
 1534              	.LBE178:
 210:AudioSynthesizer.cpp **** }
 1535              		.loc 1 210 12 is_stmt 0 view .LVU293
 1536 0012 0020     		movs	r0, #0
 1537              	.LVL73:
 211:AudioSynthesizer.cpp **** 
 1538              		.loc 1 211 1 view .LVU294
 1539 0014 7047     		bx	lr
 1540              	.LVL74:
 1541              	.L99:
 1542              	.LBB179:
 207:AudioSynthesizer.cpp ****         }
 1543              		.loc 1 207 13 is_stmt 1 view .LVU295
 207:AudioSynthesizer.cpp ****         }
 1544              		.loc 1 207 30 is_stmt 0 view .LVU296
 1545 0016 8C23     		movs	r3, #140
 1546 0018 03FB0200 		mla	r0, r3, r2, r0
 1547              	.LVL75:
 207:AudioSynthesizer.cpp ****         }
 1548              		.loc 1 207 30 view .LVU297
 1549 001c 0830     		adds	r0, r0, #8
 1550 001e 7047     		bx	lr
 1551              	.LBE179:
 1552              		.cfi_endproc
 1553              	.LFE3553:
 1555              		.section	.text._ZN16AudioSynthesizer9FindVoiceEh,"ax",%progbits
 1556              		.align	1
 1557              		.p2align 2,,3
 1558              		.global	_ZN16AudioSynthesizer9FindVoiceEh
 1559              		.syntax unified
 1560              		.thumb
 1561              		.thumb_func
 1562              		.fpu fpv5-d16
 1564              	_ZN16AudioSynthesizer9FindVoiceEh:
 1565              	.LVL76:
 1566              	.LFB3554:
 213:AudioSynthesizer.cpp ****     // TODO: Implement voice finding by note
 1567              		.loc 1 213 50 is_stmt 1 view -0
 1568              		.cfi_startproc
 1569              		@ args = 0, pretend = 0, frame = 0
 1570              		@ frame_needed = 0, uses_anonymous_args = 0
 1571              		@ link register save eliminated.
 215:AudioSynthesizer.cpp ****         if (voices_[i].active && voices_[i].note == note) {
 1572              		.loc 1 215 5 view .LVU299
ARM GAS  C:\Users\Marco\AppData\Local\Temp\ccyPdXhV.s 			page 39


 1573              	.LBB180:
 215:AudioSynthesizer.cpp ****         if (voices_[i].active && voices_[i].note == note) {
 1574              		.loc 1 215 23 view .LVU300
 215:AudioSynthesizer.cpp ****         if (voices_[i].active && voices_[i].note == note) {
 1575              		.loc 1 215 14 is_stmt 0 view .LVU301
 1576 0000 0022     		movs	r2, #0
 1577 0002 0346     		mov	r3, r0
 1578              	.LBE180:
 213:AudioSynthesizer.cpp ****     // TODO: Implement voice finding by note
 1579              		.loc 1 213 50 view .LVU302
 1580 0004 10B4     		push	{r4}
 1581              		.cfi_def_cfa_offset 4
 1582              		.cfi_offset 4, -4
 1583              	.LVL77:
 1584              	.L103:
 1585              	.LBB181:
 216:AudioSynthesizer.cpp ****             return &voices_[i];
 1586              		.loc 1 216 9 is_stmt 1 view .LVU303
 215:AudioSynthesizer.cpp ****         if (voices_[i].active && voices_[i].note == note) {
 1587              		.loc 1 215 5 view .LVU304
 216:AudioSynthesizer.cpp ****             return &voices_[i];
 1588              		.loc 1 216 9 is_stmt 0 view .LVU305
 1589 0006 93F87440 		ldrb	r4, [r3, #116]	@ zero_extendqisi2
 1590 000a 1CB1     		cbz	r4, .L101
 216:AudioSynthesizer.cpp ****             return &voices_[i];
 1591              		.loc 1 216 31 discriminator 1 view .LVU306
 1592 000c 93F87540 		ldrb	r4, [r3, #117]	@ zero_extendqisi2
 1593 0010 8C42     		cmp	r4, r1
 1594 0012 07D0     		beq	.L109
 1595              	.L101:
 215:AudioSynthesizer.cpp ****         if (voices_[i].active && voices_[i].note == note) {
 1596              		.loc 1 215 5 discriminator 2 view .LVU307
 1597 0014 0132     		adds	r2, r2, #1
 1598              	.LVL78:
 215:AudioSynthesizer.cpp ****         if (voices_[i].active && voices_[i].note == note) {
 1599              		.loc 1 215 23 is_stmt 1 discriminator 2 view .LVU308
 1600 0016 8C33     		adds	r3, r3, #140
 1601 0018 102A     		cmp	r2, #16
 1602 001a F4D1     		bne	.L103
 1603              	.LBE181:
 220:AudioSynthesizer.cpp **** }
 1604              		.loc 1 220 12 is_stmt 0 view .LVU309
 1605 001c 0020     		movs	r0, #0
 1606              	.LVL79:
 221:AudioSynthesizer.cpp **** 
 1607              		.loc 1 221 1 view .LVU310
 1608 001e 5DF8044B 		ldr	r4, [sp], #4
 1609              		.cfi_remember_state
 1610              		.cfi_restore 4
 1611              		.cfi_def_cfa_offset 0
 1612 0022 7047     		bx	lr
 1613              	.LVL80:
 1614              	.L109:
 1615              		.cfi_restore_state
 1616              	.LBB182:
 217:AudioSynthesizer.cpp ****         }
 1617              		.loc 1 217 13 is_stmt 1 view .LVU311
ARM GAS  C:\Users\Marco\AppData\Local\Temp\ccyPdXhV.s 			page 40


 217:AudioSynthesizer.cpp ****         }
 1618              		.loc 1 217 30 is_stmt 0 view .LVU312
 1619 0024 8C23     		movs	r3, #140
 1620              	.LBE182:
 221:AudioSynthesizer.cpp **** 
 1621              		.loc 1 221 1 view .LVU313
 1622 0026 5DF8044B 		ldr	r4, [sp], #4
 1623              		.cfi_restore 4
 1624              		.cfi_def_cfa_offset 0
 1625              	.LBB183:
 217:AudioSynthesizer.cpp ****         }
 1626              		.loc 1 217 30 view .LVU314
 1627 002a 03FB0200 		mla	r0, r3, r2, r0
 1628              	.LVL81:
 217:AudioSynthesizer.cpp ****         }
 1629              		.loc 1 217 30 view .LVU315
 1630 002e 0830     		adds	r0, r0, #8
 1631              	.LBE183:
 221:AudioSynthesizer.cpp **** 
 1632              		.loc 1 221 1 view .LVU316
 1633 0030 7047     		bx	lr
 1634              		.cfi_endproc
 1635              	.LFE3554:
 1637 0032 00BF     		.section	.text._ZN16AudioSynthesizer15InitializeVoiceEP5Voicehh,"ax",%progbits
 1638              		.align	1
 1639              		.p2align 2,,3
 1640              		.global	_ZN16AudioSynthesizer15InitializeVoiceEP5Voicehh
 1641              		.syntax unified
 1642              		.thumb
 1643              		.thumb_func
 1644              		.fpu fpv5-d16
 1646              	_ZN16AudioSynthesizer15InitializeVoiceEP5Voicehh:
 1647              	.LVL82:
 1648              	.LFB3555:
 223:AudioSynthesizer.cpp ****     // TODO: Implement voice initialization
 1649              		.loc 1 223 86 is_stmt 1 view -0
 1650              		.cfi_startproc
 1651              		@ args = 0, pretend = 0, frame = 0
 1652              		@ frame_needed = 0, uses_anonymous_args = 0
 225:AudioSynthesizer.cpp ****         voice->active = true;
 1653              		.loc 1 225 5 view .LVU318
 1654 0000 21B3     		cbz	r1, .L116
 1655              	.LBB188:
 1656              	.LBB189:
 227:AudioSynthesizer.cpp ****         voice->velocity = velocity;
 1657              		.loc 1 227 21 is_stmt 0 view .LVU319
 1658 0002 81F86D20 		strb	r2, [r1, #109]
 1659              	.LBB190:
 1660              	.LBB191:
 265:AudioSynthesizer.cpp **** }
 1661              		.loc 1 265 42 view .LVU320
 1662 0006 453A     		subs	r2, r2, #69
 1663              	.LVL83:
 265:AudioSynthesizer.cpp **** }
 1664              		.loc 1 265 25 view .LVU321
 1665 0008 F2EE080A 		vmov.f32	s1, #1.2e+1
 1666              	.LBE191:
ARM GAS  C:\Users\Marco\AppData\Local\Temp\ccyPdXhV.s 			page 41


 1667              	.LBE190:
 228:AudioSynthesizer.cpp ****         voice->frequency = GetNoteFrequency(note);
 1668              		.loc 1 228 25 view .LVU322
 1669 000c 81F86E30 		strb	r3, [r1, #110]
 1670              	.LBB196:
 1671              	.LBB192:
 265:AudioSynthesizer.cpp **** }
 1672              		.loc 1 265 25 view .LVU323
 1673 0010 07EE902A 		vmov	s15, r2	@ int
 1674 0014 B0EE000A 		vmov.f32	s0, #2.0e+0
 1675 0018 F8EEE77A 		vcvt.f32.s32	s15, s15
 1676              	.LBE192:
 1677              	.LBE196:
 1678              	.LBE189:
 1679              	.LBE188:
 223:AudioSynthesizer.cpp ****     // TODO: Implement voice initialization
 1680              		.loc 1 223 86 view .LVU324
 1681 001c 70B5     		push	{r4, r5, r6, lr}
 1682              		.cfi_def_cfa_offset 16
 1683              		.cfi_offset 4, -16
 1684              		.cfi_offset 5, -12
 1685              		.cfi_offset 6, -8
 1686              		.cfi_offset 14, -4
 1687              	.LBB202:
 1688              	.LBB200:
 226:AudioSynthesizer.cpp ****         voice->note = note;
 1689              		.loc 1 226 23 view .LVU325
 1690 001e 0126     		movs	r6, #1
 1691              	.LBB197:
 1692              	.LBB193:
 265:AudioSynthesizer.cpp **** }
 1693              		.loc 1 265 25 view .LVU326
 1694 0020 C7EEA00A 		vdiv.f32	s1, s15, s1
 1695 0024 0546     		mov	r5, r0
 1696              	.LVL84:
 265:AudioSynthesizer.cpp **** }
 1697              		.loc 1 265 25 view .LVU327
 1698              	.LBE193:
 1699              	.LBE197:
 1700              	.LBE200:
 1701              	.LBI188:
 223:AudioSynthesizer.cpp ****     // TODO: Implement voice initialization
 1702              		.loc 1 223 6 is_stmt 1 view .LVU328
 1703              	.LBB201:
 226:AudioSynthesizer.cpp ****         voice->note = note;
 1704              		.loc 1 226 9 view .LVU329
 1705 0026 0C46     		mov	r4, r1
 226:AudioSynthesizer.cpp ****         voice->note = note;
 1706              		.loc 1 226 23 is_stmt 0 view .LVU330
 1707 0028 81F86C60 		strb	r6, [r1, #108]
 227:AudioSynthesizer.cpp ****         voice->velocity = velocity;
 1708              		.loc 1 227 9 is_stmt 1 view .LVU331
 228:AudioSynthesizer.cpp ****         voice->frequency = GetNoteFrequency(note);
 1709              		.loc 1 228 9 view .LVU332
 229:AudioSynthesizer.cpp ****         voice->state = VOICE_ATTACK;
 1710              		.loc 1 229 9 view .LVU333
 1711              	.LVL85:
ARM GAS  C:\Users\Marco\AppData\Local\Temp\ccyPdXhV.s 			page 42


 1712              	.LBB198:
 1713              	.LBI190:
 263:AudioSynthesizer.cpp ****     // Standard MIDI note to frequency conversion
 1714              		.loc 1 263 7 view .LVU334
 1715              	.LBB194:
 265:AudioSynthesizer.cpp **** }
 1716              		.loc 1 265 5 view .LVU335
 265:AudioSynthesizer.cpp **** }
 1717              		.loc 1 265 25 is_stmt 0 view .LVU336
 1718 002c FFF7FEFF 		bl	powf
 1719              	.LVL86:
 265:AudioSynthesizer.cpp **** }
 1720              		.loc 1 265 55 view .LVU337
 1721 0030 DFED077A 		vldr.32	s15, .L119
 1722              	.LBE194:
 1723              	.LBE198:
 230:AudioSynthesizer.cpp ****         activeVoiceCount_++;
 1724              		.loc 1 230 22 view .LVU338
 1725 0034 84F87860 		strb	r6, [r4, #120]
 1726              	.LBB199:
 1727              	.LBB195:
 265:AudioSynthesizer.cpp **** }
 1728              		.loc 1 265 55 view .LVU339
 1729 0038 20EE270A 		vmul.f32	s0, s0, s15
 1730              	.LBE195:
 1731              	.LBE199:
 229:AudioSynthesizer.cpp ****         voice->state = VOICE_ATTACK;
 1732              		.loc 1 229 26 view .LVU340
 1733 003c 84ED1C0A 		vstr.32	s0, [r4, #112]
 230:AudioSynthesizer.cpp ****         activeVoiceCount_++;
 1734              		.loc 1 230 9 is_stmt 1 view .LVU341
 231:AudioSynthesizer.cpp ****     }
 1735              		.loc 1 231 9 view .LVU342
 231:AudioSynthesizer.cpp ****     }
 1736              		.loc 1 231 26 is_stmt 0 view .LVU343
 1737 0040 95F8C838 		ldrb	r3, [r5, #2248]	@ zero_extendqisi2
 1738 0044 3344     		add	r3, r3, r6
 1739 0046 85F8C838 		strb	r3, [r5, #2248]
 1740              	.LVL87:
 231:AudioSynthesizer.cpp ****     }
 1741              		.loc 1 231 26 view .LVU344
 1742              	.LBE201:
 1743              	.LBE202:
 233:AudioSynthesizer.cpp **** 
 1744              		.loc 1 233 1 view .LVU345
 1745 004a 70BD     		pop	{r4, r5, r6, pc}
 1746              	.LVL88:
 1747              	.L116:
 1748              		.cfi_def_cfa_offset 0
 1749              		.cfi_restore 4
 1750              		.cfi_restore 5
 1751              		.cfi_restore 6
 1752              		.cfi_restore 14
 233:AudioSynthesizer.cpp **** 
 1753              		.loc 1 233 1 view .LVU346
 1754 004c 7047     		bx	lr
 1755              	.L120:
ARM GAS  C:\Users\Marco\AppData\Local\Temp\ccyPdXhV.s 			page 43


 1756 004e 00BF     		.align	2
 1757              	.L119:
 1758 0050 0000DC43 		.word	1138491392
 1759              		.cfi_endproc
 1760              	.LFE3555:
 1762              		.section	.text._ZN16AudioSynthesizer12ReleaseVoiceEP5Voice,"ax",%progbits
 1763              		.align	1
 1764              		.p2align 2,,3
 1765              		.global	_ZN16AudioSynthesizer12ReleaseVoiceEP5Voice
 1766              		.syntax unified
 1767              		.thumb
 1768              		.thumb_func
 1769              		.fpu fpv5-d16
 1771              	_ZN16AudioSynthesizer12ReleaseVoiceEP5Voice:
 1772              	.LVL89:
 1773              	.LFB3556:
 235:AudioSynthesizer.cpp ****     // TODO: Implement voice release
 1774              		.loc 1 235 51 is_stmt 1 view -0
 1775              		.cfi_startproc
 1776              		@ args = 0, pretend = 0, frame = 0
 1777              		@ frame_needed = 0, uses_anonymous_args = 0
 1778              		@ link register save eliminated.
 237:AudioSynthesizer.cpp ****         voice->state = VOICE_RELEASE;
 1779              		.loc 1 237 5 view .LVU348
 1780 0000 29B1     		cbz	r1, .L121
 237:AudioSynthesizer.cpp ****         voice->state = VOICE_RELEASE;
 1781              		.loc 1 237 26 is_stmt 0 discriminator 1 view .LVU349
 1782 0002 91F86C30 		ldrb	r3, [r1, #108]	@ zero_extendqisi2
 1783 0006 13B1     		cbz	r3, .L121
 238:AudioSynthesizer.cpp ****         // Don't set active = false yet, let the envelope finish
 1784              		.loc 1 238 9 is_stmt 1 view .LVU350
 238:AudioSynthesizer.cpp ****         // Don't set active = false yet, let the envelope finish
 1785              		.loc 1 238 22 is_stmt 0 view .LVU351
 1786 0008 0423     		movs	r3, #4
 1787 000a 81F87830 		strb	r3, [r1, #120]
 1788              	.L121:
 241:AudioSynthesizer.cpp **** 
 1789              		.loc 1 241 1 view .LVU352
 1790 000e 7047     		bx	lr
 1791              		.cfi_endproc
 1792              	.LFE3556:
 1794              		.section	.text._ZN16AudioSynthesizer21UpdateVoiceParametersEP5Voice,"ax",%progbits
 1795              		.align	1
 1796              		.p2align 2,,3
 1797              		.global	_ZN16AudioSynthesizer21UpdateVoiceParametersEP5Voice
 1798              		.syntax unified
 1799              		.thumb
 1800              		.thumb_func
 1801              		.fpu fpv5-d16
 1803              	_ZN16AudioSynthesizer21UpdateVoiceParametersEP5Voice:
 1804              	.LVL90:
 1805              	.LFB3557:
 243:AudioSynthesizer.cpp ****     // TODO: Implement voice parameter updates
 1806              		.loc 1 243 60 is_stmt 1 view -0
 1807              		.cfi_startproc
 1808              		@ args = 0, pretend = 0, frame = 0
 1809              		@ frame_needed = 0, uses_anonymous_args = 0
ARM GAS  C:\Users\Marco\AppData\Local\Temp\ccyPdXhV.s 			page 44


 1810              		@ link register save eliminated.
 245:AudioSynthesizer.cpp **** 
 1811              		.loc 1 245 1 is_stmt 0 view .LVU354
 1812 0000 7047     		bx	lr
 1813              		.cfi_endproc
 1814              	.LFE3557:
 1816 0002 00BF     		.section	.text._ZN16AudioSynthesizer13ProcessVoicesEPfj,"ax",%progbits
 1817              		.align	1
 1818              		.p2align 2,,3
 1819              		.global	_ZN16AudioSynthesizer13ProcessVoicesEPfj
 1820              		.syntax unified
 1821              		.thumb
 1822              		.thumb_func
 1823              		.fpu fpv5-d16
 1825              	_ZN16AudioSynthesizer13ProcessVoicesEPfj:
 1826              	.LVL91:
 1827              	.LFB3558:
 247:AudioSynthesizer.cpp ****     // TODO: Implement voice processing
 1828              		.loc 1 247 66 is_stmt 1 view -0
 1829              		.cfi_startproc
 1830              		@ args = 0, pretend = 0, frame = 0
 1831              		@ frame_needed = 0, uses_anonymous_args = 0
 1832              		@ link register save eliminated.
 249:AudioSynthesizer.cpp **** 
 1833              		.loc 1 249 1 is_stmt 0 view .LVU356
 1834 0000 7047     		bx	lr
 1835              		.cfi_endproc
 1836              	.LFE3558:
 1838 0002 00BF     		.section	.text._ZN16AudioSynthesizer14ProcessEffectsEPfj,"ax",%progbits
 1839              		.align	1
 1840              		.p2align 2,,3
 1841              		.global	_ZN16AudioSynthesizer14ProcessEffectsEPfj
 1842              		.syntax unified
 1843              		.thumb
 1844              		.thumb_func
 1845              		.fpu fpv5-d16
 1847              	_ZN16AudioSynthesizer14ProcessEffectsEPfj:
 1848              	.LFB4150:
 1849              		.cfi_startproc
 1850              		@ args = 0, pretend = 0, frame = 0
 1851              		@ frame_needed = 0, uses_anonymous_args = 0
 1852              		@ link register save eliminated.
 1853 0000 7047     		bx	lr
 1854              		.cfi_endproc
 1855              	.LFE4150:
 1857 0002 00BF     		.section	.text._ZN16AudioSynthesizer19ProcessGlobalFilterEPfj,"ax",%progbits
 1858              		.align	1
 1859              		.p2align 2,,3
 1860              		.global	_ZN16AudioSynthesizer19ProcessGlobalFilterEPfj
 1861              		.syntax unified
 1862              		.thumb
 1863              		.thumb_func
 1864              		.fpu fpv5-d16
 1866              	_ZN16AudioSynthesizer19ProcessGlobalFilterEPfj:
 1867              	.LFB4152:
 1868              		.cfi_startproc
 1869              		@ args = 0, pretend = 0, frame = 0
ARM GAS  C:\Users\Marco\AppData\Local\Temp\ccyPdXhV.s 			page 45


 1870              		@ frame_needed = 0, uses_anonymous_args = 0
 1871              		@ link register save eliminated.
 1872 0000 7047     		bx	lr
 1873              		.cfi_endproc
 1874              	.LFE4152:
 1876 0002 00BF     		.section	.text._ZN16AudioSynthesizer17ApplyMasterVolumeEPfj,"ax",%progbits
 1877              		.align	1
 1878              		.p2align 2,,3
 1879              		.global	_ZN16AudioSynthesizer17ApplyMasterVolumeEPfj
 1880              		.syntax unified
 1881              		.thumb
 1882              		.thumb_func
 1883              		.fpu fpv5-d16
 1885              	_ZN16AudioSynthesizer17ApplyMasterVolumeEPfj:
 1886              	.LFB4154:
 1887              		.cfi_startproc
 1888              		@ args = 0, pretend = 0, frame = 0
 1889              		@ frame_needed = 0, uses_anonymous_args = 0
 1890              		@ link register save eliminated.
 1891 0000 7047     		bx	lr
 1892              		.cfi_endproc
 1893              	.LFE4154:
 1895 0002 00BF     		.section	.text._ZN16AudioSynthesizer16GetNoteFrequencyEh,"ax",%progbits
 1896              		.align	1
 1897              		.p2align 2,,3
 1898              		.global	_ZN16AudioSynthesizer16GetNoteFrequencyEh
 1899              		.syntax unified
 1900              		.thumb
 1901              		.thumb_func
 1902              		.fpu fpv5-d16
 1904              	_ZN16AudioSynthesizer16GetNoteFrequencyEh:
 1905              	.LVL92:
 1906              	.LFB3562:
 263:AudioSynthesizer.cpp ****     // Standard MIDI note to frequency conversion
 1907              		.loc 1 263 60 is_stmt 1 view -0
 1908              		.cfi_startproc
 1909              		@ args = 0, pretend = 0, frame = 0
 1910              		@ frame_needed = 0, uses_anonymous_args = 0
 265:AudioSynthesizer.cpp **** }
 1911              		.loc 1 265 5 view .LVU358
 265:AudioSynthesizer.cpp **** }
 1912              		.loc 1 265 42 is_stmt 0 view .LVU359
 1913 0000 4539     		subs	r1, r1, #69
 1914              	.LVL93:
 265:AudioSynthesizer.cpp **** }
 1915              		.loc 1 265 25 view .LVU360
 1916 0002 F2EE087A 		vmov.f32	s15, #1.2e+1
 1917 0006 B0EE000A 		vmov.f32	s0, #2.0e+0
 1918 000a 07EE101A 		vmov	s14, r1	@ int
 1919 000e F8EEC70A 		vcvt.f32.s32	s1, s14
 263:AudioSynthesizer.cpp ****     // Standard MIDI note to frequency conversion
 1920              		.loc 1 263 60 view .LVU361
 1921 0012 08B5     		push	{r3, lr}
 1922              		.cfi_def_cfa_offset 8
 1923              		.cfi_offset 3, -8
 1924              		.cfi_offset 14, -4
 265:AudioSynthesizer.cpp **** }
ARM GAS  C:\Users\Marco\AppData\Local\Temp\ccyPdXhV.s 			page 46


 1925              		.loc 1 265 25 view .LVU362
 1926 0014 C0EEA70A 		vdiv.f32	s1, s1, s15
 1927 0018 FFF7FEFF 		bl	powf
 1928              	.LVL94:
 265:AudioSynthesizer.cpp **** }
 1929              		.loc 1 265 55 view .LVU363
 1930 001c DFED027A 		vldr.32	s15, .L136
 266:AudioSynthesizer.cpp **** 
 1931              		.loc 1 266 1 view .LVU364
 1932 0020 20EE270A 		vmul.f32	s0, s0, s15
 1933 0024 08BD     		pop	{r3, pc}
 1934              	.L137:
 1935 0026 00BF     		.align	2
 1936              	.L136:
 1937 0028 0000DC43 		.word	1138491392
 1938              		.cfi_endproc
 1939              	.LFE3562:
 1941              		.section	.text._ZN16AudioSynthesizer15MidiToFrequencyEf,"ax",%progbits
 1942              		.align	1
 1943              		.p2align 2,,3
 1944              		.global	_ZN16AudioSynthesizer15MidiToFrequencyEf
 1945              		.syntax unified
 1946              		.thumb
 1947              		.thumb_func
 1948              		.fpu fpv5-d16
 1950              	_ZN16AudioSynthesizer15MidiToFrequencyEf:
 1951              	.LVL95:
 1952              	.LFB3563:
 268:AudioSynthesizer.cpp ****     return 440.0f * powf(2.0f, (midiNote - 69.0f) / 12.0f);
 1953              		.loc 1 268 57 is_stmt 1 view -0
 1954              		.cfi_startproc
 1955              		@ args = 0, pretend = 0, frame = 0
 1956              		@ frame_needed = 0, uses_anonymous_args = 0
 269:AudioSynthesizer.cpp **** }
 1957              		.loc 1 269 5 view .LVU366
 268:AudioSynthesizer.cpp ****     return 440.0f * powf(2.0f, (midiNote - 69.0f) / 12.0f);
 1958              		.loc 1 268 57 is_stmt 0 view .LVU367
 1959 0000 F0EE407A 		vmov.f32	s15, s0
 269:AudioSynthesizer.cpp **** }
 1960              		.loc 1 269 42 view .LVU368
 1961 0004 9FED087A 		vldr.32	s14, .L140
 269:AudioSynthesizer.cpp **** }
 1962              		.loc 1 269 25 view .LVU369
 1963 0008 F2EE080A 		vmov.f32	s1, #1.2e+1
 1964 000c B0EE000A 		vmov.f32	s0, #2.0e+0
 1965              	.LVL96:
 269:AudioSynthesizer.cpp **** }
 1966              		.loc 1 269 42 view .LVU370
 1967 0010 77EEC77A 		vsub.f32	s15, s15, s14
 1968              	.LVL97:
 268:AudioSynthesizer.cpp ****     return 440.0f * powf(2.0f, (midiNote - 69.0f) / 12.0f);
 1969              		.loc 1 268 57 view .LVU371
 1970 0014 08B5     		push	{r3, lr}
 1971              		.cfi_def_cfa_offset 8
 1972              		.cfi_offset 3, -8
 1973              		.cfi_offset 14, -4
 269:AudioSynthesizer.cpp **** }
ARM GAS  C:\Users\Marco\AppData\Local\Temp\ccyPdXhV.s 			page 47


 1974              		.loc 1 269 25 view .LVU372
 1975 0016 C7EEA00A 		vdiv.f32	s1, s15, s1
 1976 001a FFF7FEFF 		bl	powf
 1977              	.LVL98:
 269:AudioSynthesizer.cpp **** }
 1978              		.loc 1 269 58 view .LVU373
 1979 001e DFED037A 		vldr.32	s15, .L140+4
 270:AudioSynthesizer.cpp **** 
 1980              		.loc 1 270 1 view .LVU374
 1981 0022 20EE270A 		vmul.f32	s0, s0, s15
 1982 0026 08BD     		pop	{r3, pc}
 1983              	.L141:
 1984              		.align	2
 1985              	.L140:
 1986 0028 00008A42 		.word	1116340224
 1987 002c 0000DC43 		.word	1138491392
 1988              		.cfi_endproc
 1989              	.LFE3563:
 1991              		.section	.text._ZN16AudioSynthesizer16SemitonesToRatioEf,"ax",%progbits
 1992              		.align	1
 1993              		.p2align 2,,3
 1994              		.global	_ZN16AudioSynthesizer16SemitonesToRatioEf
 1995              		.syntax unified
 1996              		.thumb
 1997              		.thumb_func
 1998              		.fpu fpv5-d16
 2000              	_ZN16AudioSynthesizer16SemitonesToRatioEf:
 2001              	.LVL99:
 2002              	.LFB3564:
 272:AudioSynthesizer.cpp ****     return powf(2.0f, semitones / 12.0f);
 2003              		.loc 1 272 59 is_stmt 1 view -0
 2004              		.cfi_startproc
 2005              		@ args = 0, pretend = 0, frame = 0
 2006              		@ frame_needed = 0, uses_anonymous_args = 0
 2007              		@ link register save eliminated.
 273:AudioSynthesizer.cpp **** }
 2008              		.loc 1 273 5 view .LVU376
 272:AudioSynthesizer.cpp ****     return powf(2.0f, semitones / 12.0f);
 2009              		.loc 1 272 59 is_stmt 0 view .LVU377
 2010 0000 F0EE400A 		vmov.f32	s1, s0
 273:AudioSynthesizer.cpp **** }
 2011              		.loc 1 273 16 view .LVU378
 2012 0004 F2EE087A 		vmov.f32	s15, #1.2e+1
 2013 0008 B0EE000A 		vmov.f32	s0, #2.0e+0
 2014              	.LVL100:
 273:AudioSynthesizer.cpp **** }
 2015              		.loc 1 273 16 view .LVU379
 2016 000c C0EEA70A 		vdiv.f32	s1, s1, s15
 2017              	.LVL101:
 273:AudioSynthesizer.cpp **** }
 2018              		.loc 1 273 16 view .LVU380
 2019 0010 FFF7FEBF 		b	powf
 2020              	.LVL102:
 273:AudioSynthesizer.cpp **** }
 2021              		.loc 1 273 16 view .LVU381
 2022              		.cfi_endproc
 2023              	.LFE3564:
ARM GAS  C:\Users\Marco\AppData\Local\Temp\ccyPdXhV.s 			page 48


 2025              		.section	.text._ZN16AudioSynthesizer16UpdateModulationEv,"ax",%progbits
 2026              		.align	1
 2027              		.p2align 2,,3
 2028              		.global	_ZN16AudioSynthesizer16UpdateModulationEv
 2029              		.syntax unified
 2030              		.thumb
 2031              		.thumb_func
 2032              		.fpu fpv5-d16
 2034              	_ZN16AudioSynthesizer16UpdateModulationEv:
 2035              	.LFB4138:
 2036              		.cfi_startproc
 2037              		@ args = 0, pretend = 0, frame = 0
 2038              		@ frame_needed = 0, uses_anonymous_args = 0
 2039              		@ link register save eliminated.
 2040 0000 7047     		bx	lr
 2041              		.cfi_endproc
 2042              	.LFE4138:
 2044 0002 00BF     		.section	.text._ZN16AudioSynthesizer15GetVibratoValueEv,"ax",%progbits
 2045              		.align	1
 2046              		.p2align 2,,3
 2047              		.global	_ZN16AudioSynthesizer15GetVibratoValueEv
 2048              		.syntax unified
 2049              		.thumb
 2050              		.thumb_func
 2051              		.fpu fpv5-d16
 2053              	_ZN16AudioSynthesizer15GetVibratoValueEv:
 2054              	.LFB4146:
 2055              		.cfi_startproc
 2056              		@ args = 0, pretend = 0, frame = 0
 2057              		@ frame_needed = 0, uses_anonymous_args = 0
 2058              		@ link register save eliminated.
 2059 0000 9FED010A 		vldr.32	s0, .L145
 2060 0004 7047     		bx	lr
 2061              	.L146:
 2062 0006 00BF     		.align	2
 2063              	.L145:
 2064 0008 00000000 		.word	0
 2065              		.cfi_endproc
 2066              	.LFE4146:
 2068              		.section	.text._ZN16AudioSynthesizer11GetLFOValueEv,"ax",%progbits
 2069              		.align	1
 2070              		.p2align 2,,3
 2071              		.global	_ZN16AudioSynthesizer11GetLFOValueEv
 2072              		.syntax unified
 2073              		.thumb
 2074              		.thumb_func
 2075              		.fpu fpv5-d16
 2077              	_ZN16AudioSynthesizer11GetLFOValueEv:
 2078              	.LFB4148:
 2079              		.cfi_startproc
 2080              		@ args = 0, pretend = 0, frame = 0
 2081              		@ frame_needed = 0, uses_anonymous_args = 0
 2082              		@ link register save eliminated.
 2083 0000 9FED010A 		vldr.32	s0, .L148
 2084 0004 7047     		bx	lr
 2085              	.L149:
 2086 0006 00BF     		.align	2
ARM GAS  C:\Users\Marco\AppData\Local\Temp\ccyPdXhV.s 			page 49


 2087              	.L148:
 2088 0008 00000000 		.word	0
 2089              		.cfi_endproc
 2090              	.LFE4148:
 2092              		.section	.text._ZN16AudioSynthesizer11ClearBufferEPfj,"ax",%progbits
 2093              		.align	1
 2094              		.p2align 2,,3
 2095              		.global	_ZN16AudioSynthesizer11ClearBufferEPfj
 2096              		.syntax unified
 2097              		.thumb
 2098              		.thumb_func
 2099              		.fpu fpv5-d16
 2101              	_ZN16AudioSynthesizer11ClearBufferEPfj:
 2102              	.LVL103:
 2103              	.LFB3568:
 290:AudioSynthesizer.cpp ****     for (size_t i = 0; i < size; i++) {
 2104              		.loc 1 290 64 is_stmt 1 view -0
 2105              		.cfi_startproc
 2106              		@ args = 0, pretend = 0, frame = 0
 2107              		@ frame_needed = 0, uses_anonymous_args = 0
 2108              		@ link register save eliminated.
 291:AudioSynthesizer.cpp ****         buffer[i] = 0.0f;
 2109              		.loc 1 291 5 view .LVU383
 2110              	.LBB203:
 291:AudioSynthesizer.cpp ****         buffer[i] = 0.0f;
 2111              		.loc 1 291 26 view .LVU384
 2112              	.LBE203:
 290:AudioSynthesizer.cpp ****     for (size_t i = 0; i < size; i++) {
 2113              		.loc 1 290 64 is_stmt 0 view .LVU385
 2114 0000 0846     		mov	r0, r1
 2115              	.LVL104:
 2116              	.LBB204:
 291:AudioSynthesizer.cpp ****         buffer[i] = 0.0f;
 2117              		.loc 1 291 26 view .LVU386
 2118 0002 1AB1     		cbz	r2, .L150
 2119              		.loc 1 292 19 view .LVU387
 2120 0004 9200     		lsls	r2, r2, #2
 2121              	.LVL105:
 2122              		.loc 1 292 19 view .LVU388
 2123 0006 0021     		movs	r1, #0
 2124              	.LVL106:
 2125              		.loc 1 292 19 view .LVU389
 2126 0008 FFF7FEBF 		b	memset
 2127              	.LVL107:
 2128              	.L150:
 2129              		.loc 1 292 19 view .LVU390
 2130              	.LBE204:
 293:AudioSynthesizer.cpp ****     }
 294:AudioSynthesizer.cpp **** }
 2131              		.loc 1 294 1 view .LVU391
 2132 000c 7047     		bx	lr
 2133              		.cfi_endproc
 2134              	.LFE3568:
 2136 000e 00BF     		.section	.text._ZN16AudioSynthesizer10MixBuffersEPfPKfjf,"ax",%progbits
 2137              		.align	1
 2138              		.p2align 2,,3
 2139              		.global	_ZN16AudioSynthesizer10MixBuffersEPfPKfjf
ARM GAS  C:\Users\Marco\AppData\Local\Temp\ccyPdXhV.s 			page 50


 2140              		.syntax unified
 2141              		.thumb
 2142              		.thumb_func
 2143              		.fpu fpv5-d16
 2145              	_ZN16AudioSynthesizer10MixBuffersEPfPKfjf:
 2146              	.LVL108:
 2147              	.LFB3569:
 295:AudioSynthesizer.cpp **** 
 296:AudioSynthesizer.cpp **** void AudioSynthesizer::MixBuffers(float* dest, const float* src, size_t size, float gain) {
 2148              		.loc 1 296 91 is_stmt 1 view -0
 2149              		.cfi_startproc
 2150              		@ args = 0, pretend = 0, frame = 0
 2151              		@ frame_needed = 0, uses_anonymous_args = 0
 2152              		@ link register save eliminated.
 297:AudioSynthesizer.cpp ****     for (size_t i = 0; i < size; i++) {
 2153              		.loc 1 297 5 view .LVU393
 2154              	.LBB205:
 2155              		.loc 1 297 26 view .LVU394
 2156 0000 5BB1     		cbz	r3, .L152
 2157 0002 01EB8303 		add	r3, r1, r3, lsl #2
 2158              	.LVL109:
 2159              	.L154:
 298:AudioSynthesizer.cpp ****         dest[i] += src[i] * gain;
 2160              		.loc 1 298 9 discriminator 2 view .LVU395
 2161              		.loc 1 298 17 is_stmt 0 discriminator 2 view .LVU396
 2162 0006 D1ED007A 		vldr.32	s15, [r1]
 2163              		.loc 1 298 25 discriminator 2 view .LVU397
 2164 000a B2EC017A 		vldmia.32	r2!, {s14}
 2165              		.loc 1 298 17 discriminator 2 view .LVU398
 2166 000e E7EE007A 		vfma.f32	s15, s14, s0
 2167 0012 E1EC017A 		vstmia.32	r1!, {s15}
 297:AudioSynthesizer.cpp ****     for (size_t i = 0; i < size; i++) {
 2168              		.loc 1 297 5 is_stmt 1 discriminator 2 view .LVU399
 297:AudioSynthesizer.cpp ****     for (size_t i = 0; i < size; i++) {
 2169              		.loc 1 297 26 discriminator 2 view .LVU400
 2170 0016 9942     		cmp	r1, r3
 2171 0018 F5D1     		bne	.L154
 2172              	.L152:
 297:AudioSynthesizer.cpp ****     for (size_t i = 0; i < size; i++) {
 2173              		.loc 1 297 26 is_stmt 0 discriminator 2 view .LVU401
 2174              	.LBE205:
 299:AudioSynthesizer.cpp ****     }
 300:AudioSynthesizer.cpp **** }
 2175              		.loc 1 300 1 view .LVU402
 2176 001a 7047     		bx	lr
 2177              		.cfi_endproc
 2178              	.LFE3569:
 2180              		.section	.text._ZN16AudioSynthesizer10ClampValueEfff,"ax",%progbits
 2181              		.align	1
 2182              		.p2align 2,,3
 2183              		.global	_ZN16AudioSynthesizer10ClampValueEfff
 2184              		.syntax unified
 2185              		.thumb
 2186              		.thumb_func
 2187              		.fpu fpv5-d16
 2189              	_ZN16AudioSynthesizer10ClampValueEfff:
 2190              	.LVL110:
ARM GAS  C:\Users\Marco\AppData\Local\Temp\ccyPdXhV.s 			page 51


 2191              	.LFB3570:
 301:AudioSynthesizer.cpp **** 
 302:AudioSynthesizer.cpp **** float AudioSynthesizer::ClampValue(float value, float min, float max) {
 2192              		.loc 1 302 71 is_stmt 1 view -0
 2193              		.cfi_startproc
 2194              		@ args = 0, pretend = 0, frame = 0
 2195              		@ frame_needed = 0, uses_anonymous_args = 0
 2196              		@ link register save eliminated.
 303:AudioSynthesizer.cpp ****     if (value < min) return min;
 2197              		.loc 1 303 5 view .LVU404
 2198 0000 B4EEE00A 		vcmpe.f32	s0, s1
 2199 0004 F1EE10FA 		vmrs	APSR_nzcv, FPSCR
 2200 0008 06D4     		bmi	.L162
 304:AudioSynthesizer.cpp ****     if (value > max) return max;
 2201              		.loc 1 304 5 view .LVU405
 305:AudioSynthesizer.cpp ****     return value;
 2202              		.loc 1 305 12 is_stmt 0 view .LVU406
 2203 000a B4EEC10A 		vcmpe.f32	s0, s2
 2204 000e F1EE10FA 		vmrs	APSR_nzcv, FPSCR
 2205 0012 31FE000A 		vselgt.f32	s0, s2, s0
 2206              	.LVL111:
 2207              		.loc 1 305 12 view .LVU407
 2208 0016 7047     		bx	lr
 2209              	.LVL112:
 2210              	.L162:
 303:AudioSynthesizer.cpp ****     if (value < min) return min;
 2211              		.loc 1 303 29 view .LVU408
 2212 0018 B0EE600A 		vmov.f32	s0, s1
 2213              	.LVL113:
 306:AudioSynthesizer.cpp **** }
 2214              		.loc 1 306 1 view .LVU409
 2215 001c 7047     		bx	lr
 2216              		.cfi_endproc
 2217              	.LFE3570:
 2219 001e 00BF     		.section	.text._ZN16AudioSynthesizer19ApplyConfigToVoicesEv,"ax",%progbits
 2220              		.align	1
 2221              		.p2align 2,,3
 2222              		.global	_ZN16AudioSynthesizer19ApplyConfigToVoicesEv
 2223              		.syntax unified
 2224              		.thumb
 2225              		.thumb_func
 2226              		.fpu fpv5-d16
 2228              	_ZN16AudioSynthesizer19ApplyConfigToVoicesEv:
 2229              	.LFB4140:
 2230              		.cfi_startproc
 2231              		@ args = 0, pretend = 0, frame = 0
 2232              		@ frame_needed = 0, uses_anonymous_args = 0
 2233              		@ link register save eliminated.
 2234 0000 7047     		bx	lr
 2235              		.cfi_endproc
 2236              	.LFE4140:
 2238 0002 00BF     		.section	.text._ZN16AudioSynthesizer22UpdateEnvelopeSettingsEv,"ax",%progbits
 2239              		.align	1
 2240              		.p2align 2,,3
 2241              		.global	_ZN16AudioSynthesizer22UpdateEnvelopeSettingsEv
 2242              		.syntax unified
 2243              		.thumb
ARM GAS  C:\Users\Marco\AppData\Local\Temp\ccyPdXhV.s 			page 52


 2244              		.thumb_func
 2245              		.fpu fpv5-d16
 2247              	_ZN16AudioSynthesizer22UpdateEnvelopeSettingsEv:
 2248              	.LFB4142:
 2249              		.cfi_startproc
 2250              		@ args = 0, pretend = 0, frame = 0
 2251              		@ frame_needed = 0, uses_anonymous_args = 0
 2252              		@ link register save eliminated.
 2253 0000 7047     		bx	lr
 2254              		.cfi_endproc
 2255              	.LFE4142:
 2257 0002 00BF     		.section	.text._ZN16AudioSynthesizer20UpdateEffectSettingsEv,"ax",%progbits
 2258              		.align	1
 2259              		.p2align 2,,3
 2260              		.global	_ZN16AudioSynthesizer20UpdateEffectSettingsEv
 2261              		.syntax unified
 2262              		.thumb
 2263              		.thumb_func
 2264              		.fpu fpv5-d16
 2266              	_ZN16AudioSynthesizer20UpdateEffectSettingsEv:
 2267              	.LFB4144:
 2268              		.cfi_startproc
 2269              		@ args = 0, pretend = 0, frame = 0
 2270              		@ frame_needed = 0, uses_anonymous_args = 0
 2271              		@ link register save eliminated.
 2272 0000 7047     		bx	lr
 2273              		.cfi_endproc
 2274              	.LFE4144:
 2276 0002 00BF     		.text
 2277              	.Letext0:
 2278              		.file 7 "c:\\program files\\daisytoolchain\\arm-none-eabi\\include\\machine\\_default_types.h"
 2279              		.file 8 "c:\\program files\\daisytoolchain\\arm-none-eabi\\include\\sys\\_stdint.h"
 2280              		.file 9 "c:\\program files\\daisytoolchain\\arm-none-eabi\\include\\stdint.h"
 2281              		.file 10 "c:\\program files\\daisytoolchain\\lib\\gcc\\arm-none-eabi\\10.2.1\\include\\stddef.h"
 2282              		.file 11 "c:\\program files\\daisytoolchain\\arm-none-eabi\\include\\c++\\10.2.1\\cmath"
 2283              		.file 12 "c:\\program files\\daisytoolchain\\arm-none-eabi\\include\\c++\\10.2.1\\bits\\std_abs.h"
 2284              		.file 13 "c:\\program files\\daisytoolchain\\arm-none-eabi\\include\\c++\\10.2.1\\cstdint"
 2285              		.file 14 "c:\\program files\\daisytoolchain\\arm-none-eabi\\include\\c++\\10.2.1\\cstdlib"
 2286              		.file 15 "c:\\program files\\daisytoolchain\\arm-none-eabi\\include\\c++\\10.2.1\\type_traits"
 2287              		.file 16 "c:\\program files\\daisytoolchain\\arm-none-eabi\\include\\c++\\10.2.1\\debug\\debug.h"
 2288              		.file 17 "c:\\program files\\daisytoolchain\\arm-none-eabi\\include\\c++\\10.2.1\\cwchar"
 2289              		.file 18 "c:\\program files\\daisytoolchain\\arm-none-eabi\\include\\c++\\10.2.1\\bits\\stl_pair.h
 2290              		.file 19 "c:\\program files\\daisytoolchain\\arm-none-eabi\\include\\c++\\10.2.1\\bits\\exception_
 2291              		.file 20 "c:\\program files\\daisytoolchain\\arm-none-eabi\\include\\c++\\10.2.1\\arm-none-eabi\\t
 2292              		.file 21 "c:\\program files\\daisytoolchain\\arm-none-eabi\\include\\c++\\10.2.1\\clocale"
 2293              		.file 22 "c:\\program files\\daisytoolchain\\arm-none-eabi\\include\\c++\\10.2.1\\cstdio"
 2294              		.file 23 "c:\\program files\\daisytoolchain\\arm-none-eabi\\include\\c++\\10.2.1\\bits\\basic_stri
 2295              		.file 24 "c:\\program files\\daisytoolchain\\arm-none-eabi\\include\\c++\\10.2.1\\bits\\charconv.h
 2296              		.file 25 "c:\\program files\\daisytoolchain\\arm-none-eabi\\include\\c++\\10.2.1\\bits\\algorithmf
 2297              		.file 26 "c:\\program files\\daisytoolchain\\arm-none-eabi\\include\\c++\\10.2.1\\cstring"
 2298              		.file 27 "c:\\program files\\daisytoolchain\\arm-none-eabi\\include\\c++\\10.2.1\\bits\\predefined
 2299              		.file 28 "c:\\program files\\daisytoolchain\\arm-none-eabi\\include\\sys\\_types.h"
 2300              		.file 29 "c:\\program files\\daisytoolchain\\arm-none-eabi\\include\\sys\\reent.h"
 2301              		.file 30 "c:\\program files\\daisytoolchain\\arm-none-eabi\\include\\sys\\lock.h"
 2302              		.file 31 "c:\\program files\\daisytoolchain\\arm-none-eabi\\include\\math.h"
 2303              		.file 32 "c:\\program files\\daisytoolchain\\arm-none-eabi\\include\\stdlib.h"
 2304              		.file 33 "c:\\program files\\daisytoolchain\\arm-none-eabi\\include\\c++\\10.2.1\\math.h"
ARM GAS  C:\Users\Marco\AppData\Local\Temp\ccyPdXhV.s 			page 53


 2305              		.file 34 "../DaisyExamples/DaisySP/Source/Control/adenv.h"
 2306              		.file 35 "../DaisyExamples/DaisySP/Source/Utility/dsp.h"
 2307              		.file 36 "c:\\program files\\daisytoolchain\\lib\\gcc\\arm-none-eabi\\10.2.1\\include\\stdarg.h"
 2308              		.file 37 "c:\\program files\\daisytoolchain\\arm-none-eabi\\include\\wchar.h"
 2309              		.file 38 "c:\\program files\\daisytoolchain\\arm-none-eabi\\include\\locale.h"
 2310              		.file 39 "c:\\program files\\daisytoolchain\\arm-none-eabi\\include\\stdio.h"
 2311              		.file 40 "c:\\program files\\daisytoolchain\\arm-none-eabi\\include\\c++\\10.2.1\\stdlib.h"
 2312              		.file 41 "c:\\program files\\daisytoolchain\\arm-none-eabi\\include\\string.h"
 2313              		.file 42 "ConfigManager.h"
 2314              		.file 43 "<built-in>"
ARM GAS  C:\Users\Marco\AppData\Local\Temp\ccyPdXhV.s 			page 54

