ARM GAS  C:\Users\Marco\AppData\Local\Temp\ccVZoccs.s 			page 1


   1              		.cpu cortex-m7
   2              		.eabi_attribute 28, 1
   3              		.eabi_attribute 20, 1
   4              		.eabi_attribute 21, 1
   5              		.eabi_attribute 23, 3
   6              		.eabi_attribute 24, 1
   7              		.eabi_attribute 25, 1
   8              		.eabi_attribute 26, 1
   9              		.eabi_attribute 30, 2
  10              		.eabi_attribute 34, 1
  11              		.eabi_attribute 18, 4
  12              		.file	"MidiController.cpp"
  13              		.text
  14              	.Ltext0:
  15              		.cfi_sections	.debug_frame
  16              		.section	.text._ZN14MidiController15SendMidiMessageEhh.part.0,"ax",%progbits
  17              		.align	1
  18              		.p2align 2,,3
  19              		.arch armv7e-m
  20              		.syntax unified
  21              		.thumb
  22              		.thumb_func
  23              		.fpu fpv5-d16
  25              	_ZN14MidiController15SendMidiMessageEhh.part.0:
  26              	.LVL0:
  27              	.LFB2681:
  28              		.file 1 "MidiController.cpp"
   1:MidiController.cpp **** #include "MidiController.h"
   2:MidiController.cpp **** 
   3:MidiController.cpp **** // Constructor
   4:MidiController.cpp **** MidiController::MidiController() 
   5:MidiController.cpp ****     : hardware_(nullptr), config_(nullptr), midiChannel_(1), 
   6:MidiController.cpp ****       outputMode_(MIDI_USB_ONLY), enabled_(true), usbConnected_(false), 
   7:MidiController.cpp ****       uartConnected_(false), queueHead_(0), queueTail_(0), queueCount_(0),
   8:MidiController.cpp ****       messagesSent_(0), lastActivityTime_(0), runningStatus_(0), 
   9:MidiController.cpp ****       activeNoteCount_(0), lastClockTime_(0), clockDivision_(24), 
  10:MidiController.cpp ****       clockRunning_(false) {
  11:MidiController.cpp ****     
  12:MidiController.cpp ****     // Initialize active notes array
  13:MidiController.cpp ****     for (int i = 0; i < 128; i++) {
  14:MidiController.cpp ****         activeNotes_[i] = false;
  15:MidiController.cpp ****     }
  16:MidiController.cpp **** }
  17:MidiController.cpp **** 
  18:MidiController.cpp **** // Destructor
  19:MidiController.cpp **** MidiController::~MidiController() {
  20:MidiController.cpp ****     // Destructor body - will be implemented later
  21:MidiController.cpp **** }
  22:MidiController.cpp **** 
  23:MidiController.cpp **** // Initialization
  24:MidiController.cpp **** void MidiController::Init(daisy::DaisySeed* hw, ConfigManager* config) {
  25:MidiController.cpp ****     hardware_ = hw;
  26:MidiController.cpp ****     config_ = config;
  27:MidiController.cpp ****     
  28:MidiController.cpp ****     // Get MIDI channel from config
  29:MidiController.cpp ****     if (config_) {
  30:MidiController.cpp ****         midiChannel_ = config_->GetMidiChannel();
ARM GAS  C:\Users\Marco\AppData\Local\Temp\ccVZoccs.s 			page 2


  31:MidiController.cpp ****     }
  32:MidiController.cpp ****     
  33:MidiController.cpp ****     // Initialize MIDI interfaces based on output mode
  34:MidiController.cpp ****     InitializeUSB();
  35:MidiController.cpp ****     InitializeUART();
  36:MidiController.cpp ****     
  37:MidiController.cpp ****     // Reset message statistics
  38:MidiController.cpp ****     messagesSent_ = 0;
  39:MidiController.cpp ****     lastActivityTime_ = daisy::System::GetNow();
  40:MidiController.cpp **** }
  41:MidiController.cpp **** 
  42:MidiController.cpp **** // Main update function
  43:MidiController.cpp **** void MidiController::Update() {
  44:MidiController.cpp ****     // Update connection status
  45:MidiController.cpp ****     CheckUSBConnection();
  46:MidiController.cpp ****     CheckUARTConnection();
  47:MidiController.cpp ****     
  48:MidiController.cpp ****     // Process any pending messages in the queue
  49:MidiController.cpp ****     ProcessMessageQueue();
  50:MidiController.cpp ****     
  51:MidiController.cpp ****     // Update timestamp
  52:MidiController.cpp ****     lastActivityTime_ = daisy::System::GetNow();
  53:MidiController.cpp **** }
  54:MidiController.cpp **** 
  55:MidiController.cpp **** // Note messages
  56:MidiController.cpp **** void MidiController::SendNoteOn(uint8_t note, uint8_t velocity) {
  57:MidiController.cpp ****     if (!enabled_ || !IsValidNote(note) || !IsValidVelocity(velocity)) {
  58:MidiController.cpp ****         return;
  59:MidiController.cpp ****     }
  60:MidiController.cpp ****     
  61:MidiController.cpp ****     uint8_t status = CreateStatusByte(MIDI_NOTE_ON, midiChannel_);
  62:MidiController.cpp ****     QueueMessage(status, note, velocity);
  63:MidiController.cpp ****     TrackNoteOn(note);
  64:MidiController.cpp **** }
  65:MidiController.cpp **** 
  66:MidiController.cpp **** void MidiController::SendNoteOff(uint8_t note) {
  67:MidiController.cpp ****     SendNoteOff(note, 64); // Default velocity
  68:MidiController.cpp **** }
  69:MidiController.cpp **** 
  70:MidiController.cpp **** void MidiController::SendNoteOff(uint8_t note, uint8_t velocity) {
  71:MidiController.cpp ****     if (!enabled_ || !IsValidNote(note) || !IsValidVelocity(velocity)) {
  72:MidiController.cpp ****         return;
  73:MidiController.cpp ****     }
  74:MidiController.cpp ****     
  75:MidiController.cpp ****     uint8_t status = CreateStatusByte(MIDI_NOTE_OFF, midiChannel_);
  76:MidiController.cpp ****     QueueMessage(status, note, velocity);
  77:MidiController.cpp ****     TrackNoteOff(note);
  78:MidiController.cpp **** }
  79:MidiController.cpp **** 
  80:MidiController.cpp **** void MidiController::SendAllNotesOff() {
  81:MidiController.cpp ****     // Send MIDI CC All Notes Off
  82:MidiController.cpp ****     SendControlChange(MIDI_CC_ALL_NOTES_OFF, 0);
  83:MidiController.cpp ****     
  84:MidiController.cpp ****     // Also send individual note offs for tracked notes
  85:MidiController.cpp ****     for (int i = 0; i < 128; i++) {
  86:MidiController.cpp ****         if (activeNotes_[i]) {
  87:MidiController.cpp ****             SendNoteOff(i);
ARM GAS  C:\Users\Marco\AppData\Local\Temp\ccVZoccs.s 			page 3


  88:MidiController.cpp ****         }
  89:MidiController.cpp ****     }
  90:MidiController.cpp **** }
  91:MidiController.cpp **** 
  92:MidiController.cpp **** // Control messages
  93:MidiController.cpp **** void MidiController::SendControlChange(uint8_t controller, uint8_t value) {
  94:MidiController.cpp ****     if (!enabled_ || !IsValidController(controller)) {
  95:MidiController.cpp ****         return;
  96:MidiController.cpp ****     }
  97:MidiController.cpp ****     
  98:MidiController.cpp ****     uint8_t status = CreateStatusByte(MIDI_CONTROL_CHANGE, midiChannel_);
  99:MidiController.cpp ****     QueueMessage(status, controller, value);
 100:MidiController.cpp **** }
 101:MidiController.cpp **** 
 102:MidiController.cpp **** void MidiController::SendProgramChange(uint8_t program) {
 103:MidiController.cpp ****     if (!enabled_ || program > 127) {
 104:MidiController.cpp ****         return;
 105:MidiController.cpp ****     }
 106:MidiController.cpp ****     
 107:MidiController.cpp ****     uint8_t status = CreateStatusByte(MIDI_PROGRAM_CHANGE, midiChannel_);
 108:MidiController.cpp ****     QueueMessage(status, program);
 109:MidiController.cpp **** }
 110:MidiController.cpp **** 
 111:MidiController.cpp **** void MidiController::SendPitchBend(uint16_t value) {
 112:MidiController.cpp ****     if (!enabled_) {
 113:MidiController.cpp ****         return;
 114:MidiController.cpp ****     }
 115:MidiController.cpp ****     
 116:MidiController.cpp ****     uint8_t status = CreateStatusByte(MIDI_PITCH_BEND, midiChannel_);
 117:MidiController.cpp ****     uint8_t lsb = value & 0x7F;
 118:MidiController.cpp ****     uint8_t msb = (value >> 7) & 0x7F;
 119:MidiController.cpp ****     QueueMessage(status, lsb, msb);
 120:MidiController.cpp **** }
 121:MidiController.cpp **** 
 122:MidiController.cpp **** void MidiController::SendChannelPressure(uint8_t pressure) {
 123:MidiController.cpp ****     if (!enabled_ || pressure > 127) {
 124:MidiController.cpp ****         return;
 125:MidiController.cpp ****     }
 126:MidiController.cpp ****     
 127:MidiController.cpp ****     uint8_t status = CreateStatusByte(MIDI_CHANNEL_PRESSURE, midiChannel_);
 128:MidiController.cpp ****     QueueMessage(status, pressure);
 129:MidiController.cpp **** }
 130:MidiController.cpp **** 
 131:MidiController.cpp **** void MidiController::SendPolyPressure(uint8_t note, uint8_t pressure) {
 132:MidiController.cpp ****     if (!enabled_ || !IsValidNote(note) || pressure > 127) {
 133:MidiController.cpp ****         return;
 134:MidiController.cpp ****     }
 135:MidiController.cpp ****     
 136:MidiController.cpp ****     uint8_t status = CreateStatusByte(MIDI_POLY_PRESSURE, midiChannel_);
 137:MidiController.cpp ****     QueueMessage(status, note, pressure);
 138:MidiController.cpp **** }
 139:MidiController.cpp **** 
 140:MidiController.cpp **** // Configuration
 141:MidiController.cpp **** void MidiController::SetChannel(uint8_t channel) {
 142:MidiController.cpp ****     if (IsValidChannel(channel)) {
 143:MidiController.cpp ****         midiChannel_ = channel;
 144:MidiController.cpp ****     }
ARM GAS  C:\Users\Marco\AppData\Local\Temp\ccVZoccs.s 			page 4


 145:MidiController.cpp **** }
 146:MidiController.cpp **** 
 147:MidiController.cpp **** void MidiController::SetOutputMode(MidiOutputMode mode) {
 148:MidiController.cpp ****     outputMode_ = mode;
 149:MidiController.cpp **** }
 150:MidiController.cpp **** 
 151:MidiController.cpp **** void MidiController::SetEnabled(bool enabled) {
 152:MidiController.cpp ****     enabled_ = enabled;
 153:MidiController.cpp **** }
 154:MidiController.cpp **** 
 155:MidiController.cpp **** // Queue management
 156:MidiController.cpp **** bool MidiController::HasPendingMessages() {
 157:MidiController.cpp ****     return queueCount_ > 0;
 158:MidiController.cpp **** }
 159:MidiController.cpp **** 
 160:MidiController.cpp **** void MidiController::FlushMessageQueue() {
 161:MidiController.cpp ****     // Process all pending messages immediately
 162:MidiController.cpp ****     ProcessMessageQueue();
 163:MidiController.cpp **** }
 164:MidiController.cpp **** 
 165:MidiController.cpp **** void MidiController::ClearMessageQueue() {
 166:MidiController.cpp ****     queueHead_ = 0;
 167:MidiController.cpp ****     queueTail_ = 0;
 168:MidiController.cpp ****     queueCount_ = 0;
 169:MidiController.cpp **** }
 170:MidiController.cpp **** 
 171:MidiController.cpp **** // Status and diagnostics
 172:MidiController.cpp **** uint8_t MidiController::GetCurrentChannel() {
 173:MidiController.cpp ****     return midiChannel_;
 174:MidiController.cpp **** }
 175:MidiController.cpp **** 
 176:MidiController.cpp **** MidiOutputMode MidiController::GetOutputMode() {
 177:MidiController.cpp ****     return outputMode_;
 178:MidiController.cpp **** }
 179:MidiController.cpp **** 
 180:MidiController.cpp **** bool MidiController::IsEnabled() {
 181:MidiController.cpp ****     return enabled_;
 182:MidiController.cpp **** }
 183:MidiController.cpp **** 
 184:MidiController.cpp **** uint32_t MidiController::GetMessagesSent() {
 185:MidiController.cpp ****     return messagesSent_;
 186:MidiController.cpp **** }
 187:MidiController.cpp **** 
 188:MidiController.cpp **** uint32_t MidiController::GetLastActivityTime() {
 189:MidiController.cpp ****     return lastActivityTime_;
 190:MidiController.cpp **** }
 191:MidiController.cpp **** 
 192:MidiController.cpp **** bool MidiController::SelfTest() {
 193:MidiController.cpp ****     // Perform basic self-test
 194:MidiController.cpp ****     bool usbOk = true;
 195:MidiController.cpp ****     bool uartOk = true;
 196:MidiController.cpp ****     
 197:MidiController.cpp ****     // Test queue functionality
 198:MidiController.cpp ****     bool queueOk = (queueCount_ <= MESSAGE_QUEUE_SIZE);
 199:MidiController.cpp ****     
 200:MidiController.cpp ****     // Test MIDI channel validity
 201:MidiController.cpp ****     bool channelOk = IsValidChannel(midiChannel_);
ARM GAS  C:\Users\Marco\AppData\Local\Temp\ccVZoccs.s 			page 5


 202:MidiController.cpp ****     
 203:MidiController.cpp ****     return usbOk && uartOk && queueOk && channelOk;
 204:MidiController.cpp **** }
 205:MidiController.cpp **** 
 206:MidiController.cpp **** // Advanced features
 207:MidiController.cpp **** void MidiController::SendSysEx(uint8_t* data, size_t length) {
 208:MidiController.cpp ****     if (!enabled_ || length < 1) return;
 209:MidiController.cpp ****     
 210:MidiController.cpp ****     // SysEx messages start with 0xF0 and end with 0xF7
 211:MidiController.cpp ****     uint8_t* sysexMsg = new uint8_t[length + 2];
 212:MidiController.cpp ****     sysexMsg[0] = 0xF0; // SysEx start
 213:MidiController.cpp ****     for (size_t i = 0; i < length; i++) {
 214:MidiController.cpp ****         sysexMsg[i + 1] = data[i];
 215:MidiController.cpp ****     }
 216:MidiController.cpp ****     sysexMsg[length + 1] = 0xF7; // SysEx end
 217:MidiController.cpp ****     
 218:MidiController.cpp ****     if (outputMode_ == MIDI_USB_ONLY || outputMode_ == MIDI_BOTH) {
 219:MidiController.cpp ****         if (usbConnected_) {
 220:MidiController.cpp ****             SendViaUSB(sysexMsg, length + 2);
 221:MidiController.cpp ****         }
 222:MidiController.cpp ****     }
 223:MidiController.cpp ****     
 224:MidiController.cpp ****     if (outputMode_ == MIDI_UART_ONLY || outputMode_ == MIDI_BOTH) {
 225:MidiController.cpp ****         if (uartConnected_) {
 226:MidiController.cpp ****             SendViaUART(sysexMsg, length + 2);
 227:MidiController.cpp ****         }
 228:MidiController.cpp ****     }
 229:MidiController.cpp ****     
 230:MidiController.cpp ****     delete[] sysexMsg;
 231:MidiController.cpp ****     messagesSent_++;
 232:MidiController.cpp **** }
 233:MidiController.cpp **** 
 234:MidiController.cpp **** void MidiController::SendMTC(uint8_t frameType, uint8_t value) {
 235:MidiController.cpp ****     // MIDI Time Code Quarter Frame
 236:MidiController.cpp ****     uint8_t mtcByte = 0xF1;
 237:MidiController.cpp ****     uint8_t dataByte = (frameType << 4) | (value & 0x0F);
 238:MidiController.cpp ****     SendMidiMessage(mtcByte, dataByte);
 239:MidiController.cpp **** }
 240:MidiController.cpp **** 
 241:MidiController.cpp **** void MidiController::SendSongPosition(uint16_t position) {
 242:MidiController.cpp ****     uint8_t lsb = position & 0x7F;
 243:MidiController.cpp ****     uint8_t msb = (position >> 7) & 0x7F;
 244:MidiController.cpp ****     uint8_t bytes[3] = {0xF2, lsb, msb};
 245:MidiController.cpp ****     
 246:MidiController.cpp ****     if (outputMode_ == MIDI_USB_ONLY || outputMode_ == MIDI_BOTH) {
 247:MidiController.cpp ****         if (usbConnected_) {
 248:MidiController.cpp ****             SendViaUSB(bytes, 3);
 249:MidiController.cpp ****         }
 250:MidiController.cpp ****     }
 251:MidiController.cpp ****     
 252:MidiController.cpp ****     if (outputMode_ == MIDI_UART_ONLY || outputMode_ == MIDI_BOTH) {
 253:MidiController.cpp ****         if (uartConnected_) {
 254:MidiController.cpp ****             SendViaUART(bytes, 3);
 255:MidiController.cpp ****         }
 256:MidiController.cpp ****     }
 257:MidiController.cpp **** }
 258:MidiController.cpp **** 
ARM GAS  C:\Users\Marco\AppData\Local\Temp\ccVZoccs.s 			page 6


 259:MidiController.cpp **** void MidiController::SendClock() {
 260:MidiController.cpp ****     SendMidiMessage(0xF8); // MIDI Clock
 261:MidiController.cpp **** }
 262:MidiController.cpp **** 
 263:MidiController.cpp **** void MidiController::SendStart() {
 264:MidiController.cpp ****     SendMidiMessage(0xFA); // MIDI Start
 265:MidiController.cpp ****     clockRunning_ = true;
 266:MidiController.cpp **** }
 267:MidiController.cpp **** 
 268:MidiController.cpp **** void MidiController::SendStop() {
 269:MidiController.cpp ****     SendMidiMessage(0xFC); // MIDI Stop
 270:MidiController.cpp ****     clockRunning_ = false;
 271:MidiController.cpp **** }
 272:MidiController.cpp **** 
 273:MidiController.cpp **** void MidiController::SendContinue() {
 274:MidiController.cpp ****     SendMidiMessage(0xFB); // MIDI Continue
 275:MidiController.cpp ****     clockRunning_ = true;
 276:MidiController.cpp **** }
 277:MidiController.cpp **** 
 278:MidiController.cpp **** void MidiController::SendSceneChange(uint8_t scene) {
 279:MidiController.cpp ****     // Send as Program Change
 280:MidiController.cpp ****     SendProgramChange(scene);
 281:MidiController.cpp **** }
 282:MidiController.cpp **** 
 283:MidiController.cpp **** void MidiController::SendBankSelect(uint8_t bank) {
 284:MidiController.cpp ****     // Bank Select MSB (CC 0)
 285:MidiController.cpp ****     SendControlChange(0, bank);
 286:MidiController.cpp **** }
 287:MidiController.cpp **** 
 288:MidiController.cpp **** // Private methods - implementation
 289:MidiController.cpp **** void MidiController::SendMidiMessage(uint8_t status, uint8_t data1, uint8_t data2) {
 290:MidiController.cpp ****     if (!enabled_) return;
 291:MidiController.cpp ****     
 292:MidiController.cpp ****     uint8_t midiBytes[3] = {status, data1, data2};
 293:MidiController.cpp ****     
 294:MidiController.cpp ****     // Send via USB if enabled
 295:MidiController.cpp ****     if (outputMode_ == MIDI_USB_ONLY || outputMode_ == MIDI_BOTH) {
 296:MidiController.cpp ****         if (usbConnected_) {
 297:MidiController.cpp ****             SendViaUSB(midiBytes, 3);
 298:MidiController.cpp ****         }
 299:MidiController.cpp ****     }
 300:MidiController.cpp ****     
 301:MidiController.cpp ****     // Send via UART if enabled
 302:MidiController.cpp ****     if (outputMode_ == MIDI_UART_ONLY || outputMode_ == MIDI_BOTH) {
 303:MidiController.cpp ****         if (uartConnected_) {
 304:MidiController.cpp ****             SendViaUART(midiBytes, 3);
 305:MidiController.cpp ****         }
 306:MidiController.cpp ****     }
 307:MidiController.cpp ****     
 308:MidiController.cpp ****     messagesSent_++;
 309:MidiController.cpp ****     UpdateRunningStatus(status);
 310:MidiController.cpp ****     lastActivityTime_ = daisy::System::GetNow();
 311:MidiController.cpp **** }
 312:MidiController.cpp **** 
 313:MidiController.cpp **** void MidiController::SendMidiMessage(uint8_t status, uint8_t data1) {
  29              		.loc 1 313 6 view -0
  30              		.cfi_startproc
ARM GAS  C:\Users\Marco\AppData\Local\Temp\ccVZoccs.s 			page 7


  31              		@ args = 0, pretend = 0, frame = 8
  32              		@ frame_needed = 0, uses_anonymous_args = 0
 314:MidiController.cpp ****     if (!enabled_) return;
 315:MidiController.cpp ****     
 316:MidiController.cpp ****     uint8_t midiBytes[2] = {status, data1};
  33              		.loc 1 316 5 view .LVU1
 313:MidiController.cpp ****     if (!enabled_) return;
  34              		.loc 1 313 6 is_stmt 0 view .LVU2
  35 0000 70B5     		push	{r4, r5, r6, lr}
  36              		.cfi_def_cfa_offset 16
  37              		.cfi_offset 4, -16
  38              		.cfi_offset 5, -12
  39              		.cfi_offset 6, -8
  40              		.cfi_offset 14, -4
 317:MidiController.cpp ****     
 318:MidiController.cpp ****     // Send via USB if enabled
 319:MidiController.cpp ****     if (outputMode_ == MIDI_USB_ONLY || outputMode_ == MIDI_BOTH) {
  41              		.loc 1 319 9 view .LVU3
  42 0002 00F59034 		add	r4, r0, #73728
 313:MidiController.cpp ****     if (!enabled_) return;
  43              		.loc 1 313 6 view .LVU4
  44 0006 82B0     		sub	sp, sp, #8
  45              		.cfi_def_cfa_offset 24
 313:MidiController.cpp ****     if (!enabled_) return;
  46              		.loc 1 313 6 view .LVU5
  47 0008 0646     		mov	r6, r0
  48 000a 0D46     		mov	r5, r1
  49              		.loc 1 319 9 view .LVU6
  50 000c 94F8AD32 		ldrb	r3, [r4, #685]	@ zero_extendqisi2
 316:MidiController.cpp ****     
  51              		.loc 1 316 42 view .LVU7
  52 0010 8DF80520 		strb	r2, [sp, #5]
  53              		.loc 1 319 5 is_stmt 1 view .LVU8
  54 0014 13F0FD0F 		tst	r3, #253
 316:MidiController.cpp ****     
  55              		.loc 1 316 42 is_stmt 0 view .LVU9
  56 0018 8DF80410 		strb	r1, [sp, #4]
  57              		.loc 1 319 5 view .LVU10
  58 001c 02D1     		bne	.L2
 320:MidiController.cpp ****         if (usbConnected_) {
  59              		.loc 1 320 9 is_stmt 1 view .LVU11
  60 001e 94F8AF22 		ldrb	r2, [r4, #687]	@ zero_extendqisi2
  61              	.LVL1:
  62              		.loc 1 320 9 is_stmt 0 view .LVU12
  63 0022 D2B9     		cbnz	r2, .L12
  64              	.LVL2:
  65              	.L2:
 321:MidiController.cpp ****             SendViaUSB(midiBytes, 2);
 322:MidiController.cpp ****         }
 323:MidiController.cpp ****     }
 324:MidiController.cpp ****     
 325:MidiController.cpp ****     // Send via UART if enabled
 326:MidiController.cpp ****     if (outputMode_ == MIDI_UART_ONLY || outputMode_ == MIDI_BOTH) {
  66              		.loc 1 326 5 is_stmt 1 view .LVU13
  67 0024 013B     		subs	r3, r3, #1
  68 0026 012B     		cmp	r3, #1
  69 0028 0CD9     		bls	.L13
ARM GAS  C:\Users\Marco\AppData\Local\Temp\ccVZoccs.s 			page 8


  70              	.L3:
 327:MidiController.cpp ****         if (uartConnected_) {
 328:MidiController.cpp ****             SendViaUART(midiBytes, 2);
 329:MidiController.cpp ****         }
 330:MidiController.cpp ****     }
 331:MidiController.cpp ****     
 332:MidiController.cpp ****     messagesSent_++;
  71              		.loc 1 332 5 view .LVU14
  72              		.loc 1 332 18 is_stmt 0 view .LVU15
  73 002a D4F8B835 		ldr	r3, [r4, #1464]
  74              	.LBB323:
  75              	.LBB324:
 333:MidiController.cpp ****     UpdateRunningStatus(status);
 334:MidiController.cpp ****     lastActivityTime_ = daisy::System::GetNow();
 335:MidiController.cpp **** }
 336:MidiController.cpp **** 
 337:MidiController.cpp **** void MidiController::SendMidiMessage(uint8_t status) {
 338:MidiController.cpp ****     if (!enabled_) return;
 339:MidiController.cpp ****     
 340:MidiController.cpp ****     uint8_t midiBytes[1] = {status};
 341:MidiController.cpp ****     
 342:MidiController.cpp ****     // Send via USB if enabled
 343:MidiController.cpp ****     if (outputMode_ == MIDI_USB_ONLY || outputMode_ == MIDI_BOTH) {
 344:MidiController.cpp ****         if (usbConnected_) {
 345:MidiController.cpp ****             SendViaUSB(midiBytes, 1);
 346:MidiController.cpp ****         }
 347:MidiController.cpp ****     }
 348:MidiController.cpp ****     
 349:MidiController.cpp ****     // Send via UART if enabled
 350:MidiController.cpp ****     if (outputMode_ == MIDI_UART_ONLY || outputMode_ == MIDI_BOTH) {
 351:MidiController.cpp ****         if (uartConnected_) {
 352:MidiController.cpp ****             SendViaUART(midiBytes, 1);
 353:MidiController.cpp ****         }
 354:MidiController.cpp ****     }
 355:MidiController.cpp ****     
 356:MidiController.cpp ****     messagesSent_++;
 357:MidiController.cpp ****     UpdateRunningStatus(status);
 358:MidiController.cpp ****     lastActivityTime_ = daisy::System::GetNow();
 359:MidiController.cpp **** }
 360:MidiController.cpp **** 
 361:MidiController.cpp **** void MidiController::QueueMessage(uint8_t status, uint8_t data1, uint8_t data2) {
 362:MidiController.cpp ****     if (IsQueueFull()) {
 363:MidiController.cpp ****         return; // Queue is full, drop message
 364:MidiController.cpp ****     }
 365:MidiController.cpp ****     
 366:MidiController.cpp ****     MidiMessage& msg = messageQueue_[queueTail_];
 367:MidiController.cpp ****     msg.status = status;
 368:MidiController.cpp ****     msg.data1 = data1;
 369:MidiController.cpp ****     msg.data2 = data2;
 370:MidiController.cpp ****     msg.hasData2 = true;
 371:MidiController.cpp ****     msg.timestamp = lastActivityTime_; // TODO: Get actual timestamp
 372:MidiController.cpp ****     
 373:MidiController.cpp ****     queueTail_ = (queueTail_ + 1) % MESSAGE_QUEUE_SIZE;
 374:MidiController.cpp ****     queueCount_++;
 375:MidiController.cpp **** }
 376:MidiController.cpp **** 
 377:MidiController.cpp **** void MidiController::QueueMessage(uint8_t status, uint8_t data1) {
ARM GAS  C:\Users\Marco\AppData\Local\Temp\ccVZoccs.s 			page 9


 378:MidiController.cpp ****     if (IsQueueFull()) {
 379:MidiController.cpp ****         return;
 380:MidiController.cpp ****     }
 381:MidiController.cpp ****     
 382:MidiController.cpp ****     MidiMessage& msg = messageQueue_[queueTail_];
 383:MidiController.cpp ****     msg.status = status;
 384:MidiController.cpp ****     msg.data1 = data1;
 385:MidiController.cpp ****     msg.data2 = 0;
 386:MidiController.cpp ****     msg.hasData2 = false;
 387:MidiController.cpp ****     msg.timestamp = lastActivityTime_;
 388:MidiController.cpp ****     
 389:MidiController.cpp ****     queueTail_ = (queueTail_ + 1) % MESSAGE_QUEUE_SIZE;
 390:MidiController.cpp ****     queueCount_++;
 391:MidiController.cpp **** }
 392:MidiController.cpp **** 
 393:MidiController.cpp **** void MidiController::ProcessMessageQueue() {
 394:MidiController.cpp ****     // Process all pending messages in the queue
 395:MidiController.cpp ****     while (queueCount_ > 0) {
 396:MidiController.cpp ****         MidiMessage& msg = messageQueue_[queueHead_];
 397:MidiController.cpp ****         
 398:MidiController.cpp ****         if (msg.hasData2) {
 399:MidiController.cpp ****             SendMidiMessage(msg.status, msg.data1, msg.data2);
 400:MidiController.cpp ****         } else {
 401:MidiController.cpp ****             SendMidiMessage(msg.status, msg.data1);
 402:MidiController.cpp ****         }
 403:MidiController.cpp ****         
 404:MidiController.cpp ****         // Move to next message
 405:MidiController.cpp ****         queueHead_ = (queueHead_ + 1) % MESSAGE_QUEUE_SIZE;
 406:MidiController.cpp ****         queueCount_--;
 407:MidiController.cpp ****     }
 408:MidiController.cpp **** }
 409:MidiController.cpp **** 
 410:MidiController.cpp **** bool MidiController::IsQueueFull() {
 411:MidiController.cpp ****     return queueCount_ >= MESSAGE_QUEUE_SIZE;
 412:MidiController.cpp **** }
 413:MidiController.cpp **** 
 414:MidiController.cpp **** void MidiController::SendViaUSB(uint8_t* data, size_t length) {
 415:MidiController.cpp ****     usbMidi_.SendMessage(data, length);
 416:MidiController.cpp ****     // Note: SendMessage returns void, no error checking available
 417:MidiController.cpp **** }
 418:MidiController.cpp **** 
 419:MidiController.cpp **** void MidiController::SendViaUART(uint8_t* data, size_t length) {
 420:MidiController.cpp ****     uartMidi_.SendMessage(data, length);
 421:MidiController.cpp **** }
 422:MidiController.cpp **** 
 423:MidiController.cpp **** void MidiController::InitializeUSB() {
 424:MidiController.cpp ****     daisy::MidiUsbHandler::Config usbConfig;
 425:MidiController.cpp ****     usbConfig.transport_config.periph = daisy::MidiUsbTransport::Config::INTERNAL;
 426:MidiController.cpp ****     usbMidi_.Init(usbConfig);
 427:MidiController.cpp ****     usbConnected_ = true; // Assume connected for now
 428:MidiController.cpp **** }
 429:MidiController.cpp **** 
 430:MidiController.cpp **** void MidiController::InitializeUART() {
 431:MidiController.cpp ****     daisy::MidiUartHandler::Config uartConfig;
 432:MidiController.cpp ****     // Use default UART configuration - pins D14/D15 for UART1
 433:MidiController.cpp ****     uartMidi_.Init(uartConfig);
 434:MidiController.cpp ****     uartConnected_ = true; // Assume connected for now
ARM GAS  C:\Users\Marco\AppData\Local\Temp\ccVZoccs.s 			page 10


 435:MidiController.cpp **** }
 436:MidiController.cpp **** 
 437:MidiController.cpp **** void MidiController::CheckUSBConnection() {
 438:MidiController.cpp ****     // Check if USB device is connected
 439:MidiController.cpp ****     // This is a simplified check - in real implementation you might
 440:MidiController.cpp ****     // want to check USB enumeration status
 441:MidiController.cpp ****     usbConnected_ = true; // For now, assume always connected
 442:MidiController.cpp **** }
 443:MidiController.cpp **** 
 444:MidiController.cpp **** void MidiController::CheckUARTConnection() {
 445:MidiController.cpp ****     // Check if UART device is connected
 446:MidiController.cpp ****     // This is difficult to detect automatically for UART MIDI
 447:MidiController.cpp ****     uartConnected_ = true; // For now, assume always connected
 448:MidiController.cpp **** }
 449:MidiController.cpp **** 
 450:MidiController.cpp **** void MidiController::HandleConnectionChange() {
 451:MidiController.cpp ****     // Handle connection/disconnection events
 452:MidiController.cpp ****     // Could be used to notify the application about MIDI device status
 453:MidiController.cpp **** }
 454:MidiController.cpp **** 
 455:MidiController.cpp **** uint8_t MidiController::CreateStatusByte(MidiMessageType messageType, uint8_t channel) {
 456:MidiController.cpp ****     return (uint8_t)messageType | ((channel - 1) & 0x0F);
 457:MidiController.cpp **** }
 458:MidiController.cpp **** 
 459:MidiController.cpp **** bool MidiController::IsValidChannel(uint8_t channel) {
 460:MidiController.cpp ****     return channel >= 1 && channel <= 16;
 461:MidiController.cpp **** }
 462:MidiController.cpp **** 
 463:MidiController.cpp **** bool MidiController::IsValidNote(uint8_t note) {
 464:MidiController.cpp ****     return note <= 127;
 465:MidiController.cpp **** }
 466:MidiController.cpp **** 
 467:MidiController.cpp **** bool MidiController::IsValidVelocity(uint8_t velocity) {
 468:MidiController.cpp ****     return velocity <= 127;
 469:MidiController.cpp **** }
 470:MidiController.cpp **** 
 471:MidiController.cpp **** bool MidiController::IsValidController(uint8_t controller) {
 472:MidiController.cpp ****     return controller <= 127;
 473:MidiController.cpp **** }
 474:MidiController.cpp **** 
 475:MidiController.cpp **** void MidiController::TrackNoteOn(uint8_t note) {
 476:MidiController.cpp ****     if (note < 128 && !activeNotes_[note]) {
 477:MidiController.cpp ****         activeNotes_[note] = true;
 478:MidiController.cpp ****         activeNoteCount_++;
 479:MidiController.cpp ****     }
 480:MidiController.cpp **** }
 481:MidiController.cpp **** 
 482:MidiController.cpp **** void MidiController::TrackNoteOff(uint8_t note) {
 483:MidiController.cpp ****     if (note < 128 && activeNotes_[note]) {
 484:MidiController.cpp ****         activeNotes_[note] = false;
 485:MidiController.cpp ****         if (activeNoteCount_ > 0) {
 486:MidiController.cpp ****             activeNoteCount_--;
 487:MidiController.cpp ****         }
 488:MidiController.cpp ****     }
 489:MidiController.cpp **** }
 490:MidiController.cpp **** 
 491:MidiController.cpp **** bool MidiController::IsNoteActive(uint8_t note) {
ARM GAS  C:\Users\Marco\AppData\Local\Temp\ccVZoccs.s 			page 11


 492:MidiController.cpp ****     return note < 128 && activeNotes_[note];
 493:MidiController.cpp **** }
 494:MidiController.cpp **** 
 495:MidiController.cpp **** void MidiController::UpdateRunningStatus(uint8_t status) {
 496:MidiController.cpp ****     runningStatus_ = status;
  76              		.loc 1 496 20 view .LVU16
  77 002e 84F8C055 		strb	r5, [r4, #1472]
  78              	.LBE324:
  79              	.LBE323:
 332:MidiController.cpp ****     UpdateRunningStatus(status);
  80              		.loc 1 332 18 view .LVU17
  81 0032 0133     		adds	r3, r3, #1
  82 0034 C4F8B835 		str	r3, [r4, #1464]
 333:MidiController.cpp ****     UpdateRunningStatus(status);
  83              		.loc 1 333 5 is_stmt 1 view .LVU18
  84              	.LVL3:
  85              	.LBB326:
  86              	.LBI323:
 495:MidiController.cpp ****     runningStatus_ = status;
  87              		.loc 1 495 6 view .LVU19
  88              	.LBB325:
  89              		.loc 1 496 5 view .LVU20
  90              		.loc 1 496 5 is_stmt 0 view .LVU21
  91              	.LBE325:
  92              	.LBE326:
 334:MidiController.cpp **** }
  93              		.loc 1 334 5 is_stmt 1 view .LVU22
 334:MidiController.cpp **** }
  94              		.loc 1 334 46 is_stmt 0 view .LVU23
  95 0038 FFF7FEFF 		bl	_ZN5daisy6System6GetNowEv
  96              	.LVL4:
 334:MidiController.cpp **** }
  97              		.loc 1 334 23 view .LVU24
  98 003c C4F8BC05 		str	r0, [r4, #1468]
 335:MidiController.cpp **** 
  99              		.loc 1 335 1 view .LVU25
 100 0040 02B0     		add	sp, sp, #8
 101              		.cfi_remember_state
 102              		.cfi_def_cfa_offset 16
 103              		@ sp needed
 104 0042 70BD     		pop	{r4, r5, r6, pc}
 105              	.LVL5:
 106              	.L13:
 107              		.cfi_restore_state
 327:MidiController.cpp ****             SendViaUART(midiBytes, 2);
 108              		.loc 1 327 9 is_stmt 1 view .LVU26
 109 0044 94F8B032 		ldrb	r3, [r4, #688]	@ zero_extendqisi2
 110 0048 002B     		cmp	r3, #0
 111 004a EED0     		beq	.L3
 328:MidiController.cpp ****         }
 112              		.loc 1 328 13 view .LVU27
 113              	.LVL6:
 114              	.LBB327:
 115              	.LBI327:
 419:MidiController.cpp ****     uartMidi_.SendMessage(data, length);
 116              		.loc 1 419 6 view .LVU28
 117              	.LBB328:
ARM GAS  C:\Users\Marco\AppData\Local\Temp\ccVZoccs.s 			page 12


 420:MidiController.cpp **** }
 118              		.loc 1 420 5 view .LVU29
 119              	.LBB329:
 120              	.LBI329:
 121              		.file 2 "../DaisyExamples/libDaisy/src/hid/midi.h"
   1:../DaisyExamples/libDaisy/src/hid/midi.h **** #pragma once
   2:../DaisyExamples/libDaisy/src/hid/midi.h **** #ifndef DSY_MIDI_H
   3:../DaisyExamples/libDaisy/src/hid/midi.h **** #define DSY_MIDI_H
   4:../DaisyExamples/libDaisy/src/hid/midi.h **** 
   5:../DaisyExamples/libDaisy/src/hid/midi.h **** #include <stdint.h>
   6:../DaisyExamples/libDaisy/src/hid/midi.h **** #include <stdlib.h>
   7:../DaisyExamples/libDaisy/src/hid/midi.h **** #include <algorithm>
   8:../DaisyExamples/libDaisy/src/hid/midi.h **** #include "per/uart.h"
   9:../DaisyExamples/libDaisy/src/hid/midi.h **** #include "util/ringbuffer.h"
  10:../DaisyExamples/libDaisy/src/hid/midi.h **** #include "util/FIFO.h"
  11:../DaisyExamples/libDaisy/src/hid/midi.h **** #include "hid/midi_parser.h"
  12:../DaisyExamples/libDaisy/src/hid/midi.h **** #include "hid/usb_midi.h"
  13:../DaisyExamples/libDaisy/src/hid/midi.h **** #include "sys/dma.h"
  14:../DaisyExamples/libDaisy/src/hid/midi.h **** #include "sys/system.h"
  15:../DaisyExamples/libDaisy/src/hid/midi.h **** 
  16:../DaisyExamples/libDaisy/src/hid/midi.h **** namespace daisy
  17:../DaisyExamples/libDaisy/src/hid/midi.h **** {
  18:../DaisyExamples/libDaisy/src/hid/midi.h **** /** @brief   Transport layer for sending and receiving MIDI data over UART
  19:../DaisyExamples/libDaisy/src/hid/midi.h ****  *  @details This is the mode of communication used for TRS and DIN MIDI
  20:../DaisyExamples/libDaisy/src/hid/midi.h ****  *           There is an additional 2kB of RAM data used within this class
  21:../DaisyExamples/libDaisy/src/hid/midi.h ****  *           for processing bulk data from the UART peripheral
  22:../DaisyExamples/libDaisy/src/hid/midi.h ****  *  @ingroup midi
  23:../DaisyExamples/libDaisy/src/hid/midi.h **** */
  24:../DaisyExamples/libDaisy/src/hid/midi.h **** class MidiUartTransport
  25:../DaisyExamples/libDaisy/src/hid/midi.h **** {
  26:../DaisyExamples/libDaisy/src/hid/midi.h ****   public:
  27:../DaisyExamples/libDaisy/src/hid/midi.h ****     typedef void (*MidiRxParseCallback)(uint8_t* data,
  28:../DaisyExamples/libDaisy/src/hid/midi.h ****                                         size_t   size,
  29:../DaisyExamples/libDaisy/src/hid/midi.h ****                                         void*    context);
  30:../DaisyExamples/libDaisy/src/hid/midi.h **** 
  31:../DaisyExamples/libDaisy/src/hid/midi.h ****     MidiUartTransport() {}
  32:../DaisyExamples/libDaisy/src/hid/midi.h ****     ~MidiUartTransport() {}
  33:../DaisyExamples/libDaisy/src/hid/midi.h **** 
  34:../DaisyExamples/libDaisy/src/hid/midi.h ****     /** @brief Configuration structure for UART MIDI */
  35:../DaisyExamples/libDaisy/src/hid/midi.h ****     struct Config
  36:../DaisyExamples/libDaisy/src/hid/midi.h ****     {
  37:../DaisyExamples/libDaisy/src/hid/midi.h ****         UartHandler::Config::Peripheral periph;
  38:../DaisyExamples/libDaisy/src/hid/midi.h ****         dsy_gpio_pin                    rx;
  39:../DaisyExamples/libDaisy/src/hid/midi.h ****         dsy_gpio_pin                    tx;
  40:../DaisyExamples/libDaisy/src/hid/midi.h **** 
  41:../DaisyExamples/libDaisy/src/hid/midi.h ****         /** Pointer to buffer for DMA UART rx byte transfer in background.
  42:../DaisyExamples/libDaisy/src/hid/midi.h ****          *
  43:../DaisyExamples/libDaisy/src/hid/midi.h ****          *  @details By default this uses a shared buffer in DMA_BUFFER_MEM_SECTION,
  44:../DaisyExamples/libDaisy/src/hid/midi.h ****          *           which can only be utilized for a single UART peripheral. To
  45:../DaisyExamples/libDaisy/src/hid/midi.h ****          *           use MIDI with multiple UART peripherals, you must provide your own
  46:../DaisyExamples/libDaisy/src/hid/midi.h ****          *           buffer, allocated to a DMA-capable memory section.
  47:../DaisyExamples/libDaisy/src/hid/midi.h ****          */
  48:../DaisyExamples/libDaisy/src/hid/midi.h ****         uint8_t* rx_buffer;
  49:../DaisyExamples/libDaisy/src/hid/midi.h **** 
  50:../DaisyExamples/libDaisy/src/hid/midi.h ****         /** Size in bytes of rx_buffer.
  51:../DaisyExamples/libDaisy/src/hid/midi.h ****          *
  52:../DaisyExamples/libDaisy/src/hid/midi.h ****          *  @details This size determines the maximum Rx bytes readable by the UART in the backgrou
ARM GAS  C:\Users\Marco\AppData\Local\Temp\ccVZoccs.s 			page 13


  53:../DaisyExamples/libDaisy/src/hid/midi.h ****          *           By default it's set to the size of the default shared rx_buffer (256 bytes).
  54:../DaisyExamples/libDaisy/src/hid/midi.h ****          *           While much smaller sizes can be used, data can get missed if the buffer is too
  55:../DaisyExamples/libDaisy/src/hid/midi.h ****          */
  56:../DaisyExamples/libDaisy/src/hid/midi.h ****         size_t rx_buffer_size;
  57:../DaisyExamples/libDaisy/src/hid/midi.h **** 
  58:../DaisyExamples/libDaisy/src/hid/midi.h ****         Config();
  59:../DaisyExamples/libDaisy/src/hid/midi.h ****     };
  60:../DaisyExamples/libDaisy/src/hid/midi.h **** 
  61:../DaisyExamples/libDaisy/src/hid/midi.h ****     /** @brief Initialization of UART using config struct */
  62:../DaisyExamples/libDaisy/src/hid/midi.h ****     inline void Init(Config config)
  63:../DaisyExamples/libDaisy/src/hid/midi.h ****     {
  64:../DaisyExamples/libDaisy/src/hid/midi.h ****         UartHandler::Config uart_config;
  65:../DaisyExamples/libDaisy/src/hid/midi.h **** 
  66:../DaisyExamples/libDaisy/src/hid/midi.h ****         //defaults
  67:../DaisyExamples/libDaisy/src/hid/midi.h ****         uart_config.baudrate   = 31250;
  68:../DaisyExamples/libDaisy/src/hid/midi.h ****         uart_config.stopbits   = UartHandler::Config::StopBits::BITS_1;
  69:../DaisyExamples/libDaisy/src/hid/midi.h ****         uart_config.parity     = UartHandler::Config::Parity::NONE;
  70:../DaisyExamples/libDaisy/src/hid/midi.h ****         uart_config.mode       = UartHandler::Config::Mode::TX_RX;
  71:../DaisyExamples/libDaisy/src/hid/midi.h ****         uart_config.wordlength = UartHandler::Config::WordLength::BITS_8;
  72:../DaisyExamples/libDaisy/src/hid/midi.h **** 
  73:../DaisyExamples/libDaisy/src/hid/midi.h ****         //user settings
  74:../DaisyExamples/libDaisy/src/hid/midi.h ****         uart_config.periph        = config.periph;
  75:../DaisyExamples/libDaisy/src/hid/midi.h ****         uart_config.pin_config.rx = config.rx;
  76:../DaisyExamples/libDaisy/src/hid/midi.h ****         uart_config.pin_config.tx = config.tx;
  77:../DaisyExamples/libDaisy/src/hid/midi.h **** 
  78:../DaisyExamples/libDaisy/src/hid/midi.h ****         rx_buffer      = config.rx_buffer;
  79:../DaisyExamples/libDaisy/src/hid/midi.h ****         rx_buffer_size = config.rx_buffer_size;
  80:../DaisyExamples/libDaisy/src/hid/midi.h **** 
  81:../DaisyExamples/libDaisy/src/hid/midi.h ****         /** zero the buffer to ensure emptiness regardless of source memory */
  82:../DaisyExamples/libDaisy/src/hid/midi.h ****         std::fill(rx_buffer, rx_buffer + rx_buffer_size, 0);
  83:../DaisyExamples/libDaisy/src/hid/midi.h **** 
  84:../DaisyExamples/libDaisy/src/hid/midi.h ****         uart_.Init(uart_config);
  85:../DaisyExamples/libDaisy/src/hid/midi.h ****     }
  86:../DaisyExamples/libDaisy/src/hid/midi.h **** 
  87:../DaisyExamples/libDaisy/src/hid/midi.h ****     /** @brief Start the UART peripheral in listening mode.
  88:../DaisyExamples/libDaisy/src/hid/midi.h ****      *  This will fill an internal data structure in the background */
  89:../DaisyExamples/libDaisy/src/hid/midi.h ****     inline void StartRx(MidiRxParseCallback parse_callback, void* context)
  90:../DaisyExamples/libDaisy/src/hid/midi.h ****     {
  91:../DaisyExamples/libDaisy/src/hid/midi.h ****         parse_context_  = context;
  92:../DaisyExamples/libDaisy/src/hid/midi.h ****         parse_callback_ = parse_callback;
  93:../DaisyExamples/libDaisy/src/hid/midi.h ****         dsy_dma_clear_cache_for_buffer((uint8_t*)this,
  94:../DaisyExamples/libDaisy/src/hid/midi.h ****                                        sizeof(MidiUartTransport));
  95:../DaisyExamples/libDaisy/src/hid/midi.h ****         uart_.DmaListenStart(
  96:../DaisyExamples/libDaisy/src/hid/midi.h ****             rx_buffer, rx_buffer_size, MidiUartTransport::rxCallback, this);
  97:../DaisyExamples/libDaisy/src/hid/midi.h ****     }
  98:../DaisyExamples/libDaisy/src/hid/midi.h **** 
  99:../DaisyExamples/libDaisy/src/hid/midi.h ****     /** @brief returns whether the UART peripheral is actively listening in the background or not *
 100:../DaisyExamples/libDaisy/src/hid/midi.h ****     inline bool RxActive() { return uart_.IsListening(); }
 101:../DaisyExamples/libDaisy/src/hid/midi.h **** 
 102:../DaisyExamples/libDaisy/src/hid/midi.h ****     /** @brief This is a no-op for UART transport - Rx is via DMA callback with circular buffer */
 103:../DaisyExamples/libDaisy/src/hid/midi.h ****     inline void FlushRx() {}
 104:../DaisyExamples/libDaisy/src/hid/midi.h **** 
 105:../DaisyExamples/libDaisy/src/hid/midi.h ****     /** @brief sends the buffer of bytes out of the UART peripheral */
 106:../DaisyExamples/libDaisy/src/hid/midi.h ****     inline void Tx(uint8_t* buff, size_t size) { uart_.PollTx(buff, size); }
 107:../DaisyExamples/libDaisy/src/hid/midi.h **** 
 108:../DaisyExamples/libDaisy/src/hid/midi.h ****   private:
 109:../DaisyExamples/libDaisy/src/hid/midi.h ****     UartHandler         uart_;
ARM GAS  C:\Users\Marco\AppData\Local\Temp\ccVZoccs.s 			page 14


 110:../DaisyExamples/libDaisy/src/hid/midi.h ****     uint8_t*            rx_buffer;
 111:../DaisyExamples/libDaisy/src/hid/midi.h ****     size_t              rx_buffer_size;
 112:../DaisyExamples/libDaisy/src/hid/midi.h ****     void*               parse_context_;
 113:../DaisyExamples/libDaisy/src/hid/midi.h ****     MidiRxParseCallback parse_callback_;
 114:../DaisyExamples/libDaisy/src/hid/midi.h **** 
 115:../DaisyExamples/libDaisy/src/hid/midi.h ****     /** Static callback for Uart MIDI that occurs when
 116:../DaisyExamples/libDaisy/src/hid/midi.h ****          *  new data is available from the peripheral.
 117:../DaisyExamples/libDaisy/src/hid/midi.h ****          *  The new data is transferred from the peripheral to the
 118:../DaisyExamples/libDaisy/src/hid/midi.h ****          *  MIDI instance's byte FIFO that feeds the MIDI parser.
 119:../DaisyExamples/libDaisy/src/hid/midi.h ****          *
 120:../DaisyExamples/libDaisy/src/hid/midi.h ****          *  TODO: Handle UartHandler errors better/at all.
 121:../DaisyExamples/libDaisy/src/hid/midi.h ****          *  (If there is a UART error, there's not really any recovery
 122:../DaisyExamples/libDaisy/src/hid/midi.h ****          *  option at the moment)
 123:../DaisyExamples/libDaisy/src/hid/midi.h ****          */
 124:../DaisyExamples/libDaisy/src/hid/midi.h ****     static void rxCallback(uint8_t*            data,
 125:../DaisyExamples/libDaisy/src/hid/midi.h ****                            size_t              size,
 126:../DaisyExamples/libDaisy/src/hid/midi.h ****                            void*               context,
 127:../DaisyExamples/libDaisy/src/hid/midi.h ****                            UartHandler::Result res)
 128:../DaisyExamples/libDaisy/src/hid/midi.h ****     {
 129:../DaisyExamples/libDaisy/src/hid/midi.h ****         /** Read context as transport type */
 130:../DaisyExamples/libDaisy/src/hid/midi.h ****         MidiUartTransport* transport
 131:../DaisyExamples/libDaisy/src/hid/midi.h ****             = reinterpret_cast<MidiUartTransport*>(context);
 132:../DaisyExamples/libDaisy/src/hid/midi.h ****         if(res == UartHandler::Result::OK)
 133:../DaisyExamples/libDaisy/src/hid/midi.h ****         {
 134:../DaisyExamples/libDaisy/src/hid/midi.h ****             if(transport->parse_callback_)
 135:../DaisyExamples/libDaisy/src/hid/midi.h ****             {
 136:../DaisyExamples/libDaisy/src/hid/midi.h ****                 transport->parse_callback_(
 137:../DaisyExamples/libDaisy/src/hid/midi.h ****                     data, size, transport->parse_context_);
 138:../DaisyExamples/libDaisy/src/hid/midi.h ****             }
 139:../DaisyExamples/libDaisy/src/hid/midi.h ****         }
 140:../DaisyExamples/libDaisy/src/hid/midi.h ****     }
 141:../DaisyExamples/libDaisy/src/hid/midi.h **** };
 142:../DaisyExamples/libDaisy/src/hid/midi.h **** 
 143:../DaisyExamples/libDaisy/src/hid/midi.h **** /**
 144:../DaisyExamples/libDaisy/src/hid/midi.h ****     @brief Simple MIDI Handler \n
 145:../DaisyExamples/libDaisy/src/hid/midi.h ****     Parses bytes from an input into valid MidiEvents. \n
 146:../DaisyExamples/libDaisy/src/hid/midi.h ****     The MidiEvents fill a FIFO queue that the user can pop messages from.
 147:../DaisyExamples/libDaisy/src/hid/midi.h ****     @author shensley
 148:../DaisyExamples/libDaisy/src/hid/midi.h ****     @date March 2020
 149:../DaisyExamples/libDaisy/src/hid/midi.h ****     @ingroup midi
 150:../DaisyExamples/libDaisy/src/hid/midi.h **** */
 151:../DaisyExamples/libDaisy/src/hid/midi.h **** template <typename Transport>
 152:../DaisyExamples/libDaisy/src/hid/midi.h **** class MidiHandler
 153:../DaisyExamples/libDaisy/src/hid/midi.h **** {
 154:../DaisyExamples/libDaisy/src/hid/midi.h ****   public:
 155:../DaisyExamples/libDaisy/src/hid/midi.h ****     MidiHandler() {}
 156:../DaisyExamples/libDaisy/src/hid/midi.h ****     ~MidiHandler() {}
 157:../DaisyExamples/libDaisy/src/hid/midi.h **** 
 158:../DaisyExamples/libDaisy/src/hid/midi.h ****     struct Config
 159:../DaisyExamples/libDaisy/src/hid/midi.h ****     {
 160:../DaisyExamples/libDaisy/src/hid/midi.h ****         typename Transport::Config transport_config;
 161:../DaisyExamples/libDaisy/src/hid/midi.h ****     };
 162:../DaisyExamples/libDaisy/src/hid/midi.h **** 
 163:../DaisyExamples/libDaisy/src/hid/midi.h ****     /** Initializes the MidiHandler
 164:../DaisyExamples/libDaisy/src/hid/midi.h ****      *  \param config Configuration structure used to define specifics to the MIDI Handler.
 165:../DaisyExamples/libDaisy/src/hid/midi.h ****      */
 166:../DaisyExamples/libDaisy/src/hid/midi.h ****     void Init(Config config)
ARM GAS  C:\Users\Marco\AppData\Local\Temp\ccVZoccs.s 			page 15


 167:../DaisyExamples/libDaisy/src/hid/midi.h ****     {
 168:../DaisyExamples/libDaisy/src/hid/midi.h ****         config_ = config;
 169:../DaisyExamples/libDaisy/src/hid/midi.h ****         transport_.Init(config_.transport_config);
 170:../DaisyExamples/libDaisy/src/hid/midi.h ****         parser_.Init();
 171:../DaisyExamples/libDaisy/src/hid/midi.h ****     }
 172:../DaisyExamples/libDaisy/src/hid/midi.h **** 
 173:../DaisyExamples/libDaisy/src/hid/midi.h ****     /** Starts listening on the selected input mode(s).
 174:../DaisyExamples/libDaisy/src/hid/midi.h ****      * MidiEvent Queue will begin to fill, and can be checked with HasEvents() */
 175:../DaisyExamples/libDaisy/src/hid/midi.h ****     void StartReceive()
 176:../DaisyExamples/libDaisy/src/hid/midi.h ****     {
 177:../DaisyExamples/libDaisy/src/hid/midi.h ****         transport_.StartRx(MidiHandler::ParseCallback, this);
 178:../DaisyExamples/libDaisy/src/hid/midi.h ****     }
 179:../DaisyExamples/libDaisy/src/hid/midi.h **** 
 180:../DaisyExamples/libDaisy/src/hid/midi.h ****     /** Start listening */
 181:../DaisyExamples/libDaisy/src/hid/midi.h ****     void Listen()
 182:../DaisyExamples/libDaisy/src/hid/midi.h ****     {
 183:../DaisyExamples/libDaisy/src/hid/midi.h ****         // In case of UART Error, (particularly
 184:../DaisyExamples/libDaisy/src/hid/midi.h ****         //  overrun error), UART disables itself.
 185:../DaisyExamples/libDaisy/src/hid/midi.h ****         // Flush the buff, and restart.
 186:../DaisyExamples/libDaisy/src/hid/midi.h ****         if(!transport_.RxActive())
 187:../DaisyExamples/libDaisy/src/hid/midi.h ****         {
 188:../DaisyExamples/libDaisy/src/hid/midi.h ****             parser_.Reset();
 189:../DaisyExamples/libDaisy/src/hid/midi.h ****             transport_.FlushRx();
 190:../DaisyExamples/libDaisy/src/hid/midi.h ****             StartReceive();
 191:../DaisyExamples/libDaisy/src/hid/midi.h ****         }
 192:../DaisyExamples/libDaisy/src/hid/midi.h ****     }
 193:../DaisyExamples/libDaisy/src/hid/midi.h **** 
 194:../DaisyExamples/libDaisy/src/hid/midi.h ****     /** Checks if there are unhandled messages in the queue
 195:../DaisyExamples/libDaisy/src/hid/midi.h ****     \return True if there are events to be handled, else false.
 196:../DaisyExamples/libDaisy/src/hid/midi.h ****      */
 197:../DaisyExamples/libDaisy/src/hid/midi.h ****     bool HasEvents() const { return event_q_.GetNumElements() > 0; }
 198:../DaisyExamples/libDaisy/src/hid/midi.h **** 
 199:../DaisyExamples/libDaisy/src/hid/midi.h **** 
 200:../DaisyExamples/libDaisy/src/hid/midi.h ****     /** Pops the oldest unhandled MidiEvent from the internal queue
 201:../DaisyExamples/libDaisy/src/hid/midi.h ****     \return The event to be handled
 202:../DaisyExamples/libDaisy/src/hid/midi.h ****      */
 203:../DaisyExamples/libDaisy/src/hid/midi.h ****     MidiEvent PopEvent() { return event_q_.PopFront(); }
 204:../DaisyExamples/libDaisy/src/hid/midi.h **** 
 205:../DaisyExamples/libDaisy/src/hid/midi.h ****     /** SendMessage
 206:../DaisyExamples/libDaisy/src/hid/midi.h ****     Send raw bytes as message
 207:../DaisyExamples/libDaisy/src/hid/midi.h ****     */
 208:../DaisyExamples/libDaisy/src/hid/midi.h ****     void SendMessage(uint8_t* bytes, size_t size)
 122              		.loc 2 208 10 view .LVU30
 123              	.LBB330:
 124              	.LBI330:
 106:../DaisyExamples/libDaisy/src/hid/midi.h **** 
 125              		.loc 2 106 17 view .LVU31
 126              	.LBB331:
 106:../DaisyExamples/libDaisy/src/hid/midi.h **** 
 127              		.loc 2 106 50 view .LVU32
 106:../DaisyExamples/libDaisy/src/hid/midi.h **** 
 128              		.loc 2 106 62 is_stmt 0 view .LVU33
 129 004c 0222     		movs	r2, #2
 130 004e 01A9     		add	r1, sp, #4
 131              	.LVL7:
 106:../DaisyExamples/libDaisy/src/hid/midi.h **** 
 132              		.loc 2 106 62 view .LVU34
ARM GAS  C:\Users\Marco\AppData\Local\Temp\ccVZoccs.s 			page 16


 133 0050 06F11800 		add	r0, r6, #24
 134 0054 FFF7FEFF 		bl	_ZN5daisy11UartHandler6PollTxEPhj
 135              	.LVL8:
 106:../DaisyExamples/libDaisy/src/hid/midi.h **** 
 136              		.loc 2 106 62 view .LVU35
 137              	.LBE331:
 138              	.LBE330:
 139              	.LBE329:
 421:MidiController.cpp **** 
 140              		.loc 1 421 1 view .LVU36
 141 0058 E7E7     		b	.L3
 142              	.LVL9:
 143              	.L12:
 421:MidiController.cpp **** 
 144              		.loc 1 421 1 view .LVU37
 145              	.LBE328:
 146              	.LBE327:
 321:MidiController.cpp ****         }
 147              		.loc 1 321 13 is_stmt 1 view .LVU38
 148              	.LBB332:
 149              	.LBI332:
 414:MidiController.cpp ****     usbMidi_.SendMessage(data, length);
 150              		.loc 1 414 6 view .LVU39
 151              	.LBB333:
 415:MidiController.cpp ****     // Note: SendMessage returns void, no error checking available
 152              		.loc 1 415 5 view .LVU40
 153              	.LBB334:
 154              	.LBI334:
 155              		.loc 2 208 10 view .LVU41
 156              	.LBB335:
 209:../DaisyExamples/libDaisy/src/hid/midi.h ****     {
 210:../DaisyExamples/libDaisy/src/hid/midi.h ****         transport_.Tx(bytes, size);
 157              		.loc 2 210 22 is_stmt 0 view .LVU42
 158 005a 49F26C10 		movw	r0, #37228
 159              	.LVL10:
 160              		.loc 2 210 22 view .LVU43
 161 005e 0222     		movs	r2, #2
 162 0060 01A9     		add	r1, sp, #4
 163              	.LVL11:
 164              		.loc 2 210 22 view .LVU44
 165 0062 3044     		add	r0, r0, r6
 166 0064 FFF7FEFF 		bl	_ZN5daisy16MidiUsbTransport2TxEPhj
 167              	.LVL12:
 168              		.loc 2 210 22 view .LVU45
 169              	.LBE335:
 170              	.LBE334:
 171              	.LBE333:
 172              	.LBE332:
 326:MidiController.cpp ****         if (uartConnected_) {
 173              		.loc 1 326 9 view .LVU46
 174 0068 94F8AD32 		ldrb	r3, [r4, #685]	@ zero_extendqisi2
 175              	.LBB337:
 176              	.LBB336:
 417:MidiController.cpp **** 
 177              		.loc 1 417 1 view .LVU47
 178 006c DAE7     		b	.L2
 179              	.LBE336:
ARM GAS  C:\Users\Marco\AppData\Local\Temp\ccVZoccs.s 			page 17


 180              	.LBE337:
 181              		.cfi_endproc
 182              	.LFE2681:
 184 006e 00BF     		.section	.text._ZN14MidiControllerC2Ev,"ax",%progbits
 185              		.align	1
 186              		.p2align 2,,3
 187              		.global	_ZN14MidiControllerC2Ev
 188              		.syntax unified
 189              		.thumb
 190              		.thumb_func
 191              		.fpu fpv5-d16
 193              	_ZN14MidiControllerC2Ev:
 194              	.LVL13:
 195              	.LFB2561:
   4:MidiController.cpp ****     : hardware_(nullptr), config_(nullptr), midiChannel_(1), 
 196              		.loc 1 4 1 is_stmt 1 view -0
 197              		.cfi_startproc
 198              		@ args = 0, pretend = 0, frame = 0
 199              		@ frame_needed = 0, uses_anonymous_args = 0
   4:MidiController.cpp ****     : hardware_(nullptr), config_(nullptr), midiChannel_(1), 
 200              		.loc 1 4 1 is_stmt 0 view .LVU49
 201 0000 F8B5     		push	{r3, r4, r5, r6, r7, lr}
 202              		.cfi_def_cfa_offset 24
 203              		.cfi_offset 3, -24
 204              		.cfi_offset 4, -20
 205              		.cfi_offset 5, -16
 206              		.cfi_offset 6, -12
 207              		.cfi_offset 7, -8
 208              		.cfi_offset 14, -4
 209              	.LBB376:
  10:MidiController.cpp ****     
 210              		.loc 1 10 26 view .LVU50
 211 0002 0025     		movs	r5, #0
 212              	.LBE376:
   4:MidiController.cpp ****     : hardware_(nullptr), config_(nullptr), midiChannel_(1), 
 213              		.loc 1 4 1 view .LVU51
 214 0004 0446     		mov	r4, r0
 215              	.LBB450:
 216              	.LBB377:
 217              	.LBB378:
 218              	.LBB379:
 158:../DaisyExamples/libDaisy/src/hid/midi.h ****     {
 219              		.loc 2 158 12 view .LVU52
 220 0006 0830     		adds	r0, r0, #8
 221              	.LVL14:
 158:../DaisyExamples/libDaisy/src/hid/midi.h ****     {
 222              		.loc 2 158 12 view .LVU53
 223              	.LBE379:
 224              	.LBE378:
 225              	.LBB381:
 226              	.LBB382:
 227              	.LBB383:
 228              	.LBB384:
 229              		.file 3 "../DaisyExamples/libDaisy/src/util/FIFO.h"
   1:../DaisyExamples/libDaisy/src/util/FIFO.h **** #pragma once
   2:../DaisyExamples/libDaisy/src/util/FIFO.h **** 
   3:../DaisyExamples/libDaisy/src/util/FIFO.h **** #include <stdint.h>
ARM GAS  C:\Users\Marco\AppData\Local\Temp\ccVZoccs.s 			page 18


   4:../DaisyExamples/libDaisy/src/util/FIFO.h **** #include <stddef.h>
   5:../DaisyExamples/libDaisy/src/util/FIFO.h **** #include <initializer_list>
   6:../DaisyExamples/libDaisy/src/util/FIFO.h **** 
   7:../DaisyExamples/libDaisy/src/util/FIFO.h **** namespace daisy
   8:../DaisyExamples/libDaisy/src/util/FIFO.h **** {
   9:../DaisyExamples/libDaisy/src/util/FIFO.h **** /** Capacity-independent base class for FIFO. Use FIFO instead. */
  10:../DaisyExamples/libDaisy/src/util/FIFO.h **** template <typename T>
  11:../DaisyExamples/libDaisy/src/util/FIFO.h **** class FIFOBase
  12:../DaisyExamples/libDaisy/src/util/FIFO.h **** {
  13:../DaisyExamples/libDaisy/src/util/FIFO.h ****   protected:
  14:../DaisyExamples/libDaisy/src/util/FIFO.h ****     FIFOBase(T* buffer, size_t bufferSize)
  15:../DaisyExamples/libDaisy/src/util/FIFO.h ****     : buffer_(buffer), bufferSize_(bufferSize), bufferIn_(0), bufferOut_(0)
 230              		.loc 3 15 75 view .LVU54
 231 0008 40F20116 		movw	r6, #257
 232              	.LBE384:
 233              	.LBE383:
  16:../DaisyExamples/libDaisy/src/util/FIFO.h ****     {
  17:../DaisyExamples/libDaisy/src/util/FIFO.h ****     }
  18:../DaisyExamples/libDaisy/src/util/FIFO.h **** 
  19:../DaisyExamples/libDaisy/src/util/FIFO.h ****     FIFOBase(T* buffer, size_t bufferSize, std::initializer_list<T> valuesToAdd)
  20:../DaisyExamples/libDaisy/src/util/FIFO.h ****     : buffer_(buffer), bufferSize_(bufferSize), bufferIn_(0), bufferOut_(0)
  21:../DaisyExamples/libDaisy/src/util/FIFO.h ****     {
  22:../DaisyExamples/libDaisy/src/util/FIFO.h ****         PushBack(valuesToAdd);
  23:../DaisyExamples/libDaisy/src/util/FIFO.h ****     }
  24:../DaisyExamples/libDaisy/src/util/FIFO.h **** 
  25:../DaisyExamples/libDaisy/src/util/FIFO.h ****   public:
  26:../DaisyExamples/libDaisy/src/util/FIFO.h ****     /** Copies all elements from another FIFO */
  27:../DaisyExamples/libDaisy/src/util/FIFO.h ****     FIFOBase<T>& operator=(const FIFOBase<T>& other)
  28:../DaisyExamples/libDaisy/src/util/FIFO.h ****     {
  29:../DaisyExamples/libDaisy/src/util/FIFO.h ****         bufferIn_ = bufferOut_ = 0;
  30:../DaisyExamples/libDaisy/src/util/FIFO.h ****         if(!other.IsEmpty())
  31:../DaisyExamples/libDaisy/src/util/FIFO.h ****         {
  32:../DaisyExamples/libDaisy/src/util/FIFO.h ****             int readPtr = other.bufferOut_;
  33:../DaisyExamples/libDaisy/src/util/FIFO.h ****             while((readPtr != other.bufferIn_) && (bufferIn_ < bufferSize_))
  34:../DaisyExamples/libDaisy/src/util/FIFO.h ****             {
  35:../DaisyExamples/libDaisy/src/util/FIFO.h ****                 buffer_[bufferIn_++] = other.buffer_[readPtr++];
  36:../DaisyExamples/libDaisy/src/util/FIFO.h ****                 if(readPtr >= other.bufferSize_)
  37:../DaisyExamples/libDaisy/src/util/FIFO.h ****                     readPtr -= other.bufferSize_;
  38:../DaisyExamples/libDaisy/src/util/FIFO.h ****             }
  39:../DaisyExamples/libDaisy/src/util/FIFO.h ****         }
  40:../DaisyExamples/libDaisy/src/util/FIFO.h ****         return *this;
  41:../DaisyExamples/libDaisy/src/util/FIFO.h ****     }
  42:../DaisyExamples/libDaisy/src/util/FIFO.h ****     ~FIFOBase() {}
  43:../DaisyExamples/libDaisy/src/util/FIFO.h **** 
  44:../DaisyExamples/libDaisy/src/util/FIFO.h ****     /** Removes all elements from the FIFO */
  45:../DaisyExamples/libDaisy/src/util/FIFO.h ****     void Clear() { bufferIn_ = bufferOut_ = 0; }
  46:../DaisyExamples/libDaisy/src/util/FIFO.h **** 
  47:../DaisyExamples/libDaisy/src/util/FIFO.h ****     /** Adds an element to the back of the buffer, returning true on
  48:../DaisyExamples/libDaisy/src/util/FIFO.h ****         success */
  49:../DaisyExamples/libDaisy/src/util/FIFO.h ****     bool PushBack(const T& elementToAdd)
  50:../DaisyExamples/libDaisy/src/util/FIFO.h ****     {
  51:../DaisyExamples/libDaisy/src/util/FIFO.h ****         if(!IsFull())
  52:../DaisyExamples/libDaisy/src/util/FIFO.h ****         {
  53:../DaisyExamples/libDaisy/src/util/FIFO.h ****             buffer_[bufferIn_++] = elementToAdd;
  54:../DaisyExamples/libDaisy/src/util/FIFO.h ****             if(bufferIn_ >= bufferSize_)
  55:../DaisyExamples/libDaisy/src/util/FIFO.h ****                 bufferIn_ -= bufferSize_;
  56:../DaisyExamples/libDaisy/src/util/FIFO.h ****             return true;
ARM GAS  C:\Users\Marco\AppData\Local\Temp\ccVZoccs.s 			page 19


  57:../DaisyExamples/libDaisy/src/util/FIFO.h ****         }
  58:../DaisyExamples/libDaisy/src/util/FIFO.h ****         return false;
  59:../DaisyExamples/libDaisy/src/util/FIFO.h ****     }
  60:../DaisyExamples/libDaisy/src/util/FIFO.h **** 
  61:../DaisyExamples/libDaisy/src/util/FIFO.h ****     /** Adds multiple elements and returns the number of elements that were added */
  62:../DaisyExamples/libDaisy/src/util/FIFO.h ****     int PushBack(std::initializer_list<T> valuesToAdd)
  63:../DaisyExamples/libDaisy/src/util/FIFO.h ****     {
  64:../DaisyExamples/libDaisy/src/util/FIFO.h ****         int numAdded = 0;
  65:../DaisyExamples/libDaisy/src/util/FIFO.h ****         for(const auto& v : valuesToAdd)
  66:../DaisyExamples/libDaisy/src/util/FIFO.h ****         {
  67:../DaisyExamples/libDaisy/src/util/FIFO.h ****             if(IsFull())
  68:../DaisyExamples/libDaisy/src/util/FIFO.h ****                 return numAdded;
  69:../DaisyExamples/libDaisy/src/util/FIFO.h **** 
  70:../DaisyExamples/libDaisy/src/util/FIFO.h ****             PushBack(v);
  71:../DaisyExamples/libDaisy/src/util/FIFO.h ****             numAdded++;
  72:../DaisyExamples/libDaisy/src/util/FIFO.h ****         }
  73:../DaisyExamples/libDaisy/src/util/FIFO.h ****         return numAdded;
  74:../DaisyExamples/libDaisy/src/util/FIFO.h ****     }
  75:../DaisyExamples/libDaisy/src/util/FIFO.h **** 
  76:../DaisyExamples/libDaisy/src/util/FIFO.h ****     /** returns a reference to the last element */
  77:../DaisyExamples/libDaisy/src/util/FIFO.h ****     T& Back()
  78:../DaisyExamples/libDaisy/src/util/FIFO.h ****     {
  79:../DaisyExamples/libDaisy/src/util/FIFO.h ****         if(IsEmpty())
  80:../DaisyExamples/libDaisy/src/util/FIFO.h ****             // invalid, but better not pass a temporary T() object as a reference...
  81:../DaisyExamples/libDaisy/src/util/FIFO.h ****             return buffer_[0];
  82:../DaisyExamples/libDaisy/src/util/FIFO.h ****         int idx = bufferIn_ - 1;
  83:../DaisyExamples/libDaisy/src/util/FIFO.h ****         if(idx < 0)
  84:../DaisyExamples/libDaisy/src/util/FIFO.h ****             idx += bufferSize_;
  85:../DaisyExamples/libDaisy/src/util/FIFO.h ****         return buffer_[idx];
  86:../DaisyExamples/libDaisy/src/util/FIFO.h ****     }
  87:../DaisyExamples/libDaisy/src/util/FIFO.h **** 
  88:../DaisyExamples/libDaisy/src/util/FIFO.h ****     /** returns a reference to the last element */
  89:../DaisyExamples/libDaisy/src/util/FIFO.h ****     const T& Back() const
  90:../DaisyExamples/libDaisy/src/util/FIFO.h ****     {
  91:../DaisyExamples/libDaisy/src/util/FIFO.h ****         if(IsEmpty())
  92:../DaisyExamples/libDaisy/src/util/FIFO.h ****             // invalid, but better not pass a temporary T() object as a reference...
  93:../DaisyExamples/libDaisy/src/util/FIFO.h ****             return buffer_[0];
  94:../DaisyExamples/libDaisy/src/util/FIFO.h ****         int idx = bufferIn_ - 1;
  95:../DaisyExamples/libDaisy/src/util/FIFO.h ****         if(idx < 0)
  96:../DaisyExamples/libDaisy/src/util/FIFO.h ****             idx += bufferSize_;
  97:../DaisyExamples/libDaisy/src/util/FIFO.h ****         return buffer_[idx];
  98:../DaisyExamples/libDaisy/src/util/FIFO.h ****     }
  99:../DaisyExamples/libDaisy/src/util/FIFO.h **** 
 100:../DaisyExamples/libDaisy/src/util/FIFO.h ****     /** removes and returns an element from the front of the buffer */
 101:../DaisyExamples/libDaisy/src/util/FIFO.h ****     T PopFront()
 102:../DaisyExamples/libDaisy/src/util/FIFO.h ****     {
 103:../DaisyExamples/libDaisy/src/util/FIFO.h ****         if(IsEmpty())
 104:../DaisyExamples/libDaisy/src/util/FIFO.h ****             return T();
 105:../DaisyExamples/libDaisy/src/util/FIFO.h ****         else
 106:../DaisyExamples/libDaisy/src/util/FIFO.h ****         {
 107:../DaisyExamples/libDaisy/src/util/FIFO.h ****             const auto result = buffer_[bufferOut_];
 108:../DaisyExamples/libDaisy/src/util/FIFO.h ****             bufferOut_++;
 109:../DaisyExamples/libDaisy/src/util/FIFO.h ****             if(bufferOut_ >= bufferSize_)
 110:../DaisyExamples/libDaisy/src/util/FIFO.h ****                 bufferOut_ -= bufferSize_;
 111:../DaisyExamples/libDaisy/src/util/FIFO.h ****             return result;
 112:../DaisyExamples/libDaisy/src/util/FIFO.h ****         }
 113:../DaisyExamples/libDaisy/src/util/FIFO.h ****     }
ARM GAS  C:\Users\Marco\AppData\Local\Temp\ccVZoccs.s 			page 20


 114:../DaisyExamples/libDaisy/src/util/FIFO.h **** 
 115:../DaisyExamples/libDaisy/src/util/FIFO.h ****     /** returns a copy of the first element */
 116:../DaisyExamples/libDaisy/src/util/FIFO.h ****     T& Front()
 117:../DaisyExamples/libDaisy/src/util/FIFO.h ****     {
 118:../DaisyExamples/libDaisy/src/util/FIFO.h ****         if(IsEmpty())
 119:../DaisyExamples/libDaisy/src/util/FIFO.h ****             // invalid, but better not pass a temporary T() object as a reference...
 120:../DaisyExamples/libDaisy/src/util/FIFO.h ****             return buffer_[0];
 121:../DaisyExamples/libDaisy/src/util/FIFO.h ****         return buffer_[bufferOut_];
 122:../DaisyExamples/libDaisy/src/util/FIFO.h ****     }
 123:../DaisyExamples/libDaisy/src/util/FIFO.h **** 
 124:../DaisyExamples/libDaisy/src/util/FIFO.h ****     /** returns a reference to the first element */
 125:../DaisyExamples/libDaisy/src/util/FIFO.h ****     const T& Front() const
 126:../DaisyExamples/libDaisy/src/util/FIFO.h ****     {
 127:../DaisyExamples/libDaisy/src/util/FIFO.h ****         if(IsEmpty())
 128:../DaisyExamples/libDaisy/src/util/FIFO.h ****             // invalid, but better not pass a temporary T() object as a reference...
 129:../DaisyExamples/libDaisy/src/util/FIFO.h ****             return buffer_[0];
 130:../DaisyExamples/libDaisy/src/util/FIFO.h ****         return buffer_[bufferOut_];
 131:../DaisyExamples/libDaisy/src/util/FIFO.h ****     }
 132:../DaisyExamples/libDaisy/src/util/FIFO.h **** 
 133:../DaisyExamples/libDaisy/src/util/FIFO.h ****     /** Returns true if the buffer contains an element equal to the provided value */
 134:../DaisyExamples/libDaisy/src/util/FIFO.h ****     bool Contains(const T& element)
 135:../DaisyExamples/libDaisy/src/util/FIFO.h ****     {
 136:../DaisyExamples/libDaisy/src/util/FIFO.h ****         auto idx = bufferOut_;
 137:../DaisyExamples/libDaisy/src/util/FIFO.h ****         while(idx != bufferIn_)
 138:../DaisyExamples/libDaisy/src/util/FIFO.h ****         {
 139:../DaisyExamples/libDaisy/src/util/FIFO.h ****             if(buffer_[idx] == element)
 140:../DaisyExamples/libDaisy/src/util/FIFO.h ****                 return true;
 141:../DaisyExamples/libDaisy/src/util/FIFO.h ****             idx++;
 142:../DaisyExamples/libDaisy/src/util/FIFO.h ****             if(idx >= bufferSize_)
 143:../DaisyExamples/libDaisy/src/util/FIFO.h ****                 idx -= bufferSize_;
 144:../DaisyExamples/libDaisy/src/util/FIFO.h ****         }
 145:../DaisyExamples/libDaisy/src/util/FIFO.h ****         return false;
 146:../DaisyExamples/libDaisy/src/util/FIFO.h ****     }
 147:../DaisyExamples/libDaisy/src/util/FIFO.h **** 
 148:../DaisyExamples/libDaisy/src/util/FIFO.h ****     /** Returns the number of elements in the buffer that are equal to the provided value */
 149:../DaisyExamples/libDaisy/src/util/FIFO.h ****     size_t CountEqualTo(const T& element)
 150:../DaisyExamples/libDaisy/src/util/FIFO.h ****     {
 151:../DaisyExamples/libDaisy/src/util/FIFO.h ****         size_t result = 0;
 152:../DaisyExamples/libDaisy/src/util/FIFO.h ****         size_t idx    = bufferOut_;
 153:../DaisyExamples/libDaisy/src/util/FIFO.h ****         while(idx != bufferIn_)
 154:../DaisyExamples/libDaisy/src/util/FIFO.h ****         {
 155:../DaisyExamples/libDaisy/src/util/FIFO.h ****             if(buffer_[idx] == element)
 156:../DaisyExamples/libDaisy/src/util/FIFO.h ****                 result++;
 157:../DaisyExamples/libDaisy/src/util/FIFO.h ****             idx++;
 158:../DaisyExamples/libDaisy/src/util/FIFO.h ****             if(idx >= bufferSize_)
 159:../DaisyExamples/libDaisy/src/util/FIFO.h ****                 idx -= bufferSize_;
 160:../DaisyExamples/libDaisy/src/util/FIFO.h ****         }
 161:../DaisyExamples/libDaisy/src/util/FIFO.h ****         return result;
 162:../DaisyExamples/libDaisy/src/util/FIFO.h ****     }
 163:../DaisyExamples/libDaisy/src/util/FIFO.h **** 
 164:../DaisyExamples/libDaisy/src/util/FIFO.h ****     /** returns true, if the buffer is empty */
 165:../DaisyExamples/libDaisy/src/util/FIFO.h ****     bool IsEmpty() const { return bufferIn_ == bufferOut_; }
 166:../DaisyExamples/libDaisy/src/util/FIFO.h **** 
 167:../DaisyExamples/libDaisy/src/util/FIFO.h ****     /** returns true, if the buffer is Full */
 168:../DaisyExamples/libDaisy/src/util/FIFO.h ****     bool IsFull() const { return GetNumElements() == bufferSize_ - 1; }
 169:../DaisyExamples/libDaisy/src/util/FIFO.h **** 
 170:../DaisyExamples/libDaisy/src/util/FIFO.h ****     /** returns the number of elements in the buffer */
ARM GAS  C:\Users\Marco\AppData\Local\Temp\ccVZoccs.s 			page 21


 171:../DaisyExamples/libDaisy/src/util/FIFO.h ****     size_t GetNumElements() const
 172:../DaisyExamples/libDaisy/src/util/FIFO.h ****     {
 173:../DaisyExamples/libDaisy/src/util/FIFO.h ****         int32_t numElements = bufferIn_ - bufferOut_;
 174:../DaisyExamples/libDaisy/src/util/FIFO.h ****         if(numElements < 0)
 175:../DaisyExamples/libDaisy/src/util/FIFO.h ****             numElements += bufferSize_;
 176:../DaisyExamples/libDaisy/src/util/FIFO.h ****         return size_t(numElements);
 177:../DaisyExamples/libDaisy/src/util/FIFO.h ****     }
 178:../DaisyExamples/libDaisy/src/util/FIFO.h **** 
 179:../DaisyExamples/libDaisy/src/util/FIFO.h ****     /** inserts an element "idx" positions behind the first element and returns true if successful 
 180:../DaisyExamples/libDaisy/src/util/FIFO.h ****     bool Insert(size_t idx, const T& element)
 181:../DaisyExamples/libDaisy/src/util/FIFO.h ****     {
 182:../DaisyExamples/libDaisy/src/util/FIFO.h ****         if(idx > GetNumElements())
 183:../DaisyExamples/libDaisy/src/util/FIFO.h ****             return false;
 184:../DaisyExamples/libDaisy/src/util/FIFO.h ****         if(IsFull())
 185:../DaisyExamples/libDaisy/src/util/FIFO.h ****             return false;
 186:../DaisyExamples/libDaisy/src/util/FIFO.h ****         if(idx == GetNumElements())
 187:../DaisyExamples/libDaisy/src/util/FIFO.h ****         {
 188:../DaisyExamples/libDaisy/src/util/FIFO.h ****             PushBack(element);
 189:../DaisyExamples/libDaisy/src/util/FIFO.h ****             return true;
 190:../DaisyExamples/libDaisy/src/util/FIFO.h ****         }
 191:../DaisyExamples/libDaisy/src/util/FIFO.h ****         // copy last element
 192:../DaisyExamples/libDaisy/src/util/FIFO.h ****         PushBack(Back());
 193:../DaisyExamples/libDaisy/src/util/FIFO.h ****         // move remaining elements: n => n+1
 194:../DaisyExamples/libDaisy/src/util/FIFO.h ****         for(int i = GetNumElements() - 2; i > int(idx); i--)
 195:../DaisyExamples/libDaisy/src/util/FIFO.h ****             (*this)[i] = (*this)[i - 1];
 196:../DaisyExamples/libDaisy/src/util/FIFO.h ****         // insert element
 197:../DaisyExamples/libDaisy/src/util/FIFO.h ****         (*this)[idx] = element;
 198:../DaisyExamples/libDaisy/src/util/FIFO.h ****         return true;
 199:../DaisyExamples/libDaisy/src/util/FIFO.h ****     }
 200:../DaisyExamples/libDaisy/src/util/FIFO.h **** 
 201:../DaisyExamples/libDaisy/src/util/FIFO.h ****     /** removes the element "idx" positions behind the first element 
 202:../DaisyExamples/libDaisy/src/util/FIFO.h ****      *  and returns true if successful */
 203:../DaisyExamples/libDaisy/src/util/FIFO.h ****     bool Remove(size_t idx)
 204:../DaisyExamples/libDaisy/src/util/FIFO.h ****     {
 205:../DaisyExamples/libDaisy/src/util/FIFO.h ****         if(idx >= GetNumElements())
 206:../DaisyExamples/libDaisy/src/util/FIFO.h ****             return false;
 207:../DaisyExamples/libDaisy/src/util/FIFO.h **** 
 208:../DaisyExamples/libDaisy/src/util/FIFO.h ****         size_t index = bufferOut_ + idx;
 209:../DaisyExamples/libDaisy/src/util/FIFO.h ****         if(index >= bufferSize_)
 210:../DaisyExamples/libDaisy/src/util/FIFO.h ****             index -= bufferSize_;
 211:../DaisyExamples/libDaisy/src/util/FIFO.h ****         size_t nextIndex = index + 1;
 212:../DaisyExamples/libDaisy/src/util/FIFO.h ****         if(nextIndex >= bufferSize_)
 213:../DaisyExamples/libDaisy/src/util/FIFO.h ****             nextIndex -= bufferSize_;
 214:../DaisyExamples/libDaisy/src/util/FIFO.h **** 
 215:../DaisyExamples/libDaisy/src/util/FIFO.h ****         while(nextIndex != bufferIn_)
 216:../DaisyExamples/libDaisy/src/util/FIFO.h ****         {
 217:../DaisyExamples/libDaisy/src/util/FIFO.h ****             buffer_[index] = buffer_[nextIndex];
 218:../DaisyExamples/libDaisy/src/util/FIFO.h ****             index++;
 219:../DaisyExamples/libDaisy/src/util/FIFO.h ****             nextIndex++;
 220:../DaisyExamples/libDaisy/src/util/FIFO.h ****             if(index >= bufferSize_)
 221:../DaisyExamples/libDaisy/src/util/FIFO.h ****                 index -= bufferSize_;
 222:../DaisyExamples/libDaisy/src/util/FIFO.h ****             if(nextIndex >= bufferSize_)
 223:../DaisyExamples/libDaisy/src/util/FIFO.h ****                 nextIndex -= bufferSize_;
 224:../DaisyExamples/libDaisy/src/util/FIFO.h ****         }
 225:../DaisyExamples/libDaisy/src/util/FIFO.h **** 
 226:../DaisyExamples/libDaisy/src/util/FIFO.h ****         int32_t nextBufferIn = int32_t(bufferIn_) - 1;
 227:../DaisyExamples/libDaisy/src/util/FIFO.h ****         if(nextBufferIn < 0)
ARM GAS  C:\Users\Marco\AppData\Local\Temp\ccVZoccs.s 			page 22


 228:../DaisyExamples/libDaisy/src/util/FIFO.h ****             nextBufferIn += bufferSize_;
 229:../DaisyExamples/libDaisy/src/util/FIFO.h ****         bufferIn_ = size_t(nextBufferIn);
 230:../DaisyExamples/libDaisy/src/util/FIFO.h **** 
 231:../DaisyExamples/libDaisy/src/util/FIFO.h ****         return true;
 232:../DaisyExamples/libDaisy/src/util/FIFO.h ****     }
 233:../DaisyExamples/libDaisy/src/util/FIFO.h **** 
 234:../DaisyExamples/libDaisy/src/util/FIFO.h ****     /** removes all elements from the buffer for which
 235:../DaisyExamples/libDaisy/src/util/FIFO.h ****         (buffer(index) == element) returns true and returns the number of
 236:../DaisyExamples/libDaisy/src/util/FIFO.h ****         elements that were removed. */
 237:../DaisyExamples/libDaisy/src/util/FIFO.h ****     size_t RemoveAllEqualTo(const T& element)
 238:../DaisyExamples/libDaisy/src/util/FIFO.h ****     {
 239:../DaisyExamples/libDaisy/src/util/FIFO.h ****         size_t numRemoved = 0;
 240:../DaisyExamples/libDaisy/src/util/FIFO.h ****         int    idx        = GetNumElements() - 1;
 241:../DaisyExamples/libDaisy/src/util/FIFO.h ****         while(idx >= 0)
 242:../DaisyExamples/libDaisy/src/util/FIFO.h ****         {
 243:../DaisyExamples/libDaisy/src/util/FIFO.h ****             if((*this)[idx] == element)
 244:../DaisyExamples/libDaisy/src/util/FIFO.h ****             {
 245:../DaisyExamples/libDaisy/src/util/FIFO.h ****                 numRemoved++;
 246:../DaisyExamples/libDaisy/src/util/FIFO.h ****                 Remove(idx);
 247:../DaisyExamples/libDaisy/src/util/FIFO.h ****                 // was that the last element?
 248:../DaisyExamples/libDaisy/src/util/FIFO.h ****                 if(idx == int(GetNumElements()) - 1)
 249:../DaisyExamples/libDaisy/src/util/FIFO.h ****                     idx--;
 250:../DaisyExamples/libDaisy/src/util/FIFO.h ****             }
 251:../DaisyExamples/libDaisy/src/util/FIFO.h ****             else
 252:../DaisyExamples/libDaisy/src/util/FIFO.h ****                 idx--;
 253:../DaisyExamples/libDaisy/src/util/FIFO.h ****         }
 254:../DaisyExamples/libDaisy/src/util/FIFO.h ****         return numRemoved;
 255:../DaisyExamples/libDaisy/src/util/FIFO.h ****     }
 256:../DaisyExamples/libDaisy/src/util/FIFO.h **** 
 257:../DaisyExamples/libDaisy/src/util/FIFO.h ****     /** returns the element "idx" positions behind the first element */
 258:../DaisyExamples/libDaisy/src/util/FIFO.h ****     T& operator[](size_t idx)
 259:../DaisyExamples/libDaisy/src/util/FIFO.h ****     {
 260:../DaisyExamples/libDaisy/src/util/FIFO.h ****         if(idx >= GetNumElements())
 261:../DaisyExamples/libDaisy/src/util/FIFO.h ****             // invalid, but better not pass a temporary T() object as a reference...
 262:../DaisyExamples/libDaisy/src/util/FIFO.h ****             return buffer_[0];
 263:../DaisyExamples/libDaisy/src/util/FIFO.h **** 
 264:../DaisyExamples/libDaisy/src/util/FIFO.h ****         size_t index = bufferOut_ + idx;
 265:../DaisyExamples/libDaisy/src/util/FIFO.h ****         if(index >= bufferSize_)
 266:../DaisyExamples/libDaisy/src/util/FIFO.h ****             index -= bufferSize_;
 267:../DaisyExamples/libDaisy/src/util/FIFO.h ****         return buffer_[index];
 268:../DaisyExamples/libDaisy/src/util/FIFO.h ****     }
 269:../DaisyExamples/libDaisy/src/util/FIFO.h **** 
 270:../DaisyExamples/libDaisy/src/util/FIFO.h ****     /** returns the element "idx" positions behind the first element */
 271:../DaisyExamples/libDaisy/src/util/FIFO.h ****     const T& operator[](size_t idx) const
 272:../DaisyExamples/libDaisy/src/util/FIFO.h ****     {
 273:../DaisyExamples/libDaisy/src/util/FIFO.h ****         if(idx >= GetNumElements())
 274:../DaisyExamples/libDaisy/src/util/FIFO.h ****             // invalid, but better not pass a temporary T() object as a reference...
 275:../DaisyExamples/libDaisy/src/util/FIFO.h ****             return buffer_[0];
 276:../DaisyExamples/libDaisy/src/util/FIFO.h **** 
 277:../DaisyExamples/libDaisy/src/util/FIFO.h ****         size_t index = bufferOut_ + idx;
 278:../DaisyExamples/libDaisy/src/util/FIFO.h ****         if(index >= bufferSize_)
 279:../DaisyExamples/libDaisy/src/util/FIFO.h ****             index -= bufferSize_;
 280:../DaisyExamples/libDaisy/src/util/FIFO.h ****         return buffer_[index];
 281:../DaisyExamples/libDaisy/src/util/FIFO.h ****     }
 282:../DaisyExamples/libDaisy/src/util/FIFO.h **** 
 283:../DaisyExamples/libDaisy/src/util/FIFO.h ****     /** returns the total capacity */
 284:../DaisyExamples/libDaisy/src/util/FIFO.h ****     size_t GetCapacity() const { return bufferSize_ - 1; }
ARM GAS  C:\Users\Marco\AppData\Local\Temp\ccVZoccs.s 			page 23


 285:../DaisyExamples/libDaisy/src/util/FIFO.h **** 
 286:../DaisyExamples/libDaisy/src/util/FIFO.h ****   private:
 287:../DaisyExamples/libDaisy/src/util/FIFO.h ****     FIFOBase(const FIFOBase<T>&) {} // non copyable
 288:../DaisyExamples/libDaisy/src/util/FIFO.h **** 
 289:../DaisyExamples/libDaisy/src/util/FIFO.h ****   private:
 290:../DaisyExamples/libDaisy/src/util/FIFO.h ****     T*           buffer_;
 291:../DaisyExamples/libDaisy/src/util/FIFO.h ****     const size_t bufferSize_;
 292:../DaisyExamples/libDaisy/src/util/FIFO.h ****     size_t       bufferIn_;
 293:../DaisyExamples/libDaisy/src/util/FIFO.h ****     size_t       bufferOut_;
 294:../DaisyExamples/libDaisy/src/util/FIFO.h **** };
 295:../DaisyExamples/libDaisy/src/util/FIFO.h **** 
 296:../DaisyExamples/libDaisy/src/util/FIFO.h **** /** A simple FIFO ring buffer with a fixed size. */
 297:../DaisyExamples/libDaisy/src/util/FIFO.h **** template <typename T, size_t capacity>
 298:../DaisyExamples/libDaisy/src/util/FIFO.h **** class FIFO : public FIFOBase<T>
 299:../DaisyExamples/libDaisy/src/util/FIFO.h **** {
 300:../DaisyExamples/libDaisy/src/util/FIFO.h ****   public:
 301:../DaisyExamples/libDaisy/src/util/FIFO.h ****     /** Creates an empty FIFO */
 302:../DaisyExamples/libDaisy/src/util/FIFO.h ****     FIFO() : FIFOBase<T>(buffer_, capacity + 1) {}
 234              		.loc 3 302 26 view .LVU55
 235 000c 04F1D807 		add	r7, r4, #216
 236              	.LBE382:
 237              	.LBE381:
 238              	.LBE377:
  10:MidiController.cpp ****     
 239              		.loc 1 10 26 view .LVU56
 240 0010 C4E90055 		strd	r5, r5, [r4]
 241              	.LVL15:
 242              	.LBB401:
 243              	.LBI377:
 155:../DaisyExamples/libDaisy/src/hid/midi.h ****     ~MidiHandler() {}
 244              		.loc 2 155 5 is_stmt 1 view .LVU57
 245              	.LBB388:
 246              	.LBI378:
 158:../DaisyExamples/libDaisy/src/hid/midi.h ****     {
 247              		.loc 2 158 12 view .LVU58
 248              	.LBB380:
 249 0014 FFF7FEFF 		bl	_ZN5daisy17MidiUartTransport6ConfigC1Ev
 250              	.LVL16:
 158:../DaisyExamples/libDaisy/src/hid/midi.h ****     {
 251              		.loc 2 158 12 is_stmt 0 view .LVU59
 252              	.LBE380:
 253              	.LBE388:
 254              	.LBB389:
 255              	.LBI389:
  31:../DaisyExamples/libDaisy/src/hid/midi.h ****     ~MidiUartTransport() {}
 256              		.loc 2 31 5 is_stmt 1 view .LVU60
 257              	.LBB390:
 258              	.LBI390:
 259              		.file 4 "../DaisyExamples/libDaisy/src/per/uart.h"
   1:../DaisyExamples/libDaisy/src/per/uart.h **** /* 
   2:../DaisyExamples/libDaisy/src/per/uart.h **** TODO
   3:../DaisyExamples/libDaisy/src/per/uart.h **** - Overflow handling, etc. for Rx Queue.
   4:../DaisyExamples/libDaisy/src/per/uart.h **** */
   5:../DaisyExamples/libDaisy/src/per/uart.h **** 
   6:../DaisyExamples/libDaisy/src/per/uart.h **** #pragma once
   7:../DaisyExamples/libDaisy/src/per/uart.h **** #ifndef DSY_UART_H
   8:../DaisyExamples/libDaisy/src/per/uart.h **** #define DSY_UART_H /**< macro */
ARM GAS  C:\Users\Marco\AppData\Local\Temp\ccVZoccs.s 			page 24


   9:../DaisyExamples/libDaisy/src/per/uart.h **** #include "daisy_core.h"
  10:../DaisyExamples/libDaisy/src/per/uart.h **** 
  11:../DaisyExamples/libDaisy/src/per/uart.h **** 
  12:../DaisyExamples/libDaisy/src/per/uart.h **** namespace daisy
  13:../DaisyExamples/libDaisy/src/per/uart.h **** {
  14:../DaisyExamples/libDaisy/src/per/uart.h **** /** @addtogroup serial
  15:../DaisyExamples/libDaisy/src/per/uart.h ****     @{
  16:../DaisyExamples/libDaisy/src/per/uart.h ****     */
  17:../DaisyExamples/libDaisy/src/per/uart.h **** 
  18:../DaisyExamples/libDaisy/src/per/uart.h **** /** 
  19:../DaisyExamples/libDaisy/src/per/uart.h ****     Uart Peripheral
  20:../DaisyExamples/libDaisy/src/per/uart.h ****     @author shensley
  21:../DaisyExamples/libDaisy/src/per/uart.h ****     @date March 2020
  22:../DaisyExamples/libDaisy/src/per/uart.h ****     */
  23:../DaisyExamples/libDaisy/src/per/uart.h **** class UartHandler
  24:../DaisyExamples/libDaisy/src/per/uart.h **** {
  25:../DaisyExamples/libDaisy/src/per/uart.h ****   public:
  26:../DaisyExamples/libDaisy/src/per/uart.h ****     struct Config
  27:../DaisyExamples/libDaisy/src/per/uart.h ****     {
  28:../DaisyExamples/libDaisy/src/per/uart.h ****         enum class Peripheral
  29:../DaisyExamples/libDaisy/src/per/uart.h ****         {
  30:../DaisyExamples/libDaisy/src/per/uart.h ****             USART_1,
  31:../DaisyExamples/libDaisy/src/per/uart.h ****             USART_2,
  32:../DaisyExamples/libDaisy/src/per/uart.h ****             USART_3,
  33:../DaisyExamples/libDaisy/src/per/uart.h ****             UART_4,
  34:../DaisyExamples/libDaisy/src/per/uart.h ****             UART_5,
  35:../DaisyExamples/libDaisy/src/per/uart.h ****             USART_6,
  36:../DaisyExamples/libDaisy/src/per/uart.h ****             UART_7,
  37:../DaisyExamples/libDaisy/src/per/uart.h ****             UART_8,
  38:../DaisyExamples/libDaisy/src/per/uart.h ****             LPUART_1,
  39:../DaisyExamples/libDaisy/src/per/uart.h ****         };
  40:../DaisyExamples/libDaisy/src/per/uart.h **** 
  41:../DaisyExamples/libDaisy/src/per/uart.h ****         enum class StopBits
  42:../DaisyExamples/libDaisy/src/per/uart.h ****         {
  43:../DaisyExamples/libDaisy/src/per/uart.h ****             BITS_0_5,
  44:../DaisyExamples/libDaisy/src/per/uart.h ****             BITS_1,
  45:../DaisyExamples/libDaisy/src/per/uart.h ****             BITS_1_5,
  46:../DaisyExamples/libDaisy/src/per/uart.h ****             BITS_2,
  47:../DaisyExamples/libDaisy/src/per/uart.h ****         };
  48:../DaisyExamples/libDaisy/src/per/uart.h **** 
  49:../DaisyExamples/libDaisy/src/per/uart.h ****         enum class Parity
  50:../DaisyExamples/libDaisy/src/per/uart.h ****         {
  51:../DaisyExamples/libDaisy/src/per/uart.h ****             NONE,
  52:../DaisyExamples/libDaisy/src/per/uart.h ****             EVEN,
  53:../DaisyExamples/libDaisy/src/per/uart.h ****             ODD,
  54:../DaisyExamples/libDaisy/src/per/uart.h ****         };
  55:../DaisyExamples/libDaisy/src/per/uart.h **** 
  56:../DaisyExamples/libDaisy/src/per/uart.h ****         enum class Mode
  57:../DaisyExamples/libDaisy/src/per/uart.h ****         {
  58:../DaisyExamples/libDaisy/src/per/uart.h ****             RX,
  59:../DaisyExamples/libDaisy/src/per/uart.h ****             TX,
  60:../DaisyExamples/libDaisy/src/per/uart.h ****             TX_RX,
  61:../DaisyExamples/libDaisy/src/per/uart.h ****         };
  62:../DaisyExamples/libDaisy/src/per/uart.h **** 
  63:../DaisyExamples/libDaisy/src/per/uart.h ****         enum class WordLength
  64:../DaisyExamples/libDaisy/src/per/uart.h ****         {
  65:../DaisyExamples/libDaisy/src/per/uart.h ****             BITS_7,
ARM GAS  C:\Users\Marco\AppData\Local\Temp\ccVZoccs.s 			page 25


  66:../DaisyExamples/libDaisy/src/per/uart.h ****             BITS_8,
  67:../DaisyExamples/libDaisy/src/per/uart.h ****             BITS_9,
  68:../DaisyExamples/libDaisy/src/per/uart.h ****         };
  69:../DaisyExamples/libDaisy/src/per/uart.h **** 
  70:../DaisyExamples/libDaisy/src/per/uart.h ****         struct
  71:../DaisyExamples/libDaisy/src/per/uart.h ****         {
  72:../DaisyExamples/libDaisy/src/per/uart.h ****             dsy_gpio_pin tx; /**< & */
  73:../DaisyExamples/libDaisy/src/per/uart.h ****             dsy_gpio_pin rx; /**< & */
  74:../DaisyExamples/libDaisy/src/per/uart.h ****         } pin_config;        /**< & */
  75:../DaisyExamples/libDaisy/src/per/uart.h **** 
  76:../DaisyExamples/libDaisy/src/per/uart.h ****         Config()
  77:../DaisyExamples/libDaisy/src/per/uart.h ****         {
  78:../DaisyExamples/libDaisy/src/per/uart.h ****             // user must init periph, pin_config, and mode
  79:../DaisyExamples/libDaisy/src/per/uart.h ****             stopbits   = StopBits::BITS_1;
  80:../DaisyExamples/libDaisy/src/per/uart.h ****             parity     = Parity::NONE;
  81:../DaisyExamples/libDaisy/src/per/uart.h ****             wordlength = WordLength::BITS_8;
  82:../DaisyExamples/libDaisy/src/per/uart.h ****             baudrate   = 31250;
  83:../DaisyExamples/libDaisy/src/per/uart.h ****         }
  84:../DaisyExamples/libDaisy/src/per/uart.h **** 
  85:../DaisyExamples/libDaisy/src/per/uart.h ****         Peripheral periph;
  86:../DaisyExamples/libDaisy/src/per/uart.h ****         StopBits   stopbits;
  87:../DaisyExamples/libDaisy/src/per/uart.h ****         Parity     parity;
  88:../DaisyExamples/libDaisy/src/per/uart.h ****         Mode       mode;
  89:../DaisyExamples/libDaisy/src/per/uart.h ****         WordLength wordlength;
  90:../DaisyExamples/libDaisy/src/per/uart.h ****         uint32_t   baudrate;
  91:../DaisyExamples/libDaisy/src/per/uart.h ****     };
  92:../DaisyExamples/libDaisy/src/per/uart.h **** 
  93:../DaisyExamples/libDaisy/src/per/uart.h **** 
  94:../DaisyExamples/libDaisy/src/per/uart.h ****     UartHandler() : pimpl_(nullptr) {}
 260              		.loc 4 94 5 view .LVU61
 261              	.LBE390:
 262              	.LBE389:
 263              	.LBE401:
 264              	.LBB402:
 265              	.LBB403:
 266              	.LBB404:
 267              		.loc 3 302 26 is_stmt 0 view .LVU62
 268 0018 49F21C20 		movw	r0, #37404
 269              	.LBE404:
 270              	.LBE403:
 271              	.LBB414:
 272              	.LBB415:
 273              	.LBB416:
 274              		.file 5 "../DaisyExamples/libDaisy/src/hid/usb_midi.h"
   1:../DaisyExamples/libDaisy/src/hid/usb_midi.h **** #pragma once
   2:../DaisyExamples/libDaisy/src/hid/usb_midi.h **** #ifndef __DSY_MIDIUSBTRANSPORT_H__
   3:../DaisyExamples/libDaisy/src/hid/usb_midi.h **** #define __DSY_MIDIUSBTRANSPORT_H__
   4:../DaisyExamples/libDaisy/src/hid/usb_midi.h **** 
   5:../DaisyExamples/libDaisy/src/hid/usb_midi.h **** #include "hid/usb.h"
   6:../DaisyExamples/libDaisy/src/hid/usb_midi.h **** #include "sys/system.h"
   7:../DaisyExamples/libDaisy/src/hid/usb_midi.h **** #include "util/ringbuffer.h"
   8:../DaisyExamples/libDaisy/src/hid/usb_midi.h **** 
   9:../DaisyExamples/libDaisy/src/hid/usb_midi.h **** namespace daisy
  10:../DaisyExamples/libDaisy/src/hid/usb_midi.h **** {
  11:../DaisyExamples/libDaisy/src/hid/usb_midi.h **** /** @brief USB Transport for MIDI
  12:../DaisyExamples/libDaisy/src/hid/usb_midi.h ****  *  @ingroup midi
  13:../DaisyExamples/libDaisy/src/hid/usb_midi.h ****  */
ARM GAS  C:\Users\Marco\AppData\Local\Temp\ccVZoccs.s 			page 26


  14:../DaisyExamples/libDaisy/src/hid/usb_midi.h **** class MidiUsbTransport
  15:../DaisyExamples/libDaisy/src/hid/usb_midi.h **** {
  16:../DaisyExamples/libDaisy/src/hid/usb_midi.h ****   public:
  17:../DaisyExamples/libDaisy/src/hid/usb_midi.h ****     typedef void (*MidiRxParseCallback)(uint8_t* data,
  18:../DaisyExamples/libDaisy/src/hid/usb_midi.h ****                                         size_t   size,
  19:../DaisyExamples/libDaisy/src/hid/usb_midi.h ****                                         void*    context);
  20:../DaisyExamples/libDaisy/src/hid/usb_midi.h **** 
  21:../DaisyExamples/libDaisy/src/hid/usb_midi.h ****     struct Config
  22:../DaisyExamples/libDaisy/src/hid/usb_midi.h ****     {
  23:../DaisyExamples/libDaisy/src/hid/usb_midi.h ****         enum Periph
  24:../DaisyExamples/libDaisy/src/hid/usb_midi.h ****         {
  25:../DaisyExamples/libDaisy/src/hid/usb_midi.h ****             INTERNAL = 0,
  26:../DaisyExamples/libDaisy/src/hid/usb_midi.h ****             EXTERNAL
  27:../DaisyExamples/libDaisy/src/hid/usb_midi.h ****         };
  28:../DaisyExamples/libDaisy/src/hid/usb_midi.h **** 
  29:../DaisyExamples/libDaisy/src/hid/usb_midi.h ****         Periph periph;
  30:../DaisyExamples/libDaisy/src/hid/usb_midi.h **** 
  31:../DaisyExamples/libDaisy/src/hid/usb_midi.h ****         /**
  32:../DaisyExamples/libDaisy/src/hid/usb_midi.h ****          * When sending MIDI messages immediately back-to-back in user code,
  33:../DaisyExamples/libDaisy/src/hid/usb_midi.h ****          * sometimes the USB CDC driver is still "busy".
  34:../DaisyExamples/libDaisy/src/hid/usb_midi.h ****          *
  35:../DaisyExamples/libDaisy/src/hid/usb_midi.h ****          * This option configures the number of times to retry a Tx after
  36:../DaisyExamples/libDaisy/src/hid/usb_midi.h ****          * delaying for 100 microseconds (default = 3 retries).
  37:../DaisyExamples/libDaisy/src/hid/usb_midi.h ****          *
  38:../DaisyExamples/libDaisy/src/hid/usb_midi.h ****          * If you set this to zero, Tx will not retry so the attempt will block
  39:../DaisyExamples/libDaisy/src/hid/usb_midi.h ****          * for slightly less time, but transmit can fail if the Tx state is busy.
  40:../DaisyExamples/libDaisy/src/hid/usb_midi.h ****          */
  41:../DaisyExamples/libDaisy/src/hid/usb_midi.h ****         uint8_t tx_retry_count;
  42:../DaisyExamples/libDaisy/src/hid/usb_midi.h **** 
  43:../DaisyExamples/libDaisy/src/hid/usb_midi.h ****         Config() : periph(INTERNAL), tx_retry_count(3) {}
 275              		.loc 5 43 54 view .LVU63
 276 001c 04F51041 		add	r1, r4, #36864
 277              	.LBE416:
 278              	.LBE415:
 279              	.LBE414:
 280              	.LBE402:
 281              	.LBB440:
 282              	.LBB393:
 283              	.LBB394:
 284              		.file 6 "../DaisyExamples/libDaisy/src/hid/midi_parser.h"
   1:../DaisyExamples/libDaisy/src/hid/midi_parser.h **** #pragma once
   2:../DaisyExamples/libDaisy/src/hid/midi_parser.h **** #ifndef DSY_MIDI_PARSER_H
   3:../DaisyExamples/libDaisy/src/hid/midi_parser.h **** #define DSY_MIDI_PARSER_H
   4:../DaisyExamples/libDaisy/src/hid/midi_parser.h **** 
   5:../DaisyExamples/libDaisy/src/hid/midi_parser.h **** #include <stdint.h>
   6:../DaisyExamples/libDaisy/src/hid/midi_parser.h **** #include <stdlib.h>
   7:../DaisyExamples/libDaisy/src/hid/midi_parser.h **** #include "hid/MidiEvent.h"
   8:../DaisyExamples/libDaisy/src/hid/midi_parser.h **** 
   9:../DaisyExamples/libDaisy/src/hid/midi_parser.h **** namespace daisy
  10:../DaisyExamples/libDaisy/src/hid/midi_parser.h **** {
  11:../DaisyExamples/libDaisy/src/hid/midi_parser.h **** /** @brief   Utility class for parsing raw byte streams into MIDI messages
  12:../DaisyExamples/libDaisy/src/hid/midi_parser.h ****  *  @details Implemented as a state machine designed to parse one byte at a time
  13:../DaisyExamples/libDaisy/src/hid/midi_parser.h ****  *  @ingroup midi
  14:../DaisyExamples/libDaisy/src/hid/midi_parser.h ****  */
  15:../DaisyExamples/libDaisy/src/hid/midi_parser.h **** class MidiParser
  16:../DaisyExamples/libDaisy/src/hid/midi_parser.h **** {
  17:../DaisyExamples/libDaisy/src/hid/midi_parser.h ****   public:
ARM GAS  C:\Users\Marco\AppData\Local\Temp\ccVZoccs.s 			page 27


  18:../DaisyExamples/libDaisy/src/hid/midi_parser.h ****     MidiParser(){};
 285              		.loc 6 18 17 view .LVU64
 286 0020 8022     		movs	r2, #128
 287 0022 47F6707E 		movw	lr, #32624
 288 0026 40F20F7C 		movw	ip, #1807
 289              	.LBE394:
 290              	.LBE393:
 291              	.LBE440:
 292              	.LBB441:
 293              	.LBB424:
 294              	.LBB410:
 295              		.loc 3 302 26 view .LVU65
 296 002a 2044     		add	r0, r0, r4
 297              	.LBE410:
 298              	.LBE424:
 299              	.LBE441:
 300              	.LBB442:
 301              	.LBB397:
 302              	.LBB392:
 303              	.LBB391:
 304              		.loc 4 94 35 view .LVU66
 305 002c A561     		str	r5, [r4, #24]
 306              	.LVL17:
 307              		.loc 4 94 35 view .LVU67
 308              	.LBE391:
 309              	.LBE392:
 310              	.LBE397:
 311              	.LBB398:
 312              	.LBI393:
 313              		.loc 6 18 5 is_stmt 1 view .LVU68
 314              	.LBB395:
 315              		.loc 6 18 17 is_stmt 0 view .LVU69
 316 002e 84F8C120 		strb	r2, [r4, #193]
 317              	.LBE395:
 318              	.LBE398:
 319              	.LBE442:
  10:MidiController.cpp ****     
 320              		.loc 1 10 26 view .LVU70
 321 0032 04F59033 		add	r3, r4, #73728
 322              	.LBB443:
 323              	.LBB399:
 324              	.LBB396:
 325              		.loc 6 18 17 view .LVU71
 326 0036 A4F8C2E0 		strh	lr, [r4, #194]	@ movhi
 327 003a A4F8C4C0 		strh	ip, [r4, #196]	@ movhi
 328              	.LVL18:
 329              		.loc 6 18 17 view .LVU72
 330              	.LBE396:
 331              	.LBE399:
 332              	.LBB400:
 333              	.LBI381:
 334              		.loc 3 302 5 is_stmt 1 view .LVU73
 335              	.LBB387:
 336              	.LBB386:
 337              	.LBI383:
  14:../DaisyExamples/libDaisy/src/util/FIFO.h ****     : buffer_(buffer), bufferSize_(bufferSize), bufferIn_(0), bufferOut_(0)
 338              		.loc 3 14 5 view .LVU74
ARM GAS  C:\Users\Marco\AppData\Local\Temp\ccVZoccs.s 			page 28


 339              	.LBB385:
  15:../DaisyExamples/libDaisy/src/util/FIFO.h ****     {
 340              		.loc 3 15 75 is_stmt 0 view .LVU75
 341 003e C4F8CC60 		str	r6, [r4, #204]
 342 0042 C4F8C870 		str	r7, [r4, #200]
 343 0046 C4E93455 		strd	r5, r5, [r4, #208]
 344              	.LVL19:
  15:../DaisyExamples/libDaisy/src/util/FIFO.h ****     {
 345              		.loc 3 15 75 view .LVU76
 346              	.LBE385:
 347              	.LBE386:
 348              	.LBE387:
 349              	.LBE400:
 350              	.LBE443:
 351              	.LBB444:
 352              	.LBI402:
 155:../DaisyExamples/libDaisy/src/hid/midi.h ****     ~MidiHandler() {}
 353              		.loc 2 155 5 is_stmt 1 view .LVU77
 354              	.LBB425:
 355              	.LBI414:
 158:../DaisyExamples/libDaisy/src/hid/midi.h ****     {
 356              		.loc 2 158 12 view .LVU78
 357              	.LBB420:
 358              	.LBI415:
 359              		.loc 5 43 9 view .LVU79
 360              	.LBE420:
 361              	.LBE425:
 362              	.LBB426:
 363              	.LBB411:
 364              	.LBB405:
 365              	.LBB406:
  15:../DaisyExamples/libDaisy/src/util/FIFO.h ****     {
 366              		.loc 3 15 75 is_stmt 0 view .LVU80
 367 004a C1E98306 		strd	r0, r6, [r1, #524]
 368              	.LBE406:
 369              	.LBE405:
 370              	.LBE411:
 371              	.LBE426:
 372              	.LBB427:
 373              	.LBB421:
 374              	.LBB417:
 375              		.loc 5 43 54 view .LVU81
 376 004e 0320     		movs	r0, #3
 377              	.LBE417:
 378              	.LBE421:
 379              	.LBE427:
 380              	.LBB428:
 381              	.LBB429:
 382              		.loc 6 18 17 view .LVU82
 383 0050 A1F806E2 		strh	lr, [r1, #518]	@ movhi
 384 0054 A1F808C2 		strh	ip, [r1, #520]	@ movhi
 385              	.LBE429:
 386              	.LBE428:
 387              	.LBB431:
 388              	.LBB422:
 389              	.LBB418:
 390              		.loc 5 43 54 view .LVU83
ARM GAS  C:\Users\Marco\AppData\Local\Temp\ccVZoccs.s 			page 29


 391 0058 81F86901 		strb	r0, [r1, #361]
 392              	.LVL20:
 393              		.loc 5 43 54 view .LVU84
 394              	.LBE418:
 395              	.LBE422:
 396              	.LBE431:
 397              	.LBB432:
 398              	.LBI432:
  44:../DaisyExamples/libDaisy/src/hid/usb_midi.h ****     };
  45:../DaisyExamples/libDaisy/src/hid/usb_midi.h **** 
  46:../DaisyExamples/libDaisy/src/hid/usb_midi.h ****     void Init(Config config);
  47:../DaisyExamples/libDaisy/src/hid/usb_midi.h **** 
  48:../DaisyExamples/libDaisy/src/hid/usb_midi.h ****     void StartRx(MidiRxParseCallback callback, void* context);
  49:../DaisyExamples/libDaisy/src/hid/usb_midi.h ****     bool RxActive();
  50:../DaisyExamples/libDaisy/src/hid/usb_midi.h ****     void FlushRx();
  51:../DaisyExamples/libDaisy/src/hid/usb_midi.h ****     void Tx(uint8_t* buffer, size_t size);
  52:../DaisyExamples/libDaisy/src/hid/usb_midi.h **** 
  53:../DaisyExamples/libDaisy/src/hid/usb_midi.h ****     class Impl;
  54:../DaisyExamples/libDaisy/src/hid/usb_midi.h **** 
  55:../DaisyExamples/libDaisy/src/hid/usb_midi.h ****     MidiUsbTransport() : pimpl_(nullptr) {}
 399              		.loc 5 55 5 is_stmt 1 view .LVU85
 400              		.loc 5 55 5 is_stmt 0 view .LVU86
 401              	.LBE432:
 402              	.LBB434:
 403              	.LBI428:
 404              		.loc 6 18 5 is_stmt 1 view .LVU87
 405              		.loc 6 18 5 is_stmt 0 view .LVU88
 406              	.LBE434:
 407              	.LBB435:
 408              	.LBI403:
 409              		.loc 3 302 5 is_stmt 1 view .LVU89
 410              	.LBB412:
 411              	.LBB408:
 412              	.LBI405:
  14:../DaisyExamples/libDaisy/src/util/FIFO.h ****     : buffer_(buffer), bufferSize_(bufferSize), bufferIn_(0), bufferOut_(0)
 413              		.loc 3 14 5 view .LVU90
  14:../DaisyExamples/libDaisy/src/util/FIFO.h ****     : buffer_(buffer), bufferSize_(bufferSize), bufferIn_(0), bufferOut_(0)
 414              		.loc 3 14 5 is_stmt 0 view .LVU91
 415              	.LBE408:
 416              	.LBE412:
 417              	.LBE435:
 418              	.LBE444:
  10:MidiController.cpp ****     
 419              		.loc 1 10 26 view .LVU92
 420 005c 4FF00110 		mov	r0, #65537
 421              	.LBB445:
 422              	.LBB436:
 423              	.LBB423:
 424              	.LBB419:
  43:../DaisyExamples/libDaisy/src/hid/usb_midi.h ****     };
 425              		.loc 5 43 54 view .LVU93
 426 0060 81F86851 		strb	r5, [r1, #360]
 427              	.LBE419:
 428              	.LBE423:
 429              	.LBE436:
 430              	.LBB437:
 431              	.LBB433:
ARM GAS  C:\Users\Marco\AppData\Local\Temp\ccVZoccs.s 			page 30


 432              		.loc 5 55 40 view .LVU94
 433 0064 C1F86C51 		str	r5, [r1, #364]
 434              	.LBE433:
 435              	.LBE437:
 436              	.LBB438:
 437              	.LBB430:
 438              		.loc 6 18 17 view .LVU95
 439 0068 81F80522 		strb	r2, [r1, #517]
 440              	.LBE430:
 441              	.LBE438:
 442              	.LBB439:
 443              	.LBB413:
 444              	.LBB409:
 445              	.LBB407:
  15:../DaisyExamples/libDaisy/src/util/FIFO.h ****     {
 446              		.loc 3 15 75 view .LVU96
 447 006c C1E98555 		strd	r5, r5, [r1, #532]
 448              	.LBE407:
 449              	.LBE409:
 450              	.LBE413:
 451              	.LBE439:
 452              	.LBE445:
  10:MidiController.cpp ****     
 453              		.loc 1 10 26 view .LVU97
 454 0070 C3F8AC02 		str	r0, [r3, #684]
 455 0074 1820     		movs	r0, #24
 456              	.LBB446:
  14:MidiController.cpp ****     }
 457              		.loc 1 14 25 view .LVU98
 458 0076 2946     		mov	r1, r5
 459              	.LBE446:
  10:MidiController.cpp ****     
 460              		.loc 1 10 26 view .LVU99
 461 0078 83F8B052 		strb	r5, [r3, #688]
 462 007c A3F84806 		strh	r0, [r3, #1608]	@ movhi
 463              	.LBB447:
  14:MidiController.cpp ****     }
 464              		.loc 1 14 25 view .LVU100
 465 0080 0A48     		ldr	r0, .L16
 466              	.LBE447:
  10:MidiController.cpp ****     
 467              		.loc 1 10 26 view .LVU101
 468 0082 A3F8B455 		strh	r5, [r3, #1460]	@ movhi
 469              	.LBB448:
  14:MidiController.cpp ****     }
 470              		.loc 1 14 25 view .LVU102
 471 0086 2044     		add	r0, r0, r4
 472              	.LBE448:
  10:MidiController.cpp ****     
 473              		.loc 1 10 26 view .LVU103
 474 0088 83F8B655 		strb	r5, [r3, #1462]
 475 008c C3F8B855 		str	r5, [r3, #1464]
 476 0090 C3F8BC55 		str	r5, [r3, #1468]
 477 0094 83F8C055 		strb	r5, [r3, #1472]
 478 0098 83F84156 		strb	r5, [r3, #1601]
 479 009c C3F84456 		str	r5, [r3, #1604]
 480 00a0 83F84A56 		strb	r5, [r3, #1610]
ARM GAS  C:\Users\Marco\AppData\Local\Temp\ccVZoccs.s 			page 31


 481              	.LBE450:
  13:MidiController.cpp ****         activeNotes_[i] = false;
 482              		.loc 1 13 5 is_stmt 1 view .LVU104
 483              	.LVL21:
 484              	.LBB451:
 485              	.LBB449:
  13:MidiController.cpp ****         activeNotes_[i] = false;
 486              		.loc 1 13 23 view .LVU105
  14:MidiController.cpp ****     }
 487              		.loc 1 14 25 is_stmt 0 view .LVU106
 488 00a4 FFF7FEFF 		bl	memset
 489              	.LVL22:
  14:MidiController.cpp ****     }
 490              		.loc 1 14 25 view .LVU107
 491              	.LBE449:
 492              	.LBE451:
  16:MidiController.cpp **** 
 493              		.loc 1 16 1 view .LVU108
 494 00a8 2046     		mov	r0, r4
 495 00aa F8BD     		pop	{r3, r4, r5, r6, r7, pc}
 496              	.LVL23:
 497              	.L17:
  16:MidiController.cpp **** 
 498              		.loc 1 16 1 view .LVU109
 499              		.align	2
 500              	.L16:
 501 00ac C1250100 		.word	75201
 502              		.cfi_endproc
 503              	.LFE2561:
 505              		.global	_ZN14MidiControllerC1Ev
 506              		.thumb_set _ZN14MidiControllerC1Ev,_ZN14MidiControllerC2Ev
 507              		.section	.text._ZN14MidiControllerD2Ev,"ax",%progbits
 508              		.align	1
 509              		.p2align 2,,3
 510              		.global	_ZN14MidiControllerD2Ev
 511              		.syntax unified
 512              		.thumb
 513              		.thumb_func
 514              		.fpu fpv5-d16
 516              	_ZN14MidiControllerD2Ev:
 517              	.LVL24:
 518              	.LFB2564:
  19:MidiController.cpp ****     // Destructor body - will be implemented later
 519              		.loc 1 19 1 is_stmt 1 view -0
 520              		.cfi_startproc
 521              		@ args = 0, pretend = 0, frame = 0
 522              		@ frame_needed = 0, uses_anonymous_args = 0
 523              		@ link register save eliminated.
 524              	.LBB452:
 525              	.LBI452:
 156:../DaisyExamples/libDaisy/src/hid/midi.h **** 
 526              		.loc 2 156 5 view .LVU111
 527              	.LBB453:
 528              	.LBI453:
 298:../DaisyExamples/libDaisy/src/util/FIFO.h **** {
 529              		.loc 3 298 7 view .LVU112
 530              	.LBB454:
ARM GAS  C:\Users\Marco\AppData\Local\Temp\ccVZoccs.s 			page 32


 531              	.LBI454:
  42:../DaisyExamples/libDaisy/src/util/FIFO.h **** 
 532              		.loc 3 42 5 view .LVU113
  42:../DaisyExamples/libDaisy/src/util/FIFO.h **** 
 533              		.loc 3 42 5 is_stmt 0 view .LVU114
 534              	.LBE454:
 535              	.LBE453:
 536              	.LBB455:
 537              	.LBI455:
  19:../DaisyExamples/libDaisy/src/hid/midi_parser.h ****     ~MidiParser() {}
 538              		.loc 6 19 5 is_stmt 1 view .LVU115
 539              		.loc 6 19 5 is_stmt 0 view .LVU116
 540              	.LBE455:
 541              	.LBB456:
 542              	.LBI456:
  56:../DaisyExamples/libDaisy/src/hid/usb_midi.h ****     ~MidiUsbTransport() {}
 543              		.loc 5 56 5 is_stmt 1 view .LVU117
 544              		.loc 5 56 5 is_stmt 0 view .LVU118
 545              	.LBE456:
 546              	.LBE452:
 547              	.LBB457:
 548              	.LBI457:
 156:../DaisyExamples/libDaisy/src/hid/midi.h **** 
 549              		.loc 2 156 5 is_stmt 1 view .LVU119
 550              	.LBB458:
 551              	.LBI458:
 298:../DaisyExamples/libDaisy/src/util/FIFO.h **** {
 552              		.loc 3 298 7 view .LVU120
 553              	.LBB459:
 554              	.LBI459:
  42:../DaisyExamples/libDaisy/src/util/FIFO.h **** 
 555              		.loc 3 42 5 view .LVU121
  42:../DaisyExamples/libDaisy/src/util/FIFO.h **** 
 556              		.loc 3 42 5 is_stmt 0 view .LVU122
 557              	.LBE459:
 558              	.LBE458:
 559              	.LBB460:
 560              	.LBI460:
 561              		.loc 6 19 5 is_stmt 1 view .LVU123
 562              		.loc 6 19 5 is_stmt 0 view .LVU124
 563              	.LBE460:
 564              	.LBB461:
 565              	.LBI461:
  32:../DaisyExamples/libDaisy/src/hid/midi.h **** 
 566              		.loc 2 32 5 is_stmt 1 view .LVU125
  32:../DaisyExamples/libDaisy/src/hid/midi.h **** 
 567              		.loc 2 32 5 is_stmt 0 view .LVU126
 568              	.LBE461:
 569              	.LBE457:
  21:MidiController.cpp **** 
 570              		.loc 1 21 1 view .LVU127
 571 0000 7047     		bx	lr
 572              		.cfi_endproc
 573              	.LFE2564:
 575              		.global	_ZN14MidiControllerD1Ev
 576              		.thumb_set _ZN14MidiControllerD1Ev,_ZN14MidiControllerD2Ev
 577 0002 00BF     		.section	.text._ZN14MidiController10SendNoteOnEhh,"ax",%progbits
ARM GAS  C:\Users\Marco\AppData\Local\Temp\ccVZoccs.s 			page 33


 578              		.align	1
 579              		.p2align 2,,3
 580              		.global	_ZN14MidiController10SendNoteOnEhh
 581              		.syntax unified
 582              		.thumb
 583              		.thumb_func
 584              		.fpu fpv5-d16
 586              	_ZN14MidiController10SendNoteOnEhh:
 587              	.LVL25:
 588              	.LFB2568:
  56:MidiController.cpp ****     if (!enabled_ || !IsValidNote(note) || !IsValidVelocity(velocity)) {
 589              		.loc 1 56 65 is_stmt 1 view -0
 590              		.cfi_startproc
 591              		@ args = 0, pretend = 0, frame = 0
 592              		@ frame_needed = 0, uses_anonymous_args = 0
  57:MidiController.cpp ****         return;
 593              		.loc 1 57 5 view .LVU129
  57:MidiController.cpp ****         return;
 594              		.loc 1 57 10 is_stmt 0 view .LVU130
 595 0000 00F5903C 		add	ip, r0, #73728
  57:MidiController.cpp ****         return;
 596              		.loc 1 57 41 view .LVU131
 597 0004 9CF8AE32 		ldrb	r3, [ip, #686]	@ zero_extendqisi2
 598 0008 002B     		cmp	r3, #0
 599 000a 3FD0     		beq	.L25
 600              	.LVL26:
 601              	.LBB476:
 602              	.LBI476:
 463:MidiController.cpp ****     return note <= 127;
 603              		.loc 1 463 6 is_stmt 1 view .LVU132
 604              	.LBB477:
 464:MidiController.cpp **** }
 605              		.loc 1 464 5 view .LVU133
 464:MidiController.cpp **** }
 606              		.loc 1 464 5 is_stmt 0 view .LVU134
 607              	.LBE477:
 608              	.LBE476:
  57:MidiController.cpp ****         return;
 609              		.loc 1 57 19 view .LVU135
 610 000c 0B06     		lsls	r3, r1, #24
 611 000e 3DD4     		bmi	.L25
 612              	.LVL27:
 613              	.LBB478:
 614              	.LBI478:
 467:MidiController.cpp ****     return velocity <= 127;
 615              		.loc 1 467 6 is_stmt 1 view .LVU136
 616              	.LBB479:
 468:MidiController.cpp **** }
 617              		.loc 1 468 5 view .LVU137
 468:MidiController.cpp **** }
 618              		.loc 1 468 5 is_stmt 0 view .LVU138
 619              	.LBE479:
 620              	.LBE478:
  57:MidiController.cpp ****         return;
 621              		.loc 1 57 41 view .LVU139
 622 0010 1306     		lsls	r3, r2, #24
 623 0012 3BD4     		bmi	.L25
ARM GAS  C:\Users\Marco\AppData\Local\Temp\ccVZoccs.s 			page 34


  61:MidiController.cpp ****     QueueMessage(status, note, velocity);
 624              		.loc 1 61 5 is_stmt 1 view .LVU140
 625              	.LVL28:
 626              	.LBB480:
 627              	.LBI480:
 455:MidiController.cpp ****     return (uint8_t)messageType | ((channel - 1) & 0x0F);
 628              		.loc 1 455 9 view .LVU141
 629              	.LBB481:
 456:MidiController.cpp **** }
 630              		.loc 1 456 5 view .LVU142
 456:MidiController.cpp **** }
 631              		.loc 1 456 5 is_stmt 0 view .LVU143
 632              	.LBE481:
 633              	.LBE480:
  62:MidiController.cpp ****     TrackNoteOn(note);
 634              		.loc 1 62 5 is_stmt 1 view .LVU144
 635              	.LBB486:
 636              	.LBI486:
 361:MidiController.cpp ****     if (IsQueueFull()) {
 637              		.loc 1 361 6 view .LVU145
 638              	.LBB487:
 362:MidiController.cpp ****         return; // Queue is full, drop message
 639              		.loc 1 362 5 view .LVU146
 640              	.LBB488:
 641              	.LBI488:
 410:MidiController.cpp ****     return queueCount_ >= MESSAGE_QUEUE_SIZE;
 642              		.loc 1 410 6 view .LVU147
 643              	.LBB489:
 411:MidiController.cpp **** }
 644              		.loc 1 411 5 view .LVU148
 411:MidiController.cpp **** }
 645              		.loc 1 411 12 is_stmt 0 view .LVU149
 646 0014 9CF8B635 		ldrb	r3, [ip, #1462]	@ zero_extendqisi2
 647              	.LVL29:
 411:MidiController.cpp **** }
 648              		.loc 1 411 12 view .LVU150
 649              	.LBE489:
 650              	.LBE488:
 362:MidiController.cpp ****         return; // Queue is full, drop message
 651              		.loc 1 362 5 view .LVU151
 652 0018 3F2B     		cmp	r3, #63
 653 001a 33D8     		bhi	.L26
 366:MidiController.cpp ****     msg.status = status;
 654              		.loc 1 366 5 is_stmt 1 view .LVU152
 655              	.LBE487:
 656              	.LBE486:
  56:MidiController.cpp ****     if (!enabled_ || !IsValidNote(note) || !IsValidVelocity(velocity)) {
 657              		.loc 1 56 65 is_stmt 0 view .LVU153
 658 001c F0B5     		push	{r4, r5, r6, r7, lr}
 659              		.cfi_def_cfa_offset 20
 660              		.cfi_offset 4, -20
 661              		.cfi_offset 5, -16
 662              		.cfi_offset 6, -12
 663              		.cfi_offset 7, -8
 664              		.cfi_offset 14, -4
 665              	.LBB495:
 666              	.LBB482:
ARM GAS  C:\Users\Marco\AppData\Local\Temp\ccVZoccs.s 			page 35


 456:MidiController.cpp **** }
 667              		.loc 1 456 45 view .LVU154
 668 001e 9CF8AC42 		ldrb	r4, [ip, #684]	@ zero_extendqisi2
 669              	.LBE482:
 670              	.LBE495:
 671              	.LBB496:
 672              	.LBB490:
 374:MidiController.cpp **** }
 673              		.loc 1 374 16 view .LVU155
 674 0022 5D1C     		adds	r5, r3, #1
 366:MidiController.cpp ****     msg.status = status;
 675              		.loc 1 366 38 view .LVU156
 676 0024 9CF8B535 		ldrb	r3, [ip, #1461]	@ zero_extendqisi2
 677              	.LVL30:
 367:MidiController.cpp ****     msg.data1 = data1;
 678              		.loc 1 367 5 is_stmt 1 view .LVU157
 679              	.LBE490:
 680              	.LBE496:
 681              	.LBB497:
 682              	.LBB483:
 456:MidiController.cpp **** }
 683              		.loc 1 456 45 is_stmt 0 view .LVU158
 684 0028 013C     		subs	r4, r4, #1
 685              	.LBE483:
 686              	.LBE497:
 687              	.LBB498:
 688              	.LBB491:
 367:MidiController.cpp ****     msg.data1 = data1;
 689              		.loc 1 367 16 view .LVU159
 690 002a 1D4F     		ldr	r7, .L31
 691 002c 03EB430E 		add	lr, r3, r3, lsl #1
 368:MidiController.cpp ****     msg.data2 = data2;
 692              		.loc 1 368 15 view .LVU160
 693 0030 1C4E     		ldr	r6, .L31+4
 694              	.LBE491:
 695              	.LBE498:
 696              	.LBB499:
 697              	.LBB484:
 456:MidiController.cpp **** }
 698              		.loc 1 456 50 view .LVU161
 699 0032 04F00F04 		and	r4, r4, #15
 700              	.LBE484:
 701              	.LBE499:
 702              	.LBB500:
 703              	.LBB492:
 373:MidiController.cpp ****     queueCount_++;
 704              		.loc 1 373 30 view .LVU162
 705 0036 0133     		adds	r3, r3, #1
 706              	.LVL31:
 367:MidiController.cpp ****     msg.data1 = data1;
 707              		.loc 1 367 16 view .LVU163
 708 0038 00EB8E0E 		add	lr, r0, lr, lsl #2
 709              	.LBE492:
 710              	.LBE500:
 711              	.LBB501:
 712              	.LBB502:
 713              	.LBB503:
ARM GAS  C:\Users\Marco\AppData\Local\Temp\ccVZoccs.s 			page 36


 476:MidiController.cpp ****         activeNotes_[note] = true;
 714              		.loc 1 476 41 view .LVU164
 715 003c 0844     		add	r0, r0, r1
 716              	.LVL32:
 476:MidiController.cpp ****         activeNotes_[note] = true;
 717              		.loc 1 476 41 view .LVU165
 718              	.LBE503:
 719              	.LBE502:
 720              	.LBE501:
 721              	.LBB510:
 722              	.LBB485:
 456:MidiController.cpp **** }
 723              		.loc 1 456 33 view .LVU166
 724 003e 64F06F04 		orn	r4, r4, #111
 725              	.LBE485:
 726              	.LBE510:
 727              	.LBB511:
 728              	.LBB493:
 373:MidiController.cpp ****     queueCount_++;
 729              		.loc 1 373 35 view .LVU167
 730 0042 03F03F03 		and	r3, r3, #63
 731              	.LVL33:
 367:MidiController.cpp ****     msg.data1 = data1;
 732              		.loc 1 367 16 view .LVU168
 733 0046 0EF80740 		strb	r4, [lr, r7]
 734              	.LVL34:
 368:MidiController.cpp ****     msg.data2 = data2;
 735              		.loc 1 368 5 is_stmt 1 view .LVU169
 369:MidiController.cpp ****     msg.hasData2 = true;
 736              		.loc 1 369 15 is_stmt 0 view .LVU170
 737 004a 174C     		ldr	r4, .L31+8
 368:MidiController.cpp ****     msg.data2 = data2;
 738              		.loc 1 368 15 view .LVU171
 739 004c 0EF80610 		strb	r1, [lr, r6]
 369:MidiController.cpp ****     msg.hasData2 = true;
 740              		.loc 1 369 5 is_stmt 1 view .LVU172
 369:MidiController.cpp ****     msg.hasData2 = true;
 741              		.loc 1 369 15 is_stmt 0 view .LVU173
 742 0050 0EF80420 		strb	r2, [lr, r4]
 370:MidiController.cpp ****     msg.timestamp = lastActivityTime_; // TODO: Get actual timestamp
 743              		.loc 1 370 5 is_stmt 1 view .LVU174
 370:MidiController.cpp ****     msg.timestamp = lastActivityTime_; // TODO: Get actual timestamp
 744              		.loc 1 370 18 is_stmt 0 view .LVU175
 745 0054 0124     		movs	r4, #1
 746 0056 154A     		ldr	r2, .L31+12
 747              	.LVL35:
 370:MidiController.cpp ****     msg.timestamp = lastActivityTime_; // TODO: Get actual timestamp
 748              		.loc 1 370 18 view .LVU176
 749 0058 0EF80240 		strb	r4, [lr, r2]
 371:MidiController.cpp ****     
 750              		.loc 1 371 5 is_stmt 1 view .LVU177
 371:MidiController.cpp ****     
 751              		.loc 1 371 19 is_stmt 0 view .LVU178
 752 005c 043A     		subs	r2, r2, #4
 753 005e DCF8BC45 		ldr	r4, [ip, #1468]
 754 0062 4EF80240 		str	r4, [lr, r2]
 373:MidiController.cpp ****     queueCount_++;
ARM GAS  C:\Users\Marco\AppData\Local\Temp\ccVZoccs.s 			page 37


 755              		.loc 1 373 5 is_stmt 1 view .LVU179
 373:MidiController.cpp ****     queueCount_++;
 756              		.loc 1 373 16 is_stmt 0 view .LVU180
 757 0066 8CF8B535 		strb	r3, [ip, #1461]
 758              	.LVL36:
 374:MidiController.cpp **** }
 759              		.loc 1 374 5 is_stmt 1 view .LVU181
 374:MidiController.cpp **** }
 760              		.loc 1 374 5 is_stmt 0 view .LVU182
 761              	.LBE493:
 762              	.LBE511:
  63:MidiController.cpp **** }
 763              		.loc 1 63 5 is_stmt 1 view .LVU183
 764              	.LBB512:
 765              	.LBI501:
 475:MidiController.cpp ****     if (note < 128 && !activeNotes_[note]) {
 766              		.loc 1 475 6 view .LVU184
 767              	.LBE512:
 476:MidiController.cpp ****         activeNotes_[note] = true;
 768              		.loc 1 476 5 view .LVU185
 769              	.LBB513:
 770              	.LBB507:
 771              	.LBI502:
 475:MidiController.cpp ****     if (note < 128 && !activeNotes_[note]) {
 772              		.loc 1 475 6 view .LVU186
 773              	.LBB504:
 476:MidiController.cpp ****         activeNotes_[note] = true;
 774              		.loc 1 476 41 is_stmt 0 view .LVU187
 775 006a 114B     		ldr	r3, .L31+16
 776              	.LBE504:
 777              	.LBE507:
 778              	.LBE513:
 779              	.LBB514:
 780              	.LBB494:
 374:MidiController.cpp **** }
 781              		.loc 1 374 16 view .LVU188
 782 006c 8CF8B655 		strb	r5, [ip, #1462]
 783              	.LBE494:
 784              	.LBE514:
 785              	.LBB515:
 786              	.LBB508:
 787              	.LBB505:
 476:MidiController.cpp ****         activeNotes_[note] = true;
 788              		.loc 1 476 20 view .LVU189
 789 0070 C25C     		ldrb	r2, [r0, r3]	@ zero_extendqisi2
 790 0072 32B9     		cbnz	r2, .L19
 477:MidiController.cpp ****         activeNoteCount_++;
 791              		.loc 1 477 9 is_stmt 1 view .LVU190
 477:MidiController.cpp ****         activeNoteCount_++;
 792              		.loc 1 477 28 is_stmt 0 view .LVU191
 793 0074 0122     		movs	r2, #1
 794 0076 C254     		strb	r2, [r0, r3]
 478:MidiController.cpp ****     }
 795              		.loc 1 478 9 is_stmt 1 view .LVU192
 478:MidiController.cpp ****     }
 796              		.loc 1 478 25 is_stmt 0 view .LVU193
 797 0078 9CF84136 		ldrb	r3, [ip, #1601]	@ zero_extendqisi2
ARM GAS  C:\Users\Marco\AppData\Local\Temp\ccVZoccs.s 			page 38


 798 007c 1344     		add	r3, r3, r2
 799 007e 8CF84136 		strb	r3, [ip, #1601]
 800              	.LVL37:
 801              	.L19:
 478:MidiController.cpp ****     }
 802              		.loc 1 478 25 view .LVU194
 803              	.LBE505:
 804              	.LBE508:
 805              	.LBE515:
  64:MidiController.cpp **** 
 806              		.loc 1 64 1 view .LVU195
 807 0082 F0BD     		pop	{r4, r5, r6, r7, pc}
 808              	.LVL38:
 809              	.L26:
 810              		.cfi_def_cfa_offset 0
 811              		.cfi_restore 4
 812              		.cfi_restore 5
 813              		.cfi_restore 6
 814              		.cfi_restore 7
 815              		.cfi_restore 14
  63:MidiController.cpp **** }
 816              		.loc 1 63 5 is_stmt 1 view .LVU196
 817              	.LBB516:
 475:MidiController.cpp ****     if (note < 128 && !activeNotes_[note]) {
 818              		.loc 1 475 6 view .LVU197
 819              	.LBE516:
 476:MidiController.cpp ****         activeNotes_[note] = true;
 820              		.loc 1 476 5 view .LVU198
 821              	.LBB517:
 822              	.LBB509:
 475:MidiController.cpp ****     if (note < 128 && !activeNotes_[note]) {
 823              		.loc 1 475 6 view .LVU199
 824              	.LBB506:
 476:MidiController.cpp ****         activeNotes_[note] = true;
 825              		.loc 1 476 41 is_stmt 0 view .LVU200
 826 0084 0844     		add	r0, r0, r1
 827              	.LVL39:
 476:MidiController.cpp ****         activeNotes_[note] = true;
 828              		.loc 1 476 41 view .LVU201
 829 0086 0A4B     		ldr	r3, .L31+16
 476:MidiController.cpp ****         activeNotes_[note] = true;
 830              		.loc 1 476 20 view .LVU202
 831 0088 C25C     		ldrb	r2, [r0, r3]	@ zero_extendqisi2
 832              	.LVL40:
 476:MidiController.cpp ****         activeNotes_[note] = true;
 833              		.loc 1 476 20 view .LVU203
 834 008a 02B1     		cbz	r2, .L30
 835              	.LVL41:
 836              	.L25:
 476:MidiController.cpp ****         activeNotes_[note] = true;
 837              		.loc 1 476 20 view .LVU204
 838 008c 7047     		bx	lr
 839              	.LVL42:
 840              	.L30:
 477:MidiController.cpp ****         activeNoteCount_++;
 841              		.loc 1 477 9 is_stmt 1 view .LVU205
 477:MidiController.cpp ****         activeNoteCount_++;
ARM GAS  C:\Users\Marco\AppData\Local\Temp\ccVZoccs.s 			page 39


 842              		.loc 1 477 28 is_stmt 0 view .LVU206
 843 008e 0122     		movs	r2, #1
 844 0090 C254     		strb	r2, [r0, r3]
 845              	.LVL43:
 478:MidiController.cpp ****     }
 846              		.loc 1 478 9 is_stmt 1 view .LVU207
 478:MidiController.cpp ****     }
 847              		.loc 1 478 25 is_stmt 0 view .LVU208
 848 0092 9CF84136 		ldrb	r3, [ip, #1601]	@ zero_extendqisi2
 849 0096 1344     		add	r3, r3, r2
 850 0098 8CF84136 		strb	r3, [ip, #1601]
 851              	.LVL44:
 478:MidiController.cpp ****     }
 852              		.loc 1 478 25 view .LVU209
 853 009c 7047     		bx	lr
 854              	.L32:
 855 009e 00BF     		.align	2
 856              	.L31:
 857 00a0 B4220100 		.word	74420
 858 00a4 B5220100 		.word	74421
 859 00a8 B6220100 		.word	74422
 860 00ac BC220100 		.word	74428
 861 00b0 C1250100 		.word	75201
 862              	.LBE506:
 863              	.LBE509:
 864              	.LBE517:
 865              		.cfi_endproc
 866              	.LFE2568:
 868              		.section	.text._ZN14MidiController11SendNoteOffEh,"ax",%progbits
 869              		.align	1
 870              		.p2align 2,,3
 871              		.global	_ZN14MidiController11SendNoteOffEh
 872              		.syntax unified
 873              		.thumb
 874              		.thumb_func
 875              		.fpu fpv5-d16
 877              	_ZN14MidiController11SendNoteOffEh:
 878              	.LVL45:
 879              	.LFB2569:
  66:MidiController.cpp ****     SendNoteOff(note, 64); // Default velocity
 880              		.loc 1 66 48 is_stmt 1 view -0
 881              		.cfi_startproc
 882              		@ args = 0, pretend = 0, frame = 0
 883              		@ frame_needed = 0, uses_anonymous_args = 0
  67:MidiController.cpp **** }
 884              		.loc 1 67 5 view .LVU211
 885              	.LBB540:
 886              	.LBI540:
  70:MidiController.cpp ****     if (!enabled_ || !IsValidNote(note) || !IsValidVelocity(velocity)) {
 887              		.loc 1 70 6 view .LVU212
 888              	.LBB541:
  71:MidiController.cpp ****         return;
 889              		.loc 1 71 5 view .LVU213
  71:MidiController.cpp ****         return;
 890              		.loc 1 71 10 is_stmt 0 view .LVU214
 891 0000 00F59032 		add	r2, r0, #73728
  71:MidiController.cpp ****         return;
ARM GAS  C:\Users\Marco\AppData\Local\Temp\ccVZoccs.s 			page 40


 892              		.loc 1 71 41 view .LVU215
 893 0004 92F8AE32 		ldrb	r3, [r2, #686]	@ zero_extendqisi2
 894 0008 002B     		cmp	r3, #0
 895 000a 40D0     		beq	.L45
 896              	.LVL46:
 897              	.LBB542:
 898              	.LBI542:
 463:MidiController.cpp ****     return note <= 127;
 899              		.loc 1 463 6 is_stmt 1 view .LVU216
 900              	.LBB543:
 464:MidiController.cpp **** }
 901              		.loc 1 464 5 view .LVU217
 464:MidiController.cpp **** }
 902              		.loc 1 464 5 is_stmt 0 view .LVU218
 903              	.LBE543:
 904              	.LBE542:
  71:MidiController.cpp ****         return;
 905              		.loc 1 71 19 view .LVU219
 906 000c 0B06     		lsls	r3, r1, #24
 907 000e 3ED4     		bmi	.L45
 908              	.LVL47:
  71:MidiController.cpp ****         return;
 909              		.loc 1 71 19 view .LVU220
 910              	.LBE541:
 911              	.LBE540:
 468:MidiController.cpp **** }
 912              		.loc 1 468 5 is_stmt 1 view .LVU221
 913              	.LBB603:
 914              	.LBB598:
 915              	.LBB544:
 916              	.LBI544:
  70:MidiController.cpp ****     if (!enabled_ || !IsValidNote(note) || !IsValidVelocity(velocity)) {
 917              		.loc 1 70 6 view .LVU222
 918              	.LBB545:
  75:MidiController.cpp ****     QueueMessage(status, note, velocity);
 919              		.loc 1 75 5 view .LVU223
 920              	.LBB546:
 921              	.LBI546:
 455:MidiController.cpp ****     return (uint8_t)messageType | ((channel - 1) & 0x0F);
 922              		.loc 1 455 9 view .LVU224
 923              	.LBB547:
 456:MidiController.cpp **** }
 924              		.loc 1 456 5 view .LVU225
 456:MidiController.cpp **** }
 925              		.loc 1 456 5 is_stmt 0 view .LVU226
 926              	.LBE547:
 927              	.LBE546:
  76:MidiController.cpp ****     TrackNoteOff(note);
 928              		.loc 1 76 5 is_stmt 1 view .LVU227
 929              	.LBB552:
 930              	.LBI552:
 361:MidiController.cpp ****     if (IsQueueFull()) {
 931              		.loc 1 361 6 view .LVU228
 932              	.LBB553:
 362:MidiController.cpp ****         return; // Queue is full, drop message
 933              		.loc 1 362 5 view .LVU229
 934              	.LBB554:
ARM GAS  C:\Users\Marco\AppData\Local\Temp\ccVZoccs.s 			page 41


 935              	.LBI554:
 410:MidiController.cpp ****     return queueCount_ >= MESSAGE_QUEUE_SIZE;
 936              		.loc 1 410 6 view .LVU230
 937              	.LBB555:
 411:MidiController.cpp **** }
 938              		.loc 1 411 5 view .LVU231
 411:MidiController.cpp **** }
 939              		.loc 1 411 12 is_stmt 0 view .LVU232
 940 0010 92F8B635 		ldrb	r3, [r2, #1462]	@ zero_extendqisi2
 941              	.LVL48:
 411:MidiController.cpp **** }
 942              		.loc 1 411 12 view .LVU233
 943              	.LBE555:
 944              	.LBE554:
 362:MidiController.cpp ****         return; // Queue is full, drop message
 945              		.loc 1 362 5 view .LVU234
 946 0014 3F2B     		cmp	r3, #63
 947 0016 36D8     		bhi	.L46
 366:MidiController.cpp ****     msg.status = status;
 948              		.loc 1 366 5 is_stmt 1 view .LVU235
 949              	.LBE553:
 950              	.LBE552:
 951              	.LBE545:
 952              	.LBE544:
 953              	.LBE598:
 954              	.LBE603:
  66:MidiController.cpp ****     SendNoteOff(note, 64); // Default velocity
 955              		.loc 1 66 48 is_stmt 0 view .LVU236
 956 0018 30B5     		push	{r4, r5, lr}
 957              		.cfi_def_cfa_offset 12
 958              		.cfi_offset 4, -12
 959              		.cfi_offset 5, -8
 960              		.cfi_offset 14, -4
 961              	.LBB604:
 962              	.LBB599:
 963              	.LBB594:
 964              	.LBB590:
 965              	.LBB563:
 966              	.LBB556:
 374:MidiController.cpp **** }
 967              		.loc 1 374 16 view .LVU237
 968 001a 5C1C     		adds	r4, r3, #1
 969              	.LBE556:
 970              	.LBE563:
 971              	.LBB564:
 972              	.LBB548:
 456:MidiController.cpp **** }
 973              		.loc 1 456 45 view .LVU238
 974 001c 92F8AC32 		ldrb	r3, [r2, #684]	@ zero_extendqisi2
 975              	.LBE548:
 976              	.LBE564:
 977              	.LBB565:
 978              	.LBB557:
 366:MidiController.cpp ****     msg.status = status;
 979              		.loc 1 366 38 view .LVU239
 980 0020 92F8B5C5 		ldrb	ip, [r2, #1461]	@ zero_extendqisi2
 981              	.LVL49:
ARM GAS  C:\Users\Marco\AppData\Local\Temp\ccVZoccs.s 			page 42


 367:MidiController.cpp ****     msg.data1 = data1;
 982              		.loc 1 367 5 is_stmt 1 view .LVU240
 983              	.LBE557:
 984              	.LBE565:
 985              	.LBB566:
 986              	.LBB549:
 456:MidiController.cpp **** }
 987              		.loc 1 456 45 is_stmt 0 view .LVU241
 988 0024 013B     		subs	r3, r3, #1
 989              	.LBE549:
 990              	.LBE566:
 991              	.LBB567:
 992              	.LBB558:
 367:MidiController.cpp ****     msg.data1 = data1;
 993              		.loc 1 367 16 view .LVU242
 994 0026 1F4D     		ldr	r5, .L52
 995 0028 0CEB4C0E 		add	lr, ip, ip, lsl #1
 373:MidiController.cpp ****     queueCount_++;
 996              		.loc 1 373 30 view .LVU243
 997 002c 0CF1010C 		add	ip, ip, #1
 998              	.LVL50:
 373:MidiController.cpp ****     queueCount_++;
 999              		.loc 1 373 30 view .LVU244
 1000              	.LBE558:
 1001              	.LBE567:
 1002              	.LBB568:
 1003              	.LBB550:
 456:MidiController.cpp **** }
 1004              		.loc 1 456 50 view .LVU245
 1005 0030 03F00F03 		and	r3, r3, #15
 1006              	.LBE550:
 1007              	.LBE568:
 1008              	.LBB569:
 1009              	.LBB559:
 367:MidiController.cpp ****     msg.data1 = data1;
 1010              		.loc 1 367 16 view .LVU246
 1011 0034 00EB8E0E 		add	lr, r0, lr, lsl #2
 373:MidiController.cpp ****     queueCount_++;
 1012              		.loc 1 373 35 view .LVU247
 1013 0038 0CF03F0C 		and	ip, ip, #63
 1014              	.LVL51:
 373:MidiController.cpp ****     queueCount_++;
 1015              		.loc 1 373 35 view .LVU248
 1016              	.LBE559:
 1017              	.LBE569:
 1018              	.LBB570:
 1019              	.LBB551:
 456:MidiController.cpp **** }
 1020              		.loc 1 456 33 view .LVU249
 1021 003c 63F07F03 		orn	r3, r3, #127
 1022              	.LBE551:
 1023              	.LBE570:
 1024              	.LBB571:
 1025              	.LBB572:
 1026              	.LBB573:
 483:MidiController.cpp ****         activeNotes_[note] = false;
 1027              		.loc 1 483 40 view .LVU250
ARM GAS  C:\Users\Marco\AppData\Local\Temp\ccVZoccs.s 			page 43


 1028 0040 0844     		add	r0, r0, r1
 1029              	.LVL52:
 483:MidiController.cpp ****         activeNotes_[note] = false;
 1030              		.loc 1 483 40 view .LVU251
 1031              	.LBE573:
 1032              	.LBE572:
 1033              	.LBE571:
 1034              	.LBB581:
 1035              	.LBB560:
 367:MidiController.cpp ****     msg.data1 = data1;
 1036              		.loc 1 367 16 view .LVU252
 1037 0042 0EF80530 		strb	r3, [lr, r5]
 1038              	.LVL53:
 368:MidiController.cpp ****     msg.data2 = data2;
 1039              		.loc 1 368 5 is_stmt 1 view .LVU253
 369:MidiController.cpp ****     msg.hasData2 = true;
 1040              		.loc 1 369 15 is_stmt 0 view .LVU254
 1041 0046 4025     		movs	r5, #64
 368:MidiController.cpp ****     msg.data2 = data2;
 1042              		.loc 1 368 15 view .LVU255
 1043 0048 174B     		ldr	r3, .L52+4
 1044 004a 0EF80310 		strb	r1, [lr, r3]
 369:MidiController.cpp ****     msg.hasData2 = true;
 1045              		.loc 1 369 5 is_stmt 1 view .LVU256
 369:MidiController.cpp ****     msg.hasData2 = true;
 1046              		.loc 1 369 15 is_stmt 0 view .LVU257
 1047 004e 0133     		adds	r3, r3, #1
 1048 0050 0EF80350 		strb	r5, [lr, r3]
 370:MidiController.cpp ****     msg.timestamp = lastActivityTime_; // TODO: Get actual timestamp
 1049              		.loc 1 370 5 is_stmt 1 view .LVU258
 370:MidiController.cpp ****     msg.timestamp = lastActivityTime_; // TODO: Get actual timestamp
 1050              		.loc 1 370 18 is_stmt 0 view .LVU259
 1051 0054 0633     		adds	r3, r3, #6
 1052 0056 0125     		movs	r5, #1
 1053 0058 0EF80350 		strb	r5, [lr, r3]
 371:MidiController.cpp ****     
 1054              		.loc 1 371 5 is_stmt 1 view .LVU260
 371:MidiController.cpp ****     
 1055              		.loc 1 371 19 is_stmt 0 view .LVU261
 1056 005c 043B     		subs	r3, r3, #4
 1057 005e D2F8BC55 		ldr	r5, [r2, #1468]
 1058 0062 4EF80350 		str	r5, [lr, r3]
 373:MidiController.cpp ****     queueCount_++;
 1059              		.loc 1 373 5 is_stmt 1 view .LVU262
 1060              	.LBE560:
 1061              	.LBE581:
 1062              	.LBB582:
 1063              	.LBB577:
 1064              	.LBB574:
 483:MidiController.cpp ****         activeNotes_[note] = false;
 1065              		.loc 1 483 40 is_stmt 0 view .LVU263
 1066 0066 114B     		ldr	r3, .L52+8
 1067              	.LBE574:
 1068              	.LBE577:
 1069              	.LBE582:
 1070              	.LBB583:
 1071              	.LBB561:
ARM GAS  C:\Users\Marco\AppData\Local\Temp\ccVZoccs.s 			page 44


 373:MidiController.cpp ****     queueCount_++;
 1072              		.loc 1 373 16 view .LVU264
 1073 0068 82F8B5C5 		strb	ip, [r2, #1461]
 374:MidiController.cpp **** }
 1074              		.loc 1 374 5 is_stmt 1 view .LVU265
 1075              	.LVL54:
 374:MidiController.cpp **** }
 1076              		.loc 1 374 5 is_stmt 0 view .LVU266
 1077              	.LBE561:
 1078              	.LBE583:
  77:MidiController.cpp **** }
 1079              		.loc 1 77 5 is_stmt 1 view .LVU267
 1080              	.LBB584:
 1081              	.LBI571:
 482:MidiController.cpp ****     if (note < 128 && activeNotes_[note]) {
 1082              		.loc 1 482 6 view .LVU268
 1083              	.LBE584:
 1084              	.LBE590:
 1085              	.LBE594:
 1086              	.LBE599:
 1087              	.LBE604:
 483:MidiController.cpp ****         activeNotes_[note] = false;
 1088              		.loc 1 483 5 view .LVU269
 1089              	.LBB605:
 1090              	.LBB600:
 1091              	.LBB595:
 1092              	.LBB591:
 1093              	.LBB585:
 1094              	.LBB578:
 1095              	.LBI572:
 482:MidiController.cpp ****     if (note < 128 && activeNotes_[note]) {
 1096              		.loc 1 482 6 view .LVU270
 1097              	.LBE578:
 1098              	.LBE585:
 1099              	.LBB586:
 1100              	.LBB562:
 374:MidiController.cpp **** }
 1101              		.loc 1 374 16 is_stmt 0 view .LVU271
 1102 006c 82F8B645 		strb	r4, [r2, #1462]
 1103              	.LBE562:
 1104              	.LBE586:
 1105              	.LBB587:
 1106              	.LBB579:
 1107              	.LBB575:
 483:MidiController.cpp ****         activeNotes_[note] = false;
 1108              		.loc 1 483 20 view .LVU272
 1109 0070 C15C     		ldrb	r1, [r0, r3]	@ zero_extendqisi2
 1110              	.LVL55:
 483:MidiController.cpp ****         activeNotes_[note] = false;
 1111              		.loc 1 483 20 view .LVU273
 1112 0072 39B1     		cbz	r1, .L33
 484:MidiController.cpp ****         if (activeNoteCount_ > 0) {
 1113              		.loc 1 484 9 is_stmt 1 view .LVU274
 484:MidiController.cpp ****         if (activeNoteCount_ > 0) {
 1114              		.loc 1 484 28 is_stmt 0 view .LVU275
 1115 0074 0021     		movs	r1, #0
 1116 0076 C154     		strb	r1, [r0, r3]
ARM GAS  C:\Users\Marco\AppData\Local\Temp\ccVZoccs.s 			page 45


 485:MidiController.cpp ****             activeNoteCount_--;
 1117              		.loc 1 485 9 is_stmt 1 view .LVU276
 485:MidiController.cpp ****             activeNoteCount_--;
 1118              		.loc 1 485 13 is_stmt 0 view .LVU277
 1119 0078 92F84136 		ldrb	r3, [r2, #1601]	@ zero_extendqisi2
 485:MidiController.cpp ****             activeNoteCount_--;
 1120              		.loc 1 485 9 view .LVU278
 1121 007c 13B1     		cbz	r3, .L33
 486:MidiController.cpp ****         }
 1122              		.loc 1 486 13 is_stmt 1 view .LVU279
 486:MidiController.cpp ****         }
 1123              		.loc 1 486 29 is_stmt 0 view .LVU280
 1124 007e 013B     		subs	r3, r3, #1
 1125 0080 82F84136 		strb	r3, [r2, #1601]
 1126              	.LVL56:
 1127              	.L33:
 486:MidiController.cpp ****         }
 1128              		.loc 1 486 29 view .LVU281
 1129              	.LBE575:
 1130              	.LBE579:
 1131              	.LBE587:
 1132              	.LBE591:
 1133              	.LBE595:
 1134              	.LBE600:
 1135              	.LBE605:
  68:MidiController.cpp **** 
 1136              		.loc 1 68 1 view .LVU282
 1137 0084 30BD     		pop	{r4, r5, pc}
 1138              	.LVL57:
 1139              	.L46:
 1140              		.cfi_def_cfa_offset 0
 1141              		.cfi_restore 4
 1142              		.cfi_restore 5
 1143              		.cfi_restore 14
 1144              	.LBB606:
 1145              	.LBB601:
 1146              	.LBB596:
 1147              	.LBB592:
  77:MidiController.cpp **** }
 1148              		.loc 1 77 5 is_stmt 1 view .LVU283
 1149              	.LBB588:
 482:MidiController.cpp ****     if (note < 128 && activeNotes_[note]) {
 1150              		.loc 1 482 6 view .LVU284
 1151              	.LBE588:
 1152              	.LBE592:
 1153              	.LBE596:
 1154              	.LBE601:
 1155              	.LBE606:
 483:MidiController.cpp ****         activeNotes_[note] = false;
 1156              		.loc 1 483 5 view .LVU285
 1157              	.LBB607:
 1158              	.LBB602:
 1159              	.LBB597:
 1160              	.LBB593:
 1161              	.LBB589:
 1162              	.LBB580:
 482:MidiController.cpp ****     if (note < 128 && activeNotes_[note]) {
ARM GAS  C:\Users\Marco\AppData\Local\Temp\ccVZoccs.s 			page 46


 1163              		.loc 1 482 6 view .LVU286
 1164              	.LBB576:
 483:MidiController.cpp ****         activeNotes_[note] = false;
 1165              		.loc 1 483 40 is_stmt 0 view .LVU287
 1166 0086 0844     		add	r0, r0, r1
 1167              	.LVL58:
 483:MidiController.cpp ****         activeNotes_[note] = false;
 1168              		.loc 1 483 40 view .LVU288
 1169 0088 084B     		ldr	r3, .L52+8
 483:MidiController.cpp ****         activeNotes_[note] = false;
 1170              		.loc 1 483 20 view .LVU289
 1171 008a C15C     		ldrb	r1, [r0, r3]	@ zero_extendqisi2
 1172              	.LVL59:
 483:MidiController.cpp ****         activeNotes_[note] = false;
 1173              		.loc 1 483 20 view .LVU290
 1174 008c 01B9     		cbnz	r1, .L51
 1175              	.LVL60:
 1176              	.L45:
 483:MidiController.cpp ****         activeNotes_[note] = false;
 1177              		.loc 1 483 20 view .LVU291
 1178 008e 7047     		bx	lr
 1179              	.LVL61:
 1180              	.L51:
 484:MidiController.cpp ****         if (activeNoteCount_ > 0) {
 1181              		.loc 1 484 9 is_stmt 1 view .LVU292
 484:MidiController.cpp ****         if (activeNoteCount_ > 0) {
 1182              		.loc 1 484 28 is_stmt 0 view .LVU293
 1183 0090 0021     		movs	r1, #0
 1184 0092 C154     		strb	r1, [r0, r3]
 1185              	.LVL62:
 485:MidiController.cpp ****             activeNoteCount_--;
 1186              		.loc 1 485 9 is_stmt 1 view .LVU294
 485:MidiController.cpp ****             activeNoteCount_--;
 1187              		.loc 1 485 13 is_stmt 0 view .LVU295
 1188 0094 92F84136 		ldrb	r3, [r2, #1601]	@ zero_extendqisi2
 485:MidiController.cpp ****             activeNoteCount_--;
 1189              		.loc 1 485 9 view .LVU296
 1190 0098 002B     		cmp	r3, #0
 1191 009a F8D0     		beq	.L45
 486:MidiController.cpp ****         }
 1192              		.loc 1 486 13 is_stmt 1 view .LVU297
 486:MidiController.cpp ****         }
 1193              		.loc 1 486 29 is_stmt 0 view .LVU298
 1194 009c 013B     		subs	r3, r3, #1
 1195 009e 82F84136 		strb	r3, [r2, #1601]
 1196              	.LVL63:
 486:MidiController.cpp ****         }
 1197              		.loc 1 486 29 view .LVU299
 1198 00a2 7047     		bx	lr
 1199              	.L53:
 1200              		.align	2
 1201              	.L52:
 1202 00a4 B4220100 		.word	74420
 1203 00a8 B5220100 		.word	74421
 1204 00ac C1250100 		.word	75201
 1205              	.LBE576:
 1206              	.LBE580:
ARM GAS  C:\Users\Marco\AppData\Local\Temp\ccVZoccs.s 			page 47


 1207              	.LBE589:
 1208              	.LBE593:
 1209              	.LBE597:
 1210              	.LBE602:
 1211              	.LBE607:
 1212              		.cfi_endproc
 1213              	.LFE2569:
 1215              		.section	.text._ZN14MidiController11SendNoteOffEhh,"ax",%progbits
 1216              		.align	1
 1217              		.p2align 2,,3
 1218              		.global	_ZN14MidiController11SendNoteOffEhh
 1219              		.syntax unified
 1220              		.thumb
 1221              		.thumb_func
 1222              		.fpu fpv5-d16
 1224              	_ZN14MidiController11SendNoteOffEhh:
 1225              	.LVL64:
 1226              	.LFB2570:
  70:MidiController.cpp ****     if (!enabled_ || !IsValidNote(note) || !IsValidVelocity(velocity)) {
 1227              		.loc 1 70 66 is_stmt 1 view -0
 1228              		.cfi_startproc
 1229              		@ args = 0, pretend = 0, frame = 0
 1230              		@ frame_needed = 0, uses_anonymous_args = 0
  71:MidiController.cpp ****         return;
 1231              		.loc 1 71 5 view .LVU301
  71:MidiController.cpp ****         return;
 1232              		.loc 1 71 10 is_stmt 0 view .LVU302
 1233 0000 00F5903C 		add	ip, r0, #73728
  71:MidiController.cpp ****         return;
 1234              		.loc 1 71 41 view .LVU303
 1235 0004 9CF8AE32 		ldrb	r3, [ip, #686]	@ zero_extendqisi2
 1236 0008 002B     		cmp	r3, #0
 1237 000a 40D0     		beq	.L66
 1238              	.LVL65:
 1239              	.LBB632:
 1240              	.LBI632:
 463:MidiController.cpp ****     return note <= 127;
 1241              		.loc 1 463 6 is_stmt 1 view .LVU304
 1242              	.LBB633:
 464:MidiController.cpp **** }
 1243              		.loc 1 464 5 view .LVU305
 464:MidiController.cpp **** }
 1244              		.loc 1 464 5 is_stmt 0 view .LVU306
 1245              	.LBE633:
 1246              	.LBE632:
  71:MidiController.cpp ****         return;
 1247              		.loc 1 71 19 view .LVU307
 1248 000c 0B06     		lsls	r3, r1, #24
 1249 000e 3ED4     		bmi	.L66
 1250              	.LVL66:
 1251              	.LBB634:
 1252              	.LBI634:
 467:MidiController.cpp ****     return velocity <= 127;
 1253              		.loc 1 467 6 is_stmt 1 view .LVU308
 1254              	.LBB635:
 468:MidiController.cpp **** }
 1255              		.loc 1 468 5 view .LVU309
ARM GAS  C:\Users\Marco\AppData\Local\Temp\ccVZoccs.s 			page 48


 468:MidiController.cpp **** }
 1256              		.loc 1 468 5 is_stmt 0 view .LVU310
 1257              	.LBE635:
 1258              	.LBE634:
  71:MidiController.cpp ****         return;
 1259              		.loc 1 71 41 view .LVU311
 1260 0010 1306     		lsls	r3, r2, #24
 1261 0012 3CD4     		bmi	.L66
 1262              	.LVL67:
 1263              	.LBB636:
 1264              	.LBI636:
  70:MidiController.cpp ****     if (!enabled_ || !IsValidNote(note) || !IsValidVelocity(velocity)) {
 1265              		.loc 1 70 6 is_stmt 1 view .LVU312
 1266              	.LBB637:
  75:MidiController.cpp ****     QueueMessage(status, note, velocity);
 1267              		.loc 1 75 5 view .LVU313
 1268              	.LBB638:
 1269              	.LBI638:
 455:MidiController.cpp ****     return (uint8_t)messageType | ((channel - 1) & 0x0F);
 1270              		.loc 1 455 9 view .LVU314
 1271              	.LBB639:
 456:MidiController.cpp **** }
 1272              		.loc 1 456 5 view .LVU315
 456:MidiController.cpp **** }
 1273              		.loc 1 456 5 is_stmt 0 view .LVU316
 1274              	.LBE639:
 1275              	.LBE638:
  76:MidiController.cpp ****     TrackNoteOff(note);
 1276              		.loc 1 76 5 is_stmt 1 view .LVU317
 1277              	.LBB644:
 1278              	.LBI644:
 361:MidiController.cpp ****     if (IsQueueFull()) {
 1279              		.loc 1 361 6 view .LVU318
 1280              	.LBB645:
 362:MidiController.cpp ****         return; // Queue is full, drop message
 1281              		.loc 1 362 5 view .LVU319
 1282              	.LBB646:
 1283              	.LBI646:
 410:MidiController.cpp ****     return queueCount_ >= MESSAGE_QUEUE_SIZE;
 1284              		.loc 1 410 6 view .LVU320
 1285              	.LBB647:
 411:MidiController.cpp **** }
 1286              		.loc 1 411 5 view .LVU321
 411:MidiController.cpp **** }
 1287              		.loc 1 411 12 is_stmt 0 view .LVU322
 1288 0014 9CF8B635 		ldrb	r3, [ip, #1462]	@ zero_extendqisi2
 1289              	.LVL68:
 411:MidiController.cpp **** }
 1290              		.loc 1 411 12 view .LVU323
 1291              	.LBE647:
 1292              	.LBE646:
 362:MidiController.cpp ****         return; // Queue is full, drop message
 1293              		.loc 1 362 5 view .LVU324
 1294 0018 3F2B     		cmp	r3, #63
 1295 001a 34D8     		bhi	.L67
 366:MidiController.cpp ****     msg.status = status;
 1296              		.loc 1 366 5 is_stmt 1 view .LVU325
ARM GAS  C:\Users\Marco\AppData\Local\Temp\ccVZoccs.s 			page 49


 1297              	.LBE645:
 1298              	.LBE644:
 1299              	.LBE637:
 1300              	.LBE636:
  70:MidiController.cpp ****     if (!enabled_ || !IsValidNote(note) || !IsValidVelocity(velocity)) {
 1301              		.loc 1 70 66 is_stmt 0 view .LVU326
 1302 001c F0B5     		push	{r4, r5, r6, r7, lr}
 1303              		.cfi_def_cfa_offset 20
 1304              		.cfi_offset 4, -20
 1305              		.cfi_offset 5, -16
 1306              		.cfi_offset 6, -12
 1307              		.cfi_offset 7, -8
 1308              		.cfi_offset 14, -4
 1309              	.LBB680:
 1310              	.LBB676:
 1311              	.LBB653:
 1312              	.LBB640:
 456:MidiController.cpp **** }
 1313              		.loc 1 456 45 view .LVU327
 1314 001e 9CF8AC42 		ldrb	r4, [ip, #684]	@ zero_extendqisi2
 1315              	.LBE640:
 1316              	.LBE653:
 1317              	.LBB654:
 1318              	.LBB648:
 374:MidiController.cpp **** }
 1319              		.loc 1 374 16 view .LVU328
 1320 0022 5D1C     		adds	r5, r3, #1
 366:MidiController.cpp ****     msg.status = status;
 1321              		.loc 1 366 38 view .LVU329
 1322 0024 9CF8B535 		ldrb	r3, [ip, #1461]	@ zero_extendqisi2
 1323              	.LVL69:
 367:MidiController.cpp ****     msg.data1 = data1;
 1324              		.loc 1 367 5 is_stmt 1 view .LVU330
 1325              	.LBE648:
 1326              	.LBE654:
 1327              	.LBB655:
 1328              	.LBB641:
 456:MidiController.cpp **** }
 1329              		.loc 1 456 45 is_stmt 0 view .LVU331
 1330 0028 013C     		subs	r4, r4, #1
 1331              	.LBE641:
 1332              	.LBE655:
 1333              	.LBB656:
 1334              	.LBB649:
 367:MidiController.cpp ****     msg.data1 = data1;
 1335              		.loc 1 367 16 view .LVU332
 1336 002a 1E4F     		ldr	r7, .L73
 1337 002c 03EB430E 		add	lr, r3, r3, lsl #1
 368:MidiController.cpp ****     msg.data2 = data2;
 1338              		.loc 1 368 15 view .LVU333
 1339 0030 1D4E     		ldr	r6, .L73+4
 1340              	.LBE649:
 1341              	.LBE656:
 1342              	.LBB657:
 1343              	.LBB642:
 456:MidiController.cpp **** }
 1344              		.loc 1 456 50 view .LVU334
ARM GAS  C:\Users\Marco\AppData\Local\Temp\ccVZoccs.s 			page 50


 1345 0032 04F00F04 		and	r4, r4, #15
 1346              	.LBE642:
 1347              	.LBE657:
 1348              	.LBB658:
 1349              	.LBB650:
 373:MidiController.cpp ****     queueCount_++;
 1350              		.loc 1 373 30 view .LVU335
 1351 0036 0133     		adds	r3, r3, #1
 1352              	.LVL70:
 367:MidiController.cpp ****     msg.data1 = data1;
 1353              		.loc 1 367 16 view .LVU336
 1354 0038 00EB8E0E 		add	lr, r0, lr, lsl #2
 1355              	.LBE650:
 1356              	.LBE658:
 1357              	.LBB659:
 1358              	.LBB660:
 1359              	.LBB661:
 483:MidiController.cpp ****         activeNotes_[note] = false;
 1360              		.loc 1 483 40 view .LVU337
 1361 003c 0844     		add	r0, r0, r1
 1362              	.LVL71:
 483:MidiController.cpp ****         activeNotes_[note] = false;
 1363              		.loc 1 483 40 view .LVU338
 1364              	.LBE661:
 1365              	.LBE660:
 1366              	.LBE659:
 1367              	.LBB668:
 1368              	.LBB643:
 456:MidiController.cpp **** }
 1369              		.loc 1 456 33 view .LVU339
 1370 003e 64F07F04 		orn	r4, r4, #127
 1371              	.LBE643:
 1372              	.LBE668:
 1373              	.LBB669:
 1374              	.LBB651:
 373:MidiController.cpp ****     queueCount_++;
 1375              		.loc 1 373 35 view .LVU340
 1376 0042 03F03F03 		and	r3, r3, #63
 1377              	.LVL72:
 367:MidiController.cpp ****     msg.data1 = data1;
 1378              		.loc 1 367 16 view .LVU341
 1379 0046 0EF80740 		strb	r4, [lr, r7]
 1380              	.LVL73:
 368:MidiController.cpp ****     msg.data2 = data2;
 1381              		.loc 1 368 5 is_stmt 1 view .LVU342
 369:MidiController.cpp ****     msg.hasData2 = true;
 1382              		.loc 1 369 15 is_stmt 0 view .LVU343
 1383 004a 184C     		ldr	r4, .L73+8
 368:MidiController.cpp ****     msg.data2 = data2;
 1384              		.loc 1 368 15 view .LVU344
 1385 004c 0EF80610 		strb	r1, [lr, r6]
 369:MidiController.cpp ****     msg.hasData2 = true;
 1386              		.loc 1 369 5 is_stmt 1 view .LVU345
 369:MidiController.cpp ****     msg.hasData2 = true;
 1387              		.loc 1 369 15 is_stmt 0 view .LVU346
 1388 0050 0EF80420 		strb	r2, [lr, r4]
 370:MidiController.cpp ****     msg.timestamp = lastActivityTime_; // TODO: Get actual timestamp
ARM GAS  C:\Users\Marco\AppData\Local\Temp\ccVZoccs.s 			page 51


 1389              		.loc 1 370 5 is_stmt 1 view .LVU347
 370:MidiController.cpp ****     msg.timestamp = lastActivityTime_; // TODO: Get actual timestamp
 1390              		.loc 1 370 18 is_stmt 0 view .LVU348
 1391 0054 0124     		movs	r4, #1
 1392 0056 164A     		ldr	r2, .L73+12
 1393              	.LVL74:
 370:MidiController.cpp ****     msg.timestamp = lastActivityTime_; // TODO: Get actual timestamp
 1394              		.loc 1 370 18 view .LVU349
 1395 0058 0EF80240 		strb	r4, [lr, r2]
 371:MidiController.cpp ****     
 1396              		.loc 1 371 5 is_stmt 1 view .LVU350
 371:MidiController.cpp ****     
 1397              		.loc 1 371 19 is_stmt 0 view .LVU351
 1398 005c 043A     		subs	r2, r2, #4
 1399 005e DCF8BC45 		ldr	r4, [ip, #1468]
 1400 0062 4EF80240 		str	r4, [lr, r2]
 373:MidiController.cpp ****     queueCount_++;
 1401              		.loc 1 373 5 is_stmt 1 view .LVU352
 373:MidiController.cpp ****     queueCount_++;
 1402              		.loc 1 373 16 is_stmt 0 view .LVU353
 1403 0066 8CF8B535 		strb	r3, [ip, #1461]
 1404              	.LVL75:
 374:MidiController.cpp **** }
 1405              		.loc 1 374 5 is_stmt 1 view .LVU354
 374:MidiController.cpp **** }
 1406              		.loc 1 374 5 is_stmt 0 view .LVU355
 1407              	.LBE651:
 1408              	.LBE669:
  77:MidiController.cpp **** }
 1409              		.loc 1 77 5 is_stmt 1 view .LVU356
 1410              	.LBB670:
 1411              	.LBI659:
 482:MidiController.cpp ****     if (note < 128 && activeNotes_[note]) {
 1412              		.loc 1 482 6 view .LVU357
 1413              	.LBE670:
 1414              	.LBE676:
 1415              	.LBE680:
 483:MidiController.cpp ****         activeNotes_[note] = false;
 1416              		.loc 1 483 5 view .LVU358
 1417              	.LBB681:
 1418              	.LBB677:
 1419              	.LBB671:
 1420              	.LBB665:
 1421              	.LBI660:
 482:MidiController.cpp ****     if (note < 128 && activeNotes_[note]) {
 1422              		.loc 1 482 6 view .LVU359
 1423              	.LBB662:
 483:MidiController.cpp ****         activeNotes_[note] = false;
 1424              		.loc 1 483 40 is_stmt 0 view .LVU360
 1425 006a 124B     		ldr	r3, .L73+16
 1426              	.LBE662:
 1427              	.LBE665:
 1428              	.LBE671:
 1429              	.LBB672:
 1430              	.LBB652:
 374:MidiController.cpp **** }
 1431              		.loc 1 374 16 view .LVU361
ARM GAS  C:\Users\Marco\AppData\Local\Temp\ccVZoccs.s 			page 52


 1432 006c 8CF8B655 		strb	r5, [ip, #1462]
 1433              	.LBE652:
 1434              	.LBE672:
 1435              	.LBB673:
 1436              	.LBB666:
 1437              	.LBB663:
 483:MidiController.cpp ****         activeNotes_[note] = false;
 1438              		.loc 1 483 20 view .LVU362
 1439 0070 C25C     		ldrb	r2, [r0, r3]	@ zero_extendqisi2
 1440 0072 3AB1     		cbz	r2, .L54
 484:MidiController.cpp ****         if (activeNoteCount_ > 0) {
 1441              		.loc 1 484 9 is_stmt 1 view .LVU363
 484:MidiController.cpp ****         if (activeNoteCount_ > 0) {
 1442              		.loc 1 484 28 is_stmt 0 view .LVU364
 1443 0074 0022     		movs	r2, #0
 1444 0076 C254     		strb	r2, [r0, r3]
 485:MidiController.cpp ****             activeNoteCount_--;
 1445              		.loc 1 485 9 is_stmt 1 view .LVU365
 485:MidiController.cpp ****             activeNoteCount_--;
 1446              		.loc 1 485 13 is_stmt 0 view .LVU366
 1447 0078 9CF84136 		ldrb	r3, [ip, #1601]	@ zero_extendqisi2
 485:MidiController.cpp ****             activeNoteCount_--;
 1448              		.loc 1 485 9 view .LVU367
 1449 007c 13B1     		cbz	r3, .L54
 486:MidiController.cpp ****         }
 1450              		.loc 1 486 13 is_stmt 1 view .LVU368
 486:MidiController.cpp ****         }
 1451              		.loc 1 486 29 is_stmt 0 view .LVU369
 1452 007e 013B     		subs	r3, r3, #1
 1453 0080 8CF84136 		strb	r3, [ip, #1601]
 1454              	.LVL76:
 1455              	.L54:
 486:MidiController.cpp ****         }
 1456              		.loc 1 486 29 view .LVU370
 1457              	.LBE663:
 1458              	.LBE666:
 1459              	.LBE673:
 1460              	.LBE677:
 1461              	.LBE681:
  78:MidiController.cpp **** 
 1462              		.loc 1 78 1 view .LVU371
 1463 0084 F0BD     		pop	{r4, r5, r6, r7, pc}
 1464              	.LVL77:
 1465              	.L67:
 1466              		.cfi_def_cfa_offset 0
 1467              		.cfi_restore 4
 1468              		.cfi_restore 5
 1469              		.cfi_restore 6
 1470              		.cfi_restore 7
 1471              		.cfi_restore 14
 1472              	.LBB682:
 1473              	.LBB678:
  77:MidiController.cpp **** }
 1474              		.loc 1 77 5 is_stmt 1 view .LVU372
 1475              	.LBB674:
 482:MidiController.cpp ****     if (note < 128 && activeNotes_[note]) {
 1476              		.loc 1 482 6 view .LVU373
ARM GAS  C:\Users\Marco\AppData\Local\Temp\ccVZoccs.s 			page 53


 1477              	.LBE674:
 1478              	.LBE678:
 1479              	.LBE682:
 483:MidiController.cpp ****         activeNotes_[note] = false;
 1480              		.loc 1 483 5 view .LVU374
 1481              	.LBB683:
 1482              	.LBB679:
 1483              	.LBB675:
 1484              	.LBB667:
 482:MidiController.cpp ****     if (note < 128 && activeNotes_[note]) {
 1485              		.loc 1 482 6 view .LVU375
 1486              	.LBB664:
 483:MidiController.cpp ****         activeNotes_[note] = false;
 1487              		.loc 1 483 40 is_stmt 0 view .LVU376
 1488 0086 0844     		add	r0, r0, r1
 1489              	.LVL78:
 483:MidiController.cpp ****         activeNotes_[note] = false;
 1490              		.loc 1 483 40 view .LVU377
 1491 0088 0A4B     		ldr	r3, .L73+16
 483:MidiController.cpp ****         activeNotes_[note] = false;
 1492              		.loc 1 483 20 view .LVU378
 1493 008a C25C     		ldrb	r2, [r0, r3]	@ zero_extendqisi2
 1494              	.LVL79:
 483:MidiController.cpp ****         activeNotes_[note] = false;
 1495              		.loc 1 483 20 view .LVU379
 1496 008c 02B9     		cbnz	r2, .L72
 1497              	.LVL80:
 1498              	.L66:
 483:MidiController.cpp ****         activeNotes_[note] = false;
 1499              		.loc 1 483 20 view .LVU380
 1500 008e 7047     		bx	lr
 1501              	.LVL81:
 1502              	.L72:
 484:MidiController.cpp ****         if (activeNoteCount_ > 0) {
 1503              		.loc 1 484 9 is_stmt 1 view .LVU381
 484:MidiController.cpp ****         if (activeNoteCount_ > 0) {
 1504              		.loc 1 484 28 is_stmt 0 view .LVU382
 1505 0090 0022     		movs	r2, #0
 1506 0092 C254     		strb	r2, [r0, r3]
 1507              	.LVL82:
 485:MidiController.cpp ****             activeNoteCount_--;
 1508              		.loc 1 485 9 is_stmt 1 view .LVU383
 485:MidiController.cpp ****             activeNoteCount_--;
 1509              		.loc 1 485 13 is_stmt 0 view .LVU384
 1510 0094 9CF84136 		ldrb	r3, [ip, #1601]	@ zero_extendqisi2
 485:MidiController.cpp ****             activeNoteCount_--;
 1511              		.loc 1 485 9 view .LVU385
 1512 0098 002B     		cmp	r3, #0
 1513 009a F8D0     		beq	.L66
 486:MidiController.cpp ****         }
 1514              		.loc 1 486 13 is_stmt 1 view .LVU386
 486:MidiController.cpp ****         }
 1515              		.loc 1 486 29 is_stmt 0 view .LVU387
 1516 009c 013B     		subs	r3, r3, #1
 1517 009e 8CF84136 		strb	r3, [ip, #1601]
 1518              	.LVL83:
 486:MidiController.cpp ****         }
ARM GAS  C:\Users\Marco\AppData\Local\Temp\ccVZoccs.s 			page 54


 1519              		.loc 1 486 29 view .LVU388
 1520 00a2 7047     		bx	lr
 1521              	.L74:
 1522              		.align	2
 1523              	.L73:
 1524 00a4 B4220100 		.word	74420
 1525 00a8 B5220100 		.word	74421
 1526 00ac B6220100 		.word	74422
 1527 00b0 BC220100 		.word	74428
 1528 00b4 C1250100 		.word	75201
 1529              	.LBE664:
 1530              	.LBE667:
 1531              	.LBE675:
 1532              	.LBE679:
 1533              	.LBE683:
 1534              		.cfi_endproc
 1535              	.LFE2570:
 1537              		.section	.text._ZN14MidiController15SendAllNotesOffEv,"ax",%progbits
 1538              		.align	1
 1539              		.p2align 2,,3
 1540              		.global	_ZN14MidiController15SendAllNotesOffEv
 1541              		.syntax unified
 1542              		.thumb
 1543              		.thumb_func
 1544              		.fpu fpv5-d16
 1546              	_ZN14MidiController15SendAllNotesOffEv:
 1547              	.LVL84:
 1548              	.LFB2571:
  80:MidiController.cpp ****     // Send MIDI CC All Notes Off
 1549              		.loc 1 80 40 is_stmt 1 view -0
 1550              		.cfi_startproc
 1551              		@ args = 0, pretend = 0, frame = 16
 1552              		@ frame_needed = 0, uses_anonymous_args = 0
  82:MidiController.cpp ****     
 1553              		.loc 1 82 5 view .LVU390
  80:MidiController.cpp ****     // Send MIDI CC All Notes Off
 1554              		.loc 1 80 40 is_stmt 0 view .LVU391
 1555 0000 2DE9F04F 		push	{r4, r5, r6, r7, r8, r9, r10, fp, lr}
 1556              		.cfi_def_cfa_offset 36
 1557              		.cfi_offset 4, -36
 1558              		.cfi_offset 5, -32
 1559              		.cfi_offset 6, -28
 1560              		.cfi_offset 7, -24
 1561              		.cfi_offset 8, -20
 1562              		.cfi_offset 9, -16
 1563              		.cfi_offset 10, -12
 1564              		.cfi_offset 11, -8
 1565              		.cfi_offset 14, -4
 1566              	.LBB721:
 1567              	.LBB722:
  94:MidiController.cpp ****         return;
 1568              		.loc 1 94 10 view .LVU392
 1569 0004 00F5903A 		add	r10, r0, #73728
 1570              	.LBE722:
 1571              	.LBE721:
  80:MidiController.cpp ****     // Send MIDI CC All Notes Off
 1572              		.loc 1 80 40 view .LVU393
ARM GAS  C:\Users\Marco\AppData\Local\Temp\ccVZoccs.s 			page 55


 1573 0008 85B0     		sub	sp, sp, #20
 1574              		.cfi_def_cfa_offset 56
 1575              	.LBB750:
 1576              	.LBB747:
  94:MidiController.cpp ****         return;
 1577              		.loc 1 94 10 view .LVU394
 1578 000a 9AF8AE32 		ldrb	r3, [r10, #686]	@ zero_extendqisi2
 1579              	.LBE747:
 1580              	.LBE750:
  80:MidiController.cpp ****     // Send MIDI CC All Notes Off
 1581              		.loc 1 80 40 view .LVU395
 1582 000e 0390     		str	r0, [sp, #12]
 1583              	.LVL85:
 1584              	.LBB751:
 1585              	.LBI721:
  93:MidiController.cpp ****     if (!enabled_ || !IsValidController(controller)) {
 1586              		.loc 1 93 6 is_stmt 1 view .LVU396
 1587              	.LBB748:
  94:MidiController.cpp ****         return;
 1588              		.loc 1 94 5 view .LVU397
  94:MidiController.cpp ****         return;
 1589              		.loc 1 94 10 is_stmt 0 view .LVU398
 1590 0010 0193     		str	r3, [sp, #4]
  94:MidiController.cpp ****         return;
 1591              		.loc 1 94 19 view .LVU399
 1592 0012 43B3     		cbz	r3, .L76
 1593              	.LVL86:
  94:MidiController.cpp ****         return;
 1594              		.loc 1 94 19 view .LVU400
 1595              	.LBE748:
 1596              	.LBE751:
 472:MidiController.cpp **** }
 1597              		.loc 1 472 5 is_stmt 1 view .LVU401
 1598              	.LBB752:
 1599              	.LBB749:
 1600              	.LBB723:
 1601              	.LBI723:
  93:MidiController.cpp ****     if (!enabled_ || !IsValidController(controller)) {
 1602              		.loc 1 93 6 view .LVU402
 1603              	.LBB724:
  98:MidiController.cpp ****     QueueMessage(status, controller, value);
 1604              		.loc 1 98 5 view .LVU403
 1605              	.LBB725:
 1606              	.LBI725:
 455:MidiController.cpp ****     return (uint8_t)messageType | ((channel - 1) & 0x0F);
 1607              		.loc 1 455 9 view .LVU404
 1608              	.LBB726:
 456:MidiController.cpp **** }
 1609              		.loc 1 456 5 view .LVU405
 456:MidiController.cpp **** }
 1610              		.loc 1 456 5 is_stmt 0 view .LVU406
 1611              	.LBE726:
 1612              	.LBE725:
  99:MidiController.cpp **** }
 1613              		.loc 1 99 5 is_stmt 1 view .LVU407
 1614              	.LBB731:
 1615              	.LBI731:
ARM GAS  C:\Users\Marco\AppData\Local\Temp\ccVZoccs.s 			page 56


 361:MidiController.cpp ****     if (IsQueueFull()) {
 1616              		.loc 1 361 6 view .LVU408
 1617              	.LBB732:
 362:MidiController.cpp ****         return; // Queue is full, drop message
 1618              		.loc 1 362 5 view .LVU409
 1619              	.LBB733:
 1620              	.LBI733:
 410:MidiController.cpp ****     return queueCount_ >= MESSAGE_QUEUE_SIZE;
 1621              		.loc 1 410 6 view .LVU410
 1622              	.LBB734:
 411:MidiController.cpp **** }
 1623              		.loc 1 411 5 view .LVU411
 411:MidiController.cpp **** }
 1624              		.loc 1 411 12 is_stmt 0 view .LVU412
 1625 0014 9AF8B635 		ldrb	r3, [r10, #1462]	@ zero_extendqisi2
 1626              	.LVL87:
 411:MidiController.cpp **** }
 1627              		.loc 1 411 12 view .LVU413
 1628              	.LBE734:
 1629              	.LBE733:
 362:MidiController.cpp ****         return; // Queue is full, drop message
 1630              		.loc 1 362 5 view .LVU414
 1631 0018 3F2B     		cmp	r3, #63
 1632 001a 24D8     		bhi	.L76
 366:MidiController.cpp ****     msg.status = status;
 1633              		.loc 1 366 5 is_stmt 1 view .LVU415
 1634 001c 0446     		mov	r4, r0
 374:MidiController.cpp **** }
 1635              		.loc 1 374 16 is_stmt 0 view .LVU416
 1636 001e 581C     		adds	r0, r3, #1
 1637              	.LVL88:
 374:MidiController.cpp **** }
 1638              		.loc 1 374 16 view .LVU417
 1639              	.LBE732:
 1640              	.LBE731:
 1641              	.LBB739:
 1642              	.LBB727:
 456:MidiController.cpp **** }
 1643              		.loc 1 456 45 view .LVU418
 1644 0020 9AF8AC32 		ldrb	r3, [r10, #684]	@ zero_extendqisi2
 1645              	.LBE727:
 1646              	.LBE739:
 1647              	.LBB740:
 1648              	.LBB735:
 366:MidiController.cpp ****     msg.status = status;
 1649              		.loc 1 366 38 view .LVU419
 1650 0024 9AF8B525 		ldrb	r2, [r10, #1461]	@ zero_extendqisi2
 1651              	.LVL89:
 367:MidiController.cpp ****     msg.data1 = data1;
 1652              		.loc 1 367 5 is_stmt 1 view .LVU420
 1653              	.LBE735:
 1654              	.LBE740:
 1655              	.LBB741:
 1656              	.LBB728:
 456:MidiController.cpp **** }
 1657              		.loc 1 456 45 is_stmt 0 view .LVU421
 1658 0028 013B     		subs	r3, r3, #1
ARM GAS  C:\Users\Marco\AppData\Local\Temp\ccVZoccs.s 			page 57


 1659              	.LBE728:
 1660              	.LBE741:
 1661              	.LBB742:
 1662              	.LBB736:
 367:MidiController.cpp ****     msg.data1 = data1;
 1663              		.loc 1 367 16 view .LVU422
 1664 002a 02EB4201 		add	r1, r2, r2, lsl #1
 373:MidiController.cpp ****     queueCount_++;
 1665              		.loc 1 373 30 view .LVU423
 1666 002e 0132     		adds	r2, r2, #1
 1667              	.LVL90:
 373:MidiController.cpp ****     queueCount_++;
 1668              		.loc 1 373 30 view .LVU424
 1669              	.LBE736:
 1670              	.LBE742:
 1671              	.LBB743:
 1672              	.LBB729:
 456:MidiController.cpp **** }
 1673              		.loc 1 456 50 view .LVU425
 1674 0030 03F00F03 		and	r3, r3, #15
 1675              	.LBE729:
 1676              	.LBE743:
 1677              	.LBB744:
 1678              	.LBB737:
 367:MidiController.cpp ****     msg.data1 = data1;
 1679              		.loc 1 367 16 view .LVU426
 1680 0034 04EB8101 		add	r1, r4, r1, lsl #2
 1681 0038 354C     		ldr	r4, .L94
 1682              	.LVL91:
 367:MidiController.cpp ****     msg.data1 = data1;
 1683              		.loc 1 367 16 view .LVU427
 1684              	.LBE737:
 1685              	.LBE744:
 1686              	.LBB745:
 1687              	.LBB730:
 456:MidiController.cpp **** }
 1688              		.loc 1 456 33 view .LVU428
 1689 003a 63F04F03 		orn	r3, r3, #79
 1690              	.LBE730:
 1691              	.LBE745:
 1692              	.LBB746:
 1693              	.LBB738:
 373:MidiController.cpp ****     queueCount_++;
 1694              		.loc 1 373 35 view .LVU429
 1695 003e 02F03F02 		and	r2, r2, #63
 1696              	.LVL92:
 367:MidiController.cpp ****     msg.data1 = data1;
 1697              		.loc 1 367 16 view .LVU430
 1698 0042 0B55     		strb	r3, [r1, r4]
 1699              	.LVL93:
 368:MidiController.cpp ****     msg.data2 = data2;
 1700              		.loc 1 368 5 is_stmt 1 view .LVU431
 368:MidiController.cpp ****     msg.data2 = data2;
 1701              		.loc 1 368 15 is_stmt 0 view .LVU432
 1702 0044 7B24     		movs	r4, #123
 1703 0046 334B     		ldr	r3, .L94+4
 1704 0048 CC54     		strb	r4, [r1, r3]
ARM GAS  C:\Users\Marco\AppData\Local\Temp\ccVZoccs.s 			page 58


 369:MidiController.cpp ****     msg.hasData2 = true;
 1705              		.loc 1 369 5 is_stmt 1 view .LVU433
 369:MidiController.cpp ****     msg.hasData2 = true;
 1706              		.loc 1 369 15 is_stmt 0 view .LVU434
 1707 004a 0133     		adds	r3, r3, #1
 1708 004c 0024     		movs	r4, #0
 1709 004e CC54     		strb	r4, [r1, r3]
 370:MidiController.cpp ****     msg.timestamp = lastActivityTime_; // TODO: Get actual timestamp
 1710              		.loc 1 370 5 is_stmt 1 view .LVU435
 370:MidiController.cpp ****     msg.timestamp = lastActivityTime_; // TODO: Get actual timestamp
 1711              		.loc 1 370 18 is_stmt 0 view .LVU436
 1712 0050 0633     		adds	r3, r3, #6
 1713 0052 0124     		movs	r4, #1
 1714 0054 CC54     		strb	r4, [r1, r3]
 371:MidiController.cpp ****     
 1715              		.loc 1 371 5 is_stmt 1 view .LVU437
 371:MidiController.cpp ****     
 1716              		.loc 1 371 19 is_stmt 0 view .LVU438
 1717 0056 043B     		subs	r3, r3, #4
 1718 0058 DAF8BC45 		ldr	r4, [r10, #1468]
 1719 005c CC50     		str	r4, [r1, r3]
 373:MidiController.cpp ****     queueCount_++;
 1720              		.loc 1 373 5 is_stmt 1 view .LVU439
 373:MidiController.cpp ****     queueCount_++;
 1721              		.loc 1 373 16 is_stmt 0 view .LVU440
 1722 005e 8AF8B525 		strb	r2, [r10, #1461]
 374:MidiController.cpp **** }
 1723              		.loc 1 374 5 is_stmt 1 view .LVU441
 374:MidiController.cpp **** }
 1724              		.loc 1 374 16 is_stmt 0 view .LVU442
 1725 0062 8AF8B605 		strb	r0, [r10, #1462]
 1726              	.LVL94:
 1727              	.L76:
 374:MidiController.cpp **** }
 1728              		.loc 1 374 16 view .LVU443
 1729 0066 039B     		ldr	r3, [sp, #12]
 1730 0068 DFF8B880 		ldr	r8, .L94+20
 1731 006c 2A49     		ldr	r1, .L94+8
 1732 006e 9844     		add	r8, r8, r3
 1733 0070 1944     		add	r1, r1, r3
 1734              	.LBE738:
 1735              	.LBE746:
 1736              	.LBE724:
 1737              	.LBE723:
 1738              	.LBE749:
 1739              	.LBE752:
  80:MidiController.cpp ****     // Send MIDI CC All Notes Off
 1740              		.loc 1 80 40 view .LVU444
 1741 0072 C646     		mov	lr, r8
 1742 0074 4346     		mov	r3, r8
 1743 0076 01E0     		b	.L81
 1744              	.LVL95:
 1745              	.L78:
 1746              	.LBB753:
  85:MidiController.cpp ****         if (activeNotes_[i]) {
 1747              		.loc 1 85 23 discriminator 2 view .LVU445
 1748 0078 9942     		cmp	r1, r3
ARM GAS  C:\Users\Marco\AppData\Local\Temp\ccVZoccs.s 			page 59


 1749 007a 46D0     		beq	.L93
 1750              	.L81:
 1751              	.LVL96:
  86:MidiController.cpp ****             SendNoteOff(i);
 1752              		.loc 1 86 9 is_stmt 1 view .LVU446
  85:MidiController.cpp ****         if (activeNotes_[i]) {
 1753              		.loc 1 85 5 view .LVU447
  85:MidiController.cpp ****         if (activeNotes_[i]) {
 1754              		.loc 1 85 23 view .LVU448
  86:MidiController.cpp ****             SendNoteOff(i);
 1755              		.loc 1 86 9 is_stmt 0 view .LVU449
 1756 007c 13F8012F 		ldrb	r2, [r3, #1]!	@ zero_extendqisi2
 1757 0080 002A     		cmp	r2, #0
 1758 0082 F9D0     		beq	.L78
  87:MidiController.cpp ****         }
 1759              		.loc 1 87 13 is_stmt 1 view .LVU450
 1760              	.LVL97:
 1761              	.LBB754:
 1762              	.LBI754:
  66:MidiController.cpp ****     SendNoteOff(note, 64); // Default velocity
 1763              		.loc 1 66 6 view .LVU451
 1764              	.LBE754:
 1765              	.LBE753:
  67:MidiController.cpp **** }
 1766              		.loc 1 67 5 view .LVU452
 1767              	.LBB823:
 1768              	.LBB819:
 1769              	.LBB755:
 1770              	.LBI755:
  70:MidiController.cpp ****     if (!enabled_ || !IsValidNote(note) || !IsValidVelocity(velocity)) {
 1771              		.loc 1 70 6 view .LVU453
 1772              	.LBB756:
  71:MidiController.cpp ****         return;
 1773              		.loc 1 71 5 view .LVU454
  71:MidiController.cpp ****         return;
 1774              		.loc 1 71 5 is_stmt 0 view .LVU455
 1775              	.LBE756:
 1776              	.LBE755:
 1777              	.LBE819:
 1778              	.LBE823:
 464:MidiController.cpp **** }
 1779              		.loc 1 464 5 is_stmt 1 view .LVU456
 468:MidiController.cpp **** }
 1780              		.loc 1 468 5 view .LVU457
 1781              	.LBB824:
 1782              	.LBB820:
 1783              	.LBB816:
 1784              	.LBB813:
 1785              	.LBB757:
 1786              	.LBI757:
  70:MidiController.cpp ****     if (!enabled_ || !IsValidNote(note) || !IsValidVelocity(velocity)) {
 1787              		.loc 1 70 6 view .LVU458
 1788              	.LBB758:
  75:MidiController.cpp ****     QueueMessage(status, note, velocity);
 1789              		.loc 1 75 5 view .LVU459
 1790              	.LBB759:
 1791              	.LBI759:
ARM GAS  C:\Users\Marco\AppData\Local\Temp\ccVZoccs.s 			page 60


 455:MidiController.cpp ****     return (uint8_t)messageType | ((channel - 1) & 0x0F);
 1792              		.loc 1 455 9 view .LVU460
 1793              	.LBB760:
 456:MidiController.cpp **** }
 1794              		.loc 1 456 5 view .LVU461
 456:MidiController.cpp **** }
 1795              		.loc 1 456 5 is_stmt 0 view .LVU462
 1796              	.LBE760:
 1797              	.LBE759:
  76:MidiController.cpp ****     TrackNoteOff(note);
 1798              		.loc 1 76 5 is_stmt 1 view .LVU463
 1799              	.LBB765:
 1800              	.LBI765:
 361:MidiController.cpp ****     if (IsQueueFull()) {
 1801              		.loc 1 361 6 view .LVU464
 1802              	.LBB766:
 362:MidiController.cpp ****         return; // Queue is full, drop message
 1803              		.loc 1 362 5 view .LVU465
 1804              	.LBB767:
 1805              	.LBI767:
 410:MidiController.cpp ****     return queueCount_ >= MESSAGE_QUEUE_SIZE;
 1806              		.loc 1 410 6 view .LVU466
 1807              	.LBB768:
 411:MidiController.cpp **** }
 1808              		.loc 1 411 5 view .LVU467
 1809              	.LBE768:
 1810              	.LBE767:
 366:MidiController.cpp ****     msg.status = status;
 1811              		.loc 1 366 5 view .LVU468
 366:MidiController.cpp ****     msg.status = status;
 1812              		.loc 1 366 5 is_stmt 0 view .LVU469
 1813              	.LBE766:
 1814              	.LBE765:
  77:MidiController.cpp **** }
 1815              		.loc 1 77 5 is_stmt 1 view .LVU470
 1816              	.LBB778:
 1817              	.LBI778:
 482:MidiController.cpp ****     if (note < 128 && activeNotes_[note]) {
 1818              		.loc 1 482 6 view .LVU471
 1819              	.LBE778:
 1820              	.LBE758:
 1821              	.LBE757:
 1822              	.LBE813:
 1823              	.LBE816:
 1824              	.LBE820:
 1825              	.LBE824:
 483:MidiController.cpp ****         activeNotes_[note] = false;
 1826              		.loc 1 483 5 view .LVU472
 1827              	.LBB825:
 1828              	.LBB821:
 1829              	.LBB817:
 1830              	.LBB814:
 1831              	.LBB809:
 1832              	.LBB805:
 1833              	.LBB789:
 1834              	.LBB779:
 1835              	.LBI779:
ARM GAS  C:\Users\Marco\AppData\Local\Temp\ccVZoccs.s 			page 61


 482:MidiController.cpp ****     if (note < 128 && activeNotes_[note]) {
 1836              		.loc 1 482 6 view .LVU473
 1837              	.LBB780:
 484:MidiController.cpp ****         if (activeNoteCount_ > 0) {
 1838              		.loc 1 484 9 view .LVU474
 1839              	.LBE780:
 1840              	.LBE779:
 1841              	.LBE789:
 1842              	.LBB790:
 1843              	.LBB771:
 368:MidiController.cpp ****     msg.data2 = data2;
 1844              		.loc 1 368 15 is_stmt 0 view .LVU475
 1845 0084 5A1E     		subs	r2, r3, #1
 1846              	.LBE771:
 1847              	.LBE790:
 1848              	.LBE805:
 1849              	.LBE809:
  71:MidiController.cpp ****         return;
 1850              		.loc 1 71 41 view .LVU476
 1851 0086 0198     		ldr	r0, [sp, #4]
 1852              	.LBB810:
 1853              	.LBB806:
 1854              	.LBB791:
 1855              	.LBB785:
 1856              	.LBB781:
 484:MidiController.cpp ****         if (activeNoteCount_ > 0) {
 1857              		.loc 1 484 28 view .LVU477
 1858 0088 0026     		movs	r6, #0
 1859              	.LBE781:
 1860              	.LBE785:
 1861              	.LBE791:
 1862              	.LBB792:
 1863              	.LBB772:
 367:MidiController.cpp ****     msg.data1 = data1;
 1864              		.loc 1 367 16 view .LVU478
 1865 008a DFF884B0 		ldr	fp, .L94
 368:MidiController.cpp ****     msg.data2 = data2;
 1866              		.loc 1 368 15 view .LVU479
 1867 008e DFF88490 		ldr	r9, .L94+4
 1868 0092 A2EB0E02 		sub	r2, r2, lr
 369:MidiController.cpp ****     msg.hasData2 = true;
 1869              		.loc 1 369 15 view .LVU480
 1870 0096 4FF04008 		mov	r8, #64
 370:MidiController.cpp ****     msg.timestamp = lastActivityTime_; // TODO: Get actual timestamp
 1871              		.loc 1 370 18 view .LVU481
 1872 009a 4FF0010C 		mov	ip, #1
 1873              	.LBE772:
 1874              	.LBE792:
 1875              	.LBE806:
 1876              	.LBE810:
  71:MidiController.cpp ****         return;
 1877              		.loc 1 71 41 view .LVU482
 1878 009e 0028     		cmp	r0, #0
 1879 00a0 EAD0     		beq	.L78
 1880              	.LBB811:
 1881              	.LBB807:
 1882              	.LBB793:
ARM GAS  C:\Users\Marco\AppData\Local\Temp\ccVZoccs.s 			page 62


 1883              	.LBB786:
 1884              	.LBB782:
 486:MidiController.cpp ****         }
 1885              		.loc 1 486 13 is_stmt 1 view .LVU483
 1886              	.LBE782:
 1887              	.LBE786:
 1888              	.LBE793:
 1889              	.LBB794:
 1890              	.LBB773:
 1891              	.LBB770:
 1892              	.LBB769:
 411:MidiController.cpp **** }
 1893              		.loc 1 411 12 is_stmt 0 view .LVU484
 1894 00a2 9AF8B605 		ldrb	r0, [r10, #1462]	@ zero_extendqisi2
 1895              	.LBE769:
 1896              	.LBE770:
 362:MidiController.cpp ****         return; // Queue is full, drop message
 1897              		.loc 1 362 5 view .LVU485
 1898 00a6 3F28     		cmp	r0, #63
 374:MidiController.cpp **** }
 1899              		.loc 1 374 16 view .LVU486
 1900 00a8 6044     		add	r0, r0, ip
 1901 00aa 0290     		str	r0, [sp, #8]
 362:MidiController.cpp ****         return; // Queue is full, drop message
 1902              		.loc 1 362 5 view .LVU487
 1903 00ac 23D8     		bhi	.L80
 1904              	.LBE773:
 1905              	.LBE794:
 1906              	.LBB795:
 1907              	.LBB761:
 456:MidiController.cpp **** }
 1908              		.loc 1 456 45 view .LVU488
 1909 00ae 9AF8AC52 		ldrb	r5, [r10, #684]	@ zero_extendqisi2
 1910              	.LBE761:
 1911              	.LBE795:
 1912              	.LBB796:
 1913              	.LBB774:
 366:MidiController.cpp ****     msg.status = status;
 1914              		.loc 1 366 38 view .LVU489
 1915 00b2 9AF8B505 		ldrb	r0, [r10, #1461]	@ zero_extendqisi2
 1916              	.LVL98:
 367:MidiController.cpp ****     msg.data1 = data1;
 1917              		.loc 1 367 5 is_stmt 1 view .LVU490
 1918              	.LBE774:
 1919              	.LBE796:
 1920              	.LBB797:
 1921              	.LBB762:
 456:MidiController.cpp **** }
 1922              		.loc 1 456 45 is_stmt 0 view .LVU491
 1923 00b6 013D     		subs	r5, r5, #1
 1924              	.LBE762:
 1925              	.LBE797:
 1926              	.LBB798:
 1927              	.LBB775:
 367:MidiController.cpp ****     msg.data1 = data1;
 1928              		.loc 1 367 16 view .LVU492
 1929 00b8 039F     		ldr	r7, [sp, #12]
ARM GAS  C:\Users\Marco\AppData\Local\Temp\ccVZoccs.s 			page 63


 1930 00ba 00EB4004 		add	r4, r0, r0, lsl #1
 373:MidiController.cpp ****     queueCount_++;
 1931              		.loc 1 373 30 view .LVU493
 1932 00be 6044     		add	r0, r0, ip
 1933              	.LVL99:
 373:MidiController.cpp ****     queueCount_++;
 1934              		.loc 1 373 30 view .LVU494
 1935              	.LBE775:
 1936              	.LBE798:
 1937              	.LBB799:
 1938              	.LBB763:
 456:MidiController.cpp **** }
 1939              		.loc 1 456 50 view .LVU495
 1940 00c0 05F00F05 		and	r5, r5, #15
 1941              	.LBE763:
 1942              	.LBE799:
 1943              	.LBB800:
 1944              	.LBB776:
 367:MidiController.cpp ****     msg.data1 = data1;
 1945              		.loc 1 367 16 view .LVU496
 1946 00c4 07EB8404 		add	r4, r7, r4, lsl #2
 373:MidiController.cpp ****     queueCount_++;
 1947              		.loc 1 373 35 view .LVU497
 1948 00c8 00F03F00 		and	r0, r0, #63
 1949              	.LVL100:
 373:MidiController.cpp ****     queueCount_++;
 1950              		.loc 1 373 35 view .LVU498
 1951              	.LBE776:
 1952              	.LBE800:
 1953              	.LBB801:
 1954              	.LBB764:
 456:MidiController.cpp **** }
 1955              		.loc 1 456 33 view .LVU499
 1956 00cc 65F07F05 		orn	r5, r5, #127
 1957              	.LBE764:
 1958              	.LBE801:
 1959              	.LBB802:
 1960              	.LBB777:
 367:MidiController.cpp ****     msg.data1 = data1;
 1961              		.loc 1 367 16 view .LVU500
 1962 00d0 04F80B50 		strb	r5, [r4, fp]
 1963              	.LVL101:
 368:MidiController.cpp ****     msg.data2 = data2;
 1964              		.loc 1 368 5 is_stmt 1 view .LVU501
 368:MidiController.cpp ****     msg.data2 = data2;
 1965              		.loc 1 368 15 is_stmt 0 view .LVU502
 1966 00d4 04F80920 		strb	r2, [r4, r9]
 369:MidiController.cpp ****     msg.hasData2 = true;
 1967              		.loc 1 369 5 is_stmt 1 view .LVU503
 369:MidiController.cpp ****     msg.hasData2 = true;
 1968              		.loc 1 369 15 is_stmt 0 view .LVU504
 1969 00d8 104D     		ldr	r5, .L94+12
 370:MidiController.cpp ****     msg.timestamp = lastActivityTime_; // TODO: Get actual timestamp
 1970              		.loc 1 370 18 view .LVU505
 1971 00da 114A     		ldr	r2, .L94+16
 369:MidiController.cpp ****     msg.hasData2 = true;
 1972              		.loc 1 369 15 view .LVU506
ARM GAS  C:\Users\Marco\AppData\Local\Temp\ccVZoccs.s 			page 64


 1973 00dc 04F80580 		strb	r8, [r4, r5]
 370:MidiController.cpp ****     msg.timestamp = lastActivityTime_; // TODO: Get actual timestamp
 1974              		.loc 1 370 5 is_stmt 1 view .LVU507
 371:MidiController.cpp ****     
 1975              		.loc 1 371 19 is_stmt 0 view .LVU508
 1976 00e0 0235     		adds	r5, r5, #2
 370:MidiController.cpp ****     msg.timestamp = lastActivityTime_; // TODO: Get actual timestamp
 1977              		.loc 1 370 18 view .LVU509
 1978 00e2 04F802C0 		strb	ip, [r4, r2]
 371:MidiController.cpp ****     
 1979              		.loc 1 371 5 is_stmt 1 view .LVU510
 371:MidiController.cpp ****     
 1980              		.loc 1 371 19 is_stmt 0 view .LVU511
 1981 00e6 DAF8BC25 		ldr	r2, [r10, #1468]
 1982 00ea 6251     		str	r2, [r4, r5]
 373:MidiController.cpp ****     queueCount_++;
 1983              		.loc 1 373 5 is_stmt 1 view .LVU512
 374:MidiController.cpp **** }
 1984              		.loc 1 374 16 is_stmt 0 view .LVU513
 1985 00ec 029A     		ldr	r2, [sp, #8]
 373:MidiController.cpp ****     queueCount_++;
 1986              		.loc 1 373 16 view .LVU514
 1987 00ee 8AF8B505 		strb	r0, [r10, #1461]
 374:MidiController.cpp **** }
 1988              		.loc 1 374 5 is_stmt 1 view .LVU515
 374:MidiController.cpp **** }
 1989              		.loc 1 374 16 is_stmt 0 view .LVU516
 1990 00f2 8AF8B625 		strb	r2, [r10, #1462]
 1991              	.L80:
 374:MidiController.cpp **** }
 1992              		.loc 1 374 16 view .LVU517
 1993              	.LBE777:
 1994              	.LBE802:
 1995              	.LBB803:
 1996              	.LBB787:
 1997              	.LBB783:
 484:MidiController.cpp ****         if (activeNoteCount_ > 0) {
 1998              		.loc 1 484 28 view .LVU518
 1999 00f6 1E70     		strb	r6, [r3]
 485:MidiController.cpp ****             activeNoteCount_--;
 2000              		.loc 1 485 9 is_stmt 1 view .LVU519
 485:MidiController.cpp ****             activeNoteCount_--;
 2001              		.loc 1 485 13 is_stmt 0 view .LVU520
 2002 00f8 9AF84126 		ldrb	r2, [r10, #1601]	@ zero_extendqisi2
 486:MidiController.cpp ****         }
 2003              		.loc 1 486 29 view .LVU521
 2004 00fc 501E     		subs	r0, r2, #1
 485:MidiController.cpp ****             activeNoteCount_--;
 2005              		.loc 1 485 9 view .LVU522
 2006 00fe 002A     		cmp	r2, #0
 2007 0100 BAD0     		beq	.L78
 2008              	.LBE783:
 2009              	.LBE787:
 2010              	.LBE803:
 2011              	.LBE807:
 2012              	.LBE811:
 2013              	.LBE814:
ARM GAS  C:\Users\Marco\AppData\Local\Temp\ccVZoccs.s 			page 65


 2014              	.LBE817:
 2015              	.LBE821:
  85:MidiController.cpp ****         if (activeNotes_[i]) {
 2016              		.loc 1 85 23 view .LVU523
 2017 0102 9942     		cmp	r1, r3
 2018              	.LBB822:
 2019              	.LBB818:
 2020              	.LBB815:
 2021              	.LBB812:
 2022              	.LBB808:
 2023              	.LBB804:
 2024              	.LBB788:
 2025              	.LBB784:
 486:MidiController.cpp ****         }
 2026              		.loc 1 486 29 view .LVU524
 2027 0104 8AF84106 		strb	r0, [r10, #1601]
 2028              	.LBE784:
 2029              	.LBE788:
 2030              	.LBE804:
 2031              	.LBE808:
 2032              	.LBE812:
 2033              	.LBE815:
 2034              	.LBE818:
 2035              	.LBE822:
  85:MidiController.cpp ****         if (activeNotes_[i]) {
 2036              		.loc 1 85 23 view .LVU525
 2037 0108 B8D1     		bne	.L81
 2038              	.LVL102:
 2039              	.L93:
  85:MidiController.cpp ****         if (activeNotes_[i]) {
 2040              		.loc 1 85 23 view .LVU526
 2041              	.LBE825:
  90:MidiController.cpp **** 
 2042              		.loc 1 90 1 view .LVU527
 2043 010a 05B0     		add	sp, sp, #20
 2044              		.cfi_def_cfa_offset 36
 2045              		@ sp needed
 2046 010c BDE8F08F 		pop	{r4, r5, r6, r7, r8, r9, r10, fp, pc}
 2047              	.LVL103:
 2048              	.L95:
  90:MidiController.cpp **** 
 2049              		.loc 1 90 1 view .LVU528
 2050              		.align	2
 2051              	.L94:
 2052 0110 B4220100 		.word	74420
 2053 0114 B5220100 		.word	74421
 2054 0118 40260100 		.word	75328
 2055 011c B6220100 		.word	74422
 2056 0120 BC220100 		.word	74428
 2057 0124 C0250100 		.word	75200
 2058              		.cfi_endproc
 2059              	.LFE2571:
 2061              		.section	.text._ZN14MidiController17SendControlChangeEhh,"ax",%progbits
 2062              		.align	1
 2063              		.p2align 2,,3
 2064              		.global	_ZN14MidiController17SendControlChangeEhh
 2065              		.syntax unified
ARM GAS  C:\Users\Marco\AppData\Local\Temp\ccVZoccs.s 			page 66


 2066              		.thumb
 2067              		.thumb_func
 2068              		.fpu fpv5-d16
 2070              	_ZN14MidiController17SendControlChangeEhh:
 2071              	.LVL104:
 2072              	.LFB2572:
  93:MidiController.cpp ****     if (!enabled_ || !IsValidController(controller)) {
 2073              		.loc 1 93 75 is_stmt 1 view -0
 2074              		.cfi_startproc
 2075              		@ args = 0, pretend = 0, frame = 0
 2076              		@ frame_needed = 0, uses_anonymous_args = 0
  94:MidiController.cpp ****         return;
 2077              		.loc 1 94 5 view .LVU530
  93:MidiController.cpp ****     if (!enabled_ || !IsValidController(controller)) {
 2078              		.loc 1 93 75 is_stmt 0 view .LVU531
 2079 0000 F0B5     		push	{r4, r5, r6, r7, lr}
 2080              		.cfi_def_cfa_offset 20
 2081              		.cfi_offset 4, -20
 2082              		.cfi_offset 5, -16
 2083              		.cfi_offset 6, -12
 2084              		.cfi_offset 7, -8
 2085              		.cfi_offset 14, -4
  94:MidiController.cpp ****         return;
 2086              		.loc 1 94 10 view .LVU532
 2087 0002 00F5903E 		add	lr, r0, #73728
  94:MidiController.cpp ****         return;
 2088              		.loc 1 94 19 view .LVU533
 2089 0006 9EF8AE32 		ldrb	r3, [lr, #686]	@ zero_extendqisi2
 2090 000a 4BB3     		cbz	r3, .L96
 2091              	.LVL105:
 2092              	.LBB838:
 2093              	.LBI838:
 471:MidiController.cpp ****     return controller <= 127;
 2094              		.loc 1 471 6 is_stmt 1 view .LVU534
 2095              	.LBB839:
 472:MidiController.cpp **** }
 2096              		.loc 1 472 5 view .LVU535
 472:MidiController.cpp **** }
 2097              		.loc 1 472 5 is_stmt 0 view .LVU536
 2098              	.LBE839:
 2099              	.LBE838:
  94:MidiController.cpp ****         return;
 2100              		.loc 1 94 19 view .LVU537
 2101 000c 0B06     		lsls	r3, r1, #24
 2102 000e 27D4     		bmi	.L96
 2103              	.LVL106:
 2104              	.LBB840:
 2105              	.LBI840:
  93:MidiController.cpp ****     if (!enabled_ || !IsValidController(controller)) {
 2106              		.loc 1 93 6 is_stmt 1 view .LVU538
 2107              	.LBB841:
  98:MidiController.cpp ****     QueueMessage(status, controller, value);
 2108              		.loc 1 98 5 view .LVU539
 2109              	.LBB842:
 2110              	.LBI842:
 455:MidiController.cpp ****     return (uint8_t)messageType | ((channel - 1) & 0x0F);
 2111              		.loc 1 455 9 view .LVU540
ARM GAS  C:\Users\Marco\AppData\Local\Temp\ccVZoccs.s 			page 67


 2112              	.LBB843:
 456:MidiController.cpp **** }
 2113              		.loc 1 456 5 view .LVU541
 456:MidiController.cpp **** }
 2114              		.loc 1 456 5 is_stmt 0 view .LVU542
 2115              	.LBE843:
 2116              	.LBE842:
  99:MidiController.cpp **** }
 2117              		.loc 1 99 5 is_stmt 1 view .LVU543
 2118              	.LBB848:
 2119              	.LBI848:
 361:MidiController.cpp ****     if (IsQueueFull()) {
 2120              		.loc 1 361 6 view .LVU544
 2121              	.LBB849:
 362:MidiController.cpp ****         return; // Queue is full, drop message
 2122              		.loc 1 362 5 view .LVU545
 2123              	.LBB850:
 2124              	.LBI850:
 410:MidiController.cpp ****     return queueCount_ >= MESSAGE_QUEUE_SIZE;
 2125              		.loc 1 410 6 view .LVU546
 2126              	.LBB851:
 411:MidiController.cpp **** }
 2127              		.loc 1 411 5 view .LVU547
 411:MidiController.cpp **** }
 2128              		.loc 1 411 12 is_stmt 0 view .LVU548
 2129 0010 9EF8B635 		ldrb	r3, [lr, #1462]	@ zero_extendqisi2
 2130              	.LVL107:
 411:MidiController.cpp **** }
 2131              		.loc 1 411 12 view .LVU549
 2132              	.LBE851:
 2133              	.LBE850:
 362:MidiController.cpp ****         return; // Queue is full, drop message
 2134              		.loc 1 362 5 view .LVU550
 2135 0014 3F2B     		cmp	r3, #63
 2136 0016 23D8     		bhi	.L96
 366:MidiController.cpp ****     msg.status = status;
 2137              		.loc 1 366 5 is_stmt 1 view .LVU551
 2138              	.LBE849:
 2139              	.LBE848:
 2140              	.LBB856:
 2141              	.LBB844:
 456:MidiController.cpp **** }
 2142              		.loc 1 456 45 is_stmt 0 view .LVU552
 2143 0018 9EF8ACC2 		ldrb	ip, [lr, #684]	@ zero_extendqisi2
 2144              	.LBE844:
 2145              	.LBE856:
 2146              	.LBB857:
 2147              	.LBB852:
 374:MidiController.cpp **** }
 2148              		.loc 1 374 16 view .LVU553
 2149 001c 5C1C     		adds	r4, r3, #1
 366:MidiController.cpp ****     msg.status = status;
 2150              		.loc 1 366 38 view .LVU554
 2151 001e 9EF8B535 		ldrb	r3, [lr, #1461]	@ zero_extendqisi2
 2152              	.LVL108:
 367:MidiController.cpp ****     msg.data1 = data1;
 2153              		.loc 1 367 5 is_stmt 1 view .LVU555
ARM GAS  C:\Users\Marco\AppData\Local\Temp\ccVZoccs.s 			page 68


 2154              	.LBE852:
 2155              	.LBE857:
 2156              	.LBB858:
 2157              	.LBB845:
 456:MidiController.cpp **** }
 2158              		.loc 1 456 45 is_stmt 0 view .LVU556
 2159 0022 0CF1FF3C 		add	ip, ip, #-1
 2160              	.LBE845:
 2161              	.LBE858:
 2162              	.LBB859:
 2163              	.LBB853:
 367:MidiController.cpp ****     msg.data1 = data1;
 2164              		.loc 1 367 16 view .LVU557
 2165 0026 0F4E     		ldr	r6, .L102
 2166 0028 03EB4307 		add	r7, r3, r3, lsl #1
 368:MidiController.cpp ****     msg.data2 = data2;
 2167              		.loc 1 368 15 view .LVU558
 2168 002c 0E4D     		ldr	r5, .L102+4
 2169              	.LBE853:
 2170              	.LBE859:
 2171              	.LBB860:
 2172              	.LBB846:
 456:MidiController.cpp **** }
 2173              		.loc 1 456 50 view .LVU559
 2174 002e 0CF00F0C 		and	ip, ip, #15
 2175              	.LBE846:
 2176              	.LBE860:
 2177              	.LBB861:
 2178              	.LBB854:
 373:MidiController.cpp ****     queueCount_++;
 2179              		.loc 1 373 30 view .LVU560
 2180 0032 0133     		adds	r3, r3, #1
 2181              	.LVL109:
 367:MidiController.cpp ****     msg.data1 = data1;
 2182              		.loc 1 367 16 view .LVU561
 2183 0034 00EB8700 		add	r0, r0, r7, lsl #2
 2184              	.LVL110:
 367:MidiController.cpp ****     msg.data1 = data1;
 2185              		.loc 1 367 16 view .LVU562
 2186              	.LBE854:
 2187              	.LBE861:
 2188              	.LBB862:
 2189              	.LBB847:
 456:MidiController.cpp **** }
 2190              		.loc 1 456 33 view .LVU563
 2191 0038 6CF04F0C 		orn	ip, ip, #79
 2192              	.LBE847:
 2193              	.LBE862:
 2194              	.LBB863:
 2195              	.LBB855:
 373:MidiController.cpp ****     queueCount_++;
 2196              		.loc 1 373 35 view .LVU564
 2197 003c 03F03F03 		and	r3, r3, #63
 2198              	.LVL111:
 367:MidiController.cpp ****     msg.data1 = data1;
 2199              		.loc 1 367 16 view .LVU565
 2200 0040 00F806C0 		strb	ip, [r0, r6]
ARM GAS  C:\Users\Marco\AppData\Local\Temp\ccVZoccs.s 			page 69


 2201              	.LVL112:
 368:MidiController.cpp ****     msg.data2 = data2;
 2202              		.loc 1 368 5 is_stmt 1 view .LVU566
 368:MidiController.cpp ****     msg.data2 = data2;
 2203              		.loc 1 368 15 is_stmt 0 view .LVU567
 2204 0044 4155     		strb	r1, [r0, r5]
 369:MidiController.cpp ****     msg.hasData2 = true;
 2205              		.loc 1 369 5 is_stmt 1 view .LVU568
 369:MidiController.cpp ****     msg.hasData2 = true;
 2206              		.loc 1 369 15 is_stmt 0 view .LVU569
 2207 0046 0949     		ldr	r1, .L102+8
 2208              	.LVL113:
 369:MidiController.cpp ****     msg.hasData2 = true;
 2209              		.loc 1 369 15 view .LVU570
 2210 0048 4254     		strb	r2, [r0, r1]
 370:MidiController.cpp ****     msg.timestamp = lastActivityTime_; // TODO: Get actual timestamp
 2211              		.loc 1 370 5 is_stmt 1 view .LVU571
 370:MidiController.cpp ****     msg.timestamp = lastActivityTime_; // TODO: Get actual timestamp
 2212              		.loc 1 370 18 is_stmt 0 view .LVU572
 2213 004a 0121     		movs	r1, #1
 2214 004c 084A     		ldr	r2, .L102+12
 2215              	.LVL114:
 370:MidiController.cpp ****     msg.timestamp = lastActivityTime_; // TODO: Get actual timestamp
 2216              		.loc 1 370 18 view .LVU573
 2217 004e 8154     		strb	r1, [r0, r2]
 371:MidiController.cpp ****     
 2218              		.loc 1 371 5 is_stmt 1 view .LVU574
 371:MidiController.cpp ****     
 2219              		.loc 1 371 19 is_stmt 0 view .LVU575
 2220 0050 043A     		subs	r2, r2, #4
 2221 0052 DEF8BC15 		ldr	r1, [lr, #1468]
 2222 0056 8150     		str	r1, [r0, r2]
 373:MidiController.cpp ****     queueCount_++;
 2223              		.loc 1 373 5 is_stmt 1 view .LVU576
 373:MidiController.cpp ****     queueCount_++;
 2224              		.loc 1 373 16 is_stmt 0 view .LVU577
 2225 0058 8EF8B535 		strb	r3, [lr, #1461]
 2226              	.LVL115:
 374:MidiController.cpp **** }
 2227              		.loc 1 374 5 is_stmt 1 view .LVU578
 374:MidiController.cpp **** }
 2228              		.loc 1 374 16 is_stmt 0 view .LVU579
 2229 005c 8EF8B645 		strb	r4, [lr, #1462]
 2230              	.LVL116:
 2231              	.L96:
 374:MidiController.cpp **** }
 2232              		.loc 1 374 16 view .LVU580
 2233              	.LBE855:
 2234              	.LBE863:
 2235              	.LBE841:
 2236              	.LBE840:
 100:MidiController.cpp **** 
 2237              		.loc 1 100 1 view .LVU581
 2238 0060 F0BD     		pop	{r4, r5, r6, r7, pc}
 2239              	.L103:
 2240 0062 00BF     		.align	2
 2241              	.L102:
ARM GAS  C:\Users\Marco\AppData\Local\Temp\ccVZoccs.s 			page 70


 2242 0064 B4220100 		.word	74420
 2243 0068 B5220100 		.word	74421
 2244 006c B6220100 		.word	74422
 2245 0070 BC220100 		.word	74428
 2246              		.cfi_endproc
 2247              	.LFE2572:
 2249              		.section	.text._ZN14MidiController17SendProgramChangeEh,"ax",%progbits
 2250              		.align	1
 2251              		.p2align 2,,3
 2252              		.global	_ZN14MidiController17SendProgramChangeEh
 2253              		.syntax unified
 2254              		.thumb
 2255              		.thumb_func
 2256              		.fpu fpv5-d16
 2258              	_ZN14MidiController17SendProgramChangeEh:
 2259              	.LVL117:
 2260              	.LFB2573:
 102:MidiController.cpp ****     if (!enabled_ || program > 127) {
 2261              		.loc 1 102 57 is_stmt 1 view -0
 2262              		.cfi_startproc
 2263              		@ args = 0, pretend = 0, frame = 0
 2264              		@ frame_needed = 0, uses_anonymous_args = 0
 103:MidiController.cpp ****         return;
 2265              		.loc 1 103 5 view .LVU583
 103:MidiController.cpp ****         return;
 2266              		.loc 1 103 10 is_stmt 0 view .LVU584
 2267 0000 00F59033 		add	r3, r0, #73728
 103:MidiController.cpp ****         return;
 2268              		.loc 1 103 5 view .LVU585
 2269 0004 93F8AE22 		ldrb	r2, [r3, #686]	@ zero_extendqisi2
 2270 0008 6AB3     		cbz	r2, .L110
 103:MidiController.cpp ****         return;
 2271              		.loc 1 103 19 discriminator 1 view .LVU586
 2272 000a 0A06     		lsls	r2, r1, #24
 2273 000c 2BD4     		bmi	.L110
 2274              	.LVL118:
 2275              	.LBB872:
 2276              	.LBI872:
 102:MidiController.cpp ****     if (!enabled_ || program > 127) {
 2277              		.loc 1 102 6 is_stmt 1 view .LVU587
 2278              	.LBB873:
 107:MidiController.cpp ****     QueueMessage(status, program);
 2279              		.loc 1 107 5 view .LVU588
 2280              	.LBB874:
 2281              	.LBI874:
 455:MidiController.cpp ****     return (uint8_t)messageType | ((channel - 1) & 0x0F);
 2282              		.loc 1 455 9 view .LVU589
 2283              	.LBB875:
 456:MidiController.cpp **** }
 2284              		.loc 1 456 5 view .LVU590
 456:MidiController.cpp **** }
 2285              		.loc 1 456 5 is_stmt 0 view .LVU591
 2286              	.LBE875:
 2287              	.LBE874:
 108:MidiController.cpp **** }
 2288              		.loc 1 108 5 is_stmt 1 view .LVU592
 2289              	.LBB880:
ARM GAS  C:\Users\Marco\AppData\Local\Temp\ccVZoccs.s 			page 71


 2290              	.LBI880:
 377:MidiController.cpp ****     if (IsQueueFull()) {
 2291              		.loc 1 377 6 view .LVU593
 2292              	.LBB881:
 378:MidiController.cpp ****         return;
 2293              		.loc 1 378 5 view .LVU594
 2294              	.LBB882:
 2295              	.LBI882:
 410:MidiController.cpp ****     return queueCount_ >= MESSAGE_QUEUE_SIZE;
 2296              		.loc 1 410 6 view .LVU595
 2297              	.LBB883:
 411:MidiController.cpp **** }
 2298              		.loc 1 411 5 view .LVU596
 411:MidiController.cpp **** }
 2299              		.loc 1 411 12 is_stmt 0 view .LVU597
 2300 000e 93F8B6C5 		ldrb	ip, [r3, #1462]	@ zero_extendqisi2
 2301              	.LVL119:
 411:MidiController.cpp **** }
 2302              		.loc 1 411 12 view .LVU598
 2303              	.LBE883:
 2304              	.LBE882:
 378:MidiController.cpp ****         return;
 2305              		.loc 1 378 5 view .LVU599
 2306 0012 BCF13F0F 		cmp	ip, #63
 2307 0016 26D8     		bhi	.L110
 382:MidiController.cpp ****     msg.status = status;
 2308              		.loc 1 382 5 is_stmt 1 view .LVU600
 2309              	.LBE881:
 2310              	.LBE880:
 2311              	.LBE873:
 2312              	.LBE872:
 102:MidiController.cpp ****     if (!enabled_ || program > 127) {
 2313              		.loc 1 102 57 is_stmt 0 view .LVU601
 2314 0018 30B5     		push	{r4, r5, lr}
 2315              		.cfi_def_cfa_offset 12
 2316              		.cfi_offset 4, -12
 2317              		.cfi_offset 5, -8
 2318              		.cfi_offset 14, -4
 2319              	.LBB899:
 2320              	.LBB898:
 2321              	.LBB889:
 2322              	.LBB884:
 390:MidiController.cpp **** }
 2323              		.loc 1 390 16 view .LVU602
 2324 001a 0CF1010E 		add	lr, ip, #1
 2325              	.LBE884:
 2326              	.LBE889:
 2327              	.LBB890:
 2328              	.LBB876:
 456:MidiController.cpp **** }
 2329              		.loc 1 456 45 view .LVU603
 2330 001e 93F8ACC2 		ldrb	ip, [r3, #684]	@ zero_extendqisi2
 2331              	.LBE876:
 2332              	.LBE890:
 2333              	.LBB891:
 2334              	.LBB885:
 382:MidiController.cpp ****     msg.status = status;
ARM GAS  C:\Users\Marco\AppData\Local\Temp\ccVZoccs.s 			page 72


 2335              		.loc 1 382 38 view .LVU604
 2336 0022 93F8B525 		ldrb	r2, [r3, #1461]	@ zero_extendqisi2
 2337              	.LVL120:
 383:MidiController.cpp ****     msg.data1 = data1;
 2338              		.loc 1 383 5 is_stmt 1 view .LVU605
 2339              	.LBE885:
 2340              	.LBE891:
 2341              	.LBB892:
 2342              	.LBB877:
 456:MidiController.cpp **** }
 2343              		.loc 1 456 45 is_stmt 0 view .LVU606
 2344 0026 0CF1FF3C 		add	ip, ip, #-1
 2345              	.LBE877:
 2346              	.LBE892:
 2347              	.LBB893:
 2348              	.LBB886:
 383:MidiController.cpp ****     msg.data1 = data1;
 2349              		.loc 1 383 16 view .LVU607
 2350 002a 0F4D     		ldr	r5, .L113
 2351 002c 02EB4204 		add	r4, r2, r2, lsl #1
 389:MidiController.cpp ****     queueCount_++;
 2352              		.loc 1 389 30 view .LVU608
 2353 0030 0132     		adds	r2, r2, #1
 2354              	.LVL121:
 389:MidiController.cpp ****     queueCount_++;
 2355              		.loc 1 389 30 view .LVU609
 2356              	.LBE886:
 2357              	.LBE893:
 2358              	.LBB894:
 2359              	.LBB878:
 456:MidiController.cpp **** }
 2360              		.loc 1 456 50 view .LVU610
 2361 0032 0CF00F0C 		and	ip, ip, #15
 2362              	.LBE878:
 2363              	.LBE894:
 2364              	.LBB895:
 2365              	.LBB887:
 383:MidiController.cpp ****     msg.data1 = data1;
 2366              		.loc 1 383 16 view .LVU611
 2367 0036 00EB8400 		add	r0, r0, r4, lsl #2
 2368              	.LVL122:
 385:MidiController.cpp ****     msg.hasData2 = false;
 2369              		.loc 1 385 15 view .LVU612
 2370 003a 0024     		movs	r4, #0
 2371              	.LBE887:
 2372              	.LBE895:
 2373              	.LBB896:
 2374              	.LBB879:
 456:MidiController.cpp **** }
 2375              		.loc 1 456 33 view .LVU613
 2376 003c 6CF03F0C 		orn	ip, ip, #63
 2377              	.LBE879:
 2378              	.LBE896:
 2379              	.LBB897:
 2380              	.LBB888:
 389:MidiController.cpp ****     queueCount_++;
 2381              		.loc 1 389 35 view .LVU614
ARM GAS  C:\Users\Marco\AppData\Local\Temp\ccVZoccs.s 			page 73


 2382 0040 02F03F02 		and	r2, r2, #63
 2383              	.LVL123:
 383:MidiController.cpp ****     msg.data1 = data1;
 2384              		.loc 1 383 16 view .LVU615
 2385 0044 00F805C0 		strb	ip, [r0, r5]
 2386              	.LVL124:
 384:MidiController.cpp ****     msg.data2 = 0;
 2387              		.loc 1 384 5 is_stmt 1 view .LVU616
 384:MidiController.cpp ****     msg.data2 = 0;
 2388              		.loc 1 384 15 is_stmt 0 view .LVU617
 2389 0048 0135     		adds	r5, r5, #1
 2390 004a 4155     		strb	r1, [r0, r5]
 385:MidiController.cpp ****     msg.hasData2 = false;
 2391              		.loc 1 385 5 is_stmt 1 view .LVU618
 385:MidiController.cpp ****     msg.hasData2 = false;
 2392              		.loc 1 385 15 is_stmt 0 view .LVU619
 2393 004c 0749     		ldr	r1, .L113+4
 2394              	.LVL125:
 385:MidiController.cpp ****     msg.hasData2 = false;
 2395              		.loc 1 385 15 view .LVU620
 2396 004e 4454     		strb	r4, [r0, r1]
 386:MidiController.cpp ****     msg.timestamp = lastActivityTime_;
 2397              		.loc 1 386 5 is_stmt 1 view .LVU621
 386:MidiController.cpp ****     msg.timestamp = lastActivityTime_;
 2398              		.loc 1 386 18 is_stmt 0 view .LVU622
 2399 0050 0631     		adds	r1, r1, #6
 2400 0052 4454     		strb	r4, [r0, r1]
 387:MidiController.cpp ****     
 2401              		.loc 1 387 5 is_stmt 1 view .LVU623
 387:MidiController.cpp ****     
 2402              		.loc 1 387 19 is_stmt 0 view .LVU624
 2403 0054 0439     		subs	r1, r1, #4
 2404 0056 D3F8BC45 		ldr	r4, [r3, #1468]
 2405 005a 4450     		str	r4, [r0, r1]
 389:MidiController.cpp ****     queueCount_++;
 2406              		.loc 1 389 5 is_stmt 1 view .LVU625
 389:MidiController.cpp ****     queueCount_++;
 2407              		.loc 1 389 16 is_stmt 0 view .LVU626
 2408 005c 83F8B525 		strb	r2, [r3, #1461]
 2409              	.LVL126:
 390:MidiController.cpp **** }
 2410              		.loc 1 390 5 is_stmt 1 view .LVU627
 390:MidiController.cpp **** }
 2411              		.loc 1 390 16 is_stmt 0 view .LVU628
 2412 0060 83F8B6E5 		strb	lr, [r3, #1462]
 2413              	.LVL127:
 390:MidiController.cpp **** }
 2414              		.loc 1 390 16 view .LVU629
 2415              	.LBE888:
 2416              	.LBE897:
 2417              	.LBE898:
 2418              	.LBE899:
 109:MidiController.cpp **** 
 2419              		.loc 1 109 1 view .LVU630
 2420 0064 30BD     		pop	{r4, r5, pc}
 2421              	.LVL128:
 2422              	.L110:
ARM GAS  C:\Users\Marco\AppData\Local\Temp\ccVZoccs.s 			page 74


 2423              		.cfi_def_cfa_offset 0
 2424              		.cfi_restore 4
 2425              		.cfi_restore 5
 2426              		.cfi_restore 14
 109:MidiController.cpp **** 
 2427              		.loc 1 109 1 view .LVU631
 2428 0066 7047     		bx	lr
 2429              	.L114:
 2430              		.align	2
 2431              	.L113:
 2432 0068 B4220100 		.word	74420
 2433 006c B6220100 		.word	74422
 2434              		.cfi_endproc
 2435              	.LFE2573:
 2437              		.section	.text._ZN14MidiController13SendPitchBendEt,"ax",%progbits
 2438              		.align	1
 2439              		.p2align 2,,3
 2440              		.global	_ZN14MidiController13SendPitchBendEt
 2441              		.syntax unified
 2442              		.thumb
 2443              		.thumb_func
 2444              		.fpu fpv5-d16
 2446              	_ZN14MidiController13SendPitchBendEt:
 2447              	.LVL129:
 2448              	.LFB2574:
 111:MidiController.cpp ****     if (!enabled_) {
 2449              		.loc 1 111 52 is_stmt 1 view -0
 2450              		.cfi_startproc
 2451              		@ args = 0, pretend = 0, frame = 0
 2452              		@ frame_needed = 0, uses_anonymous_args = 0
 112:MidiController.cpp ****         return;
 2453              		.loc 1 112 5 view .LVU633
 112:MidiController.cpp ****         return;
 2454              		.loc 1 112 10 is_stmt 0 view .LVU634
 2455 0000 00F59032 		add	r2, r0, #73728
 112:MidiController.cpp ****         return;
 2456              		.loc 1 112 5 view .LVU635
 2457 0004 92F8AE32 		ldrb	r3, [r2, #686]	@ zero_extendqisi2
 2458 0008 03B9     		cbnz	r3, .L124
 2459              	.L121:
 2460 000a 7047     		bx	lr
 2461              	.L124:
 116:MidiController.cpp ****     uint8_t lsb = value & 0x7F;
 2462              		.loc 1 116 5 is_stmt 1 view .LVU636
 2463              	.LVL130:
 2464              	.LBB906:
 2465              	.LBI906:
 455:MidiController.cpp ****     return (uint8_t)messageType | ((channel - 1) & 0x0F);
 2466              		.loc 1 455 9 view .LVU637
 2467              	.LBB907:
 456:MidiController.cpp **** }
 2468              		.loc 1 456 5 view .LVU638
 456:MidiController.cpp **** }
 2469              		.loc 1 456 5 is_stmt 0 view .LVU639
 2470              	.LBE907:
 2471              	.LBE906:
 117:MidiController.cpp ****     uint8_t msb = (value >> 7) & 0x7F;
ARM GAS  C:\Users\Marco\AppData\Local\Temp\ccVZoccs.s 			page 75


 2472              		.loc 1 117 5 is_stmt 1 view .LVU640
 118:MidiController.cpp ****     QueueMessage(status, lsb, msb);
 2473              		.loc 1 118 5 view .LVU641
 119:MidiController.cpp **** }
 2474              		.loc 1 119 5 view .LVU642
 2475              	.LBB912:
 2476              	.LBI912:
 361:MidiController.cpp ****     if (IsQueueFull()) {
 2477              		.loc 1 361 6 view .LVU643
 2478              	.LBB913:
 362:MidiController.cpp ****         return; // Queue is full, drop message
 2479              		.loc 1 362 5 view .LVU644
 2480              	.LBB914:
 2481              	.LBI914:
 410:MidiController.cpp ****     return queueCount_ >= MESSAGE_QUEUE_SIZE;
 2482              		.loc 1 410 6 view .LVU645
 2483              	.LBB915:
 411:MidiController.cpp **** }
 2484              		.loc 1 411 5 view .LVU646
 411:MidiController.cpp **** }
 2485              		.loc 1 411 12 is_stmt 0 view .LVU647
 2486 000c 92F8B635 		ldrb	r3, [r2, #1462]	@ zero_extendqisi2
 2487              	.LVL131:
 411:MidiController.cpp **** }
 2488              		.loc 1 411 12 view .LVU648
 2489              	.LBE915:
 2490              	.LBE914:
 362:MidiController.cpp ****         return; // Queue is full, drop message
 2491              		.loc 1 362 5 view .LVU649
 2492 0010 3F2B     		cmp	r3, #63
 2493 0012 FAD8     		bhi	.L121
 366:MidiController.cpp ****     msg.status = status;
 2494              		.loc 1 366 5 is_stmt 1 view .LVU650
 2495              	.LBE913:
 2496              	.LBE912:
 111:MidiController.cpp ****     if (!enabled_) {
 2497              		.loc 1 111 52 is_stmt 0 view .LVU651
 2498 0014 10B5     		push	{r4, lr}
 2499              		.cfi_def_cfa_offset 8
 2500              		.cfi_offset 4, -8
 2501              		.cfi_offset 14, -4
 2502              	.LBB923:
 2503              	.LBB916:
 374:MidiController.cpp **** }
 2504              		.loc 1 374 16 view .LVU652
 2505 0016 03F1010E 		add	lr, r3, #1
 2506              	.LBE916:
 2507              	.LBE923:
 2508              	.LBB924:
 2509              	.LBB908:
 456:MidiController.cpp **** }
 2510              		.loc 1 456 45 view .LVU653
 2511 001a 92F8AC32 		ldrb	r3, [r2, #684]	@ zero_extendqisi2
 2512              	.LBE908:
 2513              	.LBE924:
 2514              	.LBB925:
 2515              	.LBB917:
ARM GAS  C:\Users\Marco\AppData\Local\Temp\ccVZoccs.s 			page 76


 366:MidiController.cpp ****     msg.status = status;
 2516              		.loc 1 366 38 view .LVU654
 2517 001e 92F8B5C5 		ldrb	ip, [r2, #1461]	@ zero_extendqisi2
 2518              	.LVL132:
 367:MidiController.cpp ****     msg.data1 = data1;
 2519              		.loc 1 367 5 is_stmt 1 view .LVU655
 2520              	.LBE917:
 2521              	.LBE925:
 2522              	.LBB926:
 2523              	.LBB909:
 456:MidiController.cpp **** }
 2524              		.loc 1 456 45 is_stmt 0 view .LVU656
 2525 0022 013B     		subs	r3, r3, #1
 2526              	.LBE909:
 2527              	.LBE926:
 2528              	.LBB927:
 2529              	.LBB918:
 367:MidiController.cpp ****     msg.data1 = data1;
 2530              		.loc 1 367 16 view .LVU657
 2531 0024 0CEB4C04 		add	r4, ip, ip, lsl #1
 373:MidiController.cpp ****     queueCount_++;
 2532              		.loc 1 373 30 view .LVU658
 2533 0028 0CF1010C 		add	ip, ip, #1
 2534              	.LVL133:
 373:MidiController.cpp ****     queueCount_++;
 2535              		.loc 1 373 30 view .LVU659
 2536              	.LBE918:
 2537              	.LBE927:
 2538              	.LBB928:
 2539              	.LBB910:
 456:MidiController.cpp **** }
 2540              		.loc 1 456 50 view .LVU660
 2541 002c 03F00F03 		and	r3, r3, #15
 2542              	.LBE910:
 2543              	.LBE928:
 2544              	.LBB929:
 2545              	.LBB919:
 367:MidiController.cpp ****     msg.data1 = data1;
 2546              		.loc 1 367 16 view .LVU661
 2547 0030 00EB8400 		add	r0, r0, r4, lsl #2
 2548              	.LVL134:
 367:MidiController.cpp ****     msg.data1 = data1;
 2549              		.loc 1 367 16 view .LVU662
 2550 0034 0C4C     		ldr	r4, .L125
 2551              	.LBE919:
 2552              	.LBE929:
 2553              	.LBB930:
 2554              	.LBB911:
 456:MidiController.cpp **** }
 2555              		.loc 1 456 33 view .LVU663
 2556 0036 63F01F03 		orn	r3, r3, #31
 2557              	.LBE911:
 2558              	.LBE930:
 2559              	.LBB931:
 2560              	.LBB920:
 373:MidiController.cpp ****     queueCount_++;
 2561              		.loc 1 373 35 view .LVU664
ARM GAS  C:\Users\Marco\AppData\Local\Temp\ccVZoccs.s 			page 77


 2562 003a 0CF03F0C 		and	ip, ip, #63
 2563              	.LVL135:
 367:MidiController.cpp ****     msg.data1 = data1;
 2564              		.loc 1 367 16 view .LVU665
 2565 003e 0355     		strb	r3, [r0, r4]
 2566              	.LVL136:
 368:MidiController.cpp ****     msg.data2 = data2;
 2567              		.loc 1 368 5 is_stmt 1 view .LVU666
 2568              	.LBE920:
 2569              	.LBE931:
 117:MidiController.cpp ****     uint8_t msb = (value >> 7) & 0x7F;
 2570              		.loc 1 117 13 is_stmt 0 view .LVU667
 2571 0040 01F07F04 		and	r4, r1, #127
 2572              	.LBB932:
 2573              	.LBB921:
 368:MidiController.cpp ****     msg.data2 = data2;
 2574              		.loc 1 368 15 view .LVU668
 2575 0044 094B     		ldr	r3, .L125+4
 2576              	.LBE921:
 2577              	.LBE932:
 118:MidiController.cpp ****     QueueMessage(status, lsb, msb);
 2578              		.loc 1 118 13 view .LVU669
 2579 0046 C1F3C611 		ubfx	r1, r1, #7, #7
 2580              	.LVL137:
 2581              	.LBB933:
 2582              	.LBB922:
 368:MidiController.cpp ****     msg.data2 = data2;
 2583              		.loc 1 368 15 view .LVU670
 2584 004a C454     		strb	r4, [r0, r3]
 369:MidiController.cpp ****     msg.hasData2 = true;
 2585              		.loc 1 369 5 is_stmt 1 view .LVU671
 369:MidiController.cpp ****     msg.hasData2 = true;
 2586              		.loc 1 369 15 is_stmt 0 view .LVU672
 2587 004c 0133     		adds	r3, r3, #1
 2588 004e C154     		strb	r1, [r0, r3]
 370:MidiController.cpp ****     msg.timestamp = lastActivityTime_; // TODO: Get actual timestamp
 2589              		.loc 1 370 5 is_stmt 1 view .LVU673
 370:MidiController.cpp ****     msg.timestamp = lastActivityTime_; // TODO: Get actual timestamp
 2590              		.loc 1 370 18 is_stmt 0 view .LVU674
 2591 0050 0633     		adds	r3, r3, #6
 2592 0052 0121     		movs	r1, #1
 2593 0054 C154     		strb	r1, [r0, r3]
 371:MidiController.cpp ****     
 2594              		.loc 1 371 5 is_stmt 1 view .LVU675
 371:MidiController.cpp ****     
 2595              		.loc 1 371 19 is_stmt 0 view .LVU676
 2596 0056 043B     		subs	r3, r3, #4
 2597 0058 D2F8BC15 		ldr	r1, [r2, #1468]
 2598 005c C150     		str	r1, [r0, r3]
 373:MidiController.cpp ****     queueCount_++;
 2599              		.loc 1 373 5 is_stmt 1 view .LVU677
 373:MidiController.cpp ****     queueCount_++;
 2600              		.loc 1 373 16 is_stmt 0 view .LVU678
 2601 005e 82F8B5C5 		strb	ip, [r2, #1461]
 374:MidiController.cpp **** }
 2602              		.loc 1 374 5 is_stmt 1 view .LVU679
 374:MidiController.cpp **** }
ARM GAS  C:\Users\Marco\AppData\Local\Temp\ccVZoccs.s 			page 78


 2603              		.loc 1 374 16 is_stmt 0 view .LVU680
 2604 0062 82F8B6E5 		strb	lr, [r2, #1462]
 2605              	.LVL138:
 374:MidiController.cpp **** }
 2606              		.loc 1 374 16 view .LVU681
 2607              	.LBE922:
 2608              	.LBE933:
 120:MidiController.cpp **** 
 2609              		.loc 1 120 1 view .LVU682
 2610 0066 10BD     		pop	{r4, pc}
 2611              	.L126:
 2612              		.align	2
 2613              	.L125:
 2614 0068 B4220100 		.word	74420
 2615 006c B5220100 		.word	74421
 2616              		.cfi_endproc
 2617              	.LFE2574:
 2619              		.section	.text._ZN14MidiController19SendChannelPressureEh,"ax",%progbits
 2620              		.align	1
 2621              		.p2align 2,,3
 2622              		.global	_ZN14MidiController19SendChannelPressureEh
 2623              		.syntax unified
 2624              		.thumb
 2625              		.thumb_func
 2626              		.fpu fpv5-d16
 2628              	_ZN14MidiController19SendChannelPressureEh:
 2629              	.LVL139:
 2630              	.LFB2575:
 122:MidiController.cpp ****     if (!enabled_ || pressure > 127) {
 2631              		.loc 1 122 60 is_stmt 1 view -0
 2632              		.cfi_startproc
 2633              		@ args = 0, pretend = 0, frame = 0
 2634              		@ frame_needed = 0, uses_anonymous_args = 0
 123:MidiController.cpp ****         return;
 2635              		.loc 1 123 5 view .LVU684
 123:MidiController.cpp ****         return;
 2636              		.loc 1 123 10 is_stmt 0 view .LVU685
 2637 0000 00F59033 		add	r3, r0, #73728
 123:MidiController.cpp ****         return;
 2638              		.loc 1 123 5 view .LVU686
 2639 0004 93F8AE22 		ldrb	r2, [r3, #686]	@ zero_extendqisi2
 2640 0008 6AB3     		cbz	r2, .L133
 123:MidiController.cpp ****         return;
 2641              		.loc 1 123 19 discriminator 1 view .LVU687
 2642 000a 0A06     		lsls	r2, r1, #24
 2643 000c 2BD4     		bmi	.L133
 127:MidiController.cpp ****     QueueMessage(status, pressure);
 2644              		.loc 1 127 5 is_stmt 1 view .LVU688
 2645              	.LVL140:
 2646              	.LBB940:
 2647              	.LBI940:
 455:MidiController.cpp ****     return (uint8_t)messageType | ((channel - 1) & 0x0F);
 2648              		.loc 1 455 9 view .LVU689
 2649              	.LBB941:
 456:MidiController.cpp **** }
 2650              		.loc 1 456 5 view .LVU690
 456:MidiController.cpp **** }
ARM GAS  C:\Users\Marco\AppData\Local\Temp\ccVZoccs.s 			page 79


 2651              		.loc 1 456 5 is_stmt 0 view .LVU691
 2652              	.LBE941:
 2653              	.LBE940:
 128:MidiController.cpp **** }
 2654              		.loc 1 128 5 is_stmt 1 view .LVU692
 2655              	.LBB946:
 2656              	.LBI946:
 377:MidiController.cpp ****     if (IsQueueFull()) {
 2657              		.loc 1 377 6 view .LVU693
 2658              	.LBB947:
 378:MidiController.cpp ****         return;
 2659              		.loc 1 378 5 view .LVU694
 2660              	.LBB948:
 2661              	.LBI948:
 410:MidiController.cpp ****     return queueCount_ >= MESSAGE_QUEUE_SIZE;
 2662              		.loc 1 410 6 view .LVU695
 2663              	.LBB949:
 411:MidiController.cpp **** }
 2664              		.loc 1 411 5 view .LVU696
 411:MidiController.cpp **** }
 2665              		.loc 1 411 12 is_stmt 0 view .LVU697
 2666 000e 93F8B6C5 		ldrb	ip, [r3, #1462]	@ zero_extendqisi2
 2667              	.LVL141:
 411:MidiController.cpp **** }
 2668              		.loc 1 411 12 view .LVU698
 2669              	.LBE949:
 2670              	.LBE948:
 378:MidiController.cpp ****         return;
 2671              		.loc 1 378 5 view .LVU699
 2672 0012 BCF13F0F 		cmp	ip, #63
 2673 0016 26D8     		bhi	.L133
 382:MidiController.cpp ****     msg.status = status;
 2674              		.loc 1 382 5 is_stmt 1 view .LVU700
 2675              	.LBE947:
 2676              	.LBE946:
 122:MidiController.cpp ****     if (!enabled_ || pressure > 127) {
 2677              		.loc 1 122 60 is_stmt 0 view .LVU701
 2678 0018 30B5     		push	{r4, r5, lr}
 2679              		.cfi_def_cfa_offset 12
 2680              		.cfi_offset 4, -12
 2681              		.cfi_offset 5, -8
 2682              		.cfi_offset 14, -4
 2683              	.LBB955:
 2684              	.LBB950:
 390:MidiController.cpp **** }
 2685              		.loc 1 390 16 view .LVU702
 2686 001a 0CF1010E 		add	lr, ip, #1
 2687              	.LBE950:
 2688              	.LBE955:
 2689              	.LBB956:
 2690              	.LBB942:
 456:MidiController.cpp **** }
 2691              		.loc 1 456 45 view .LVU703
 2692 001e 93F8ACC2 		ldrb	ip, [r3, #684]	@ zero_extendqisi2
 2693              	.LBE942:
 2694              	.LBE956:
 2695              	.LBB957:
ARM GAS  C:\Users\Marco\AppData\Local\Temp\ccVZoccs.s 			page 80


 2696              	.LBB951:
 382:MidiController.cpp ****     msg.status = status;
 2697              		.loc 1 382 38 view .LVU704
 2698 0022 93F8B525 		ldrb	r2, [r3, #1461]	@ zero_extendqisi2
 2699              	.LVL142:
 383:MidiController.cpp ****     msg.data1 = data1;
 2700              		.loc 1 383 5 is_stmt 1 view .LVU705
 2701              	.LBE951:
 2702              	.LBE957:
 2703              	.LBB958:
 2704              	.LBB943:
 456:MidiController.cpp **** }
 2705              		.loc 1 456 45 is_stmt 0 view .LVU706
 2706 0026 0CF1FF3C 		add	ip, ip, #-1
 2707              	.LBE943:
 2708              	.LBE958:
 2709              	.LBB959:
 2710              	.LBB952:
 383:MidiController.cpp ****     msg.data1 = data1;
 2711              		.loc 1 383 16 view .LVU707
 2712 002a 0F4D     		ldr	r5, .L136
 2713 002c 02EB4204 		add	r4, r2, r2, lsl #1
 389:MidiController.cpp ****     queueCount_++;
 2714              		.loc 1 389 30 view .LVU708
 2715 0030 0132     		adds	r2, r2, #1
 2716              	.LVL143:
 389:MidiController.cpp ****     queueCount_++;
 2717              		.loc 1 389 30 view .LVU709
 2718              	.LBE952:
 2719              	.LBE959:
 2720              	.LBB960:
 2721              	.LBB944:
 456:MidiController.cpp **** }
 2722              		.loc 1 456 50 view .LVU710
 2723 0032 0CF00F0C 		and	ip, ip, #15
 2724              	.LBE944:
 2725              	.LBE960:
 2726              	.LBB961:
 2727              	.LBB953:
 383:MidiController.cpp ****     msg.data1 = data1;
 2728              		.loc 1 383 16 view .LVU711
 2729 0036 00EB8400 		add	r0, r0, r4, lsl #2
 2730              	.LVL144:
 385:MidiController.cpp ****     msg.hasData2 = false;
 2731              		.loc 1 385 15 view .LVU712
 2732 003a 0024     		movs	r4, #0
 2733              	.LBE953:
 2734              	.LBE961:
 2735              	.LBB962:
 2736              	.LBB945:
 456:MidiController.cpp **** }
 2737              		.loc 1 456 33 view .LVU713
 2738 003c 6CF02F0C 		orn	ip, ip, #47
 2739              	.LBE945:
 2740              	.LBE962:
 2741              	.LBB963:
 2742              	.LBB954:
ARM GAS  C:\Users\Marco\AppData\Local\Temp\ccVZoccs.s 			page 81


 389:MidiController.cpp ****     queueCount_++;
 2743              		.loc 1 389 35 view .LVU714
 2744 0040 02F03F02 		and	r2, r2, #63
 2745              	.LVL145:
 383:MidiController.cpp ****     msg.data1 = data1;
 2746              		.loc 1 383 16 view .LVU715
 2747 0044 00F805C0 		strb	ip, [r0, r5]
 2748              	.LVL146:
 384:MidiController.cpp ****     msg.data2 = 0;
 2749              		.loc 1 384 5 is_stmt 1 view .LVU716
 384:MidiController.cpp ****     msg.data2 = 0;
 2750              		.loc 1 384 15 is_stmt 0 view .LVU717
 2751 0048 0135     		adds	r5, r5, #1
 2752 004a 4155     		strb	r1, [r0, r5]
 385:MidiController.cpp ****     msg.hasData2 = false;
 2753              		.loc 1 385 5 is_stmt 1 view .LVU718
 385:MidiController.cpp ****     msg.hasData2 = false;
 2754              		.loc 1 385 15 is_stmt 0 view .LVU719
 2755 004c 0749     		ldr	r1, .L136+4
 2756              	.LVL147:
 385:MidiController.cpp ****     msg.hasData2 = false;
 2757              		.loc 1 385 15 view .LVU720
 2758 004e 4454     		strb	r4, [r0, r1]
 386:MidiController.cpp ****     msg.timestamp = lastActivityTime_;
 2759              		.loc 1 386 5 is_stmt 1 view .LVU721
 386:MidiController.cpp ****     msg.timestamp = lastActivityTime_;
 2760              		.loc 1 386 18 is_stmt 0 view .LVU722
 2761 0050 0631     		adds	r1, r1, #6
 2762 0052 4454     		strb	r4, [r0, r1]
 387:MidiController.cpp ****     
 2763              		.loc 1 387 5 is_stmt 1 view .LVU723
 387:MidiController.cpp ****     
 2764              		.loc 1 387 19 is_stmt 0 view .LVU724
 2765 0054 0439     		subs	r1, r1, #4
 2766 0056 D3F8BC45 		ldr	r4, [r3, #1468]
 2767 005a 4450     		str	r4, [r0, r1]
 389:MidiController.cpp ****     queueCount_++;
 2768              		.loc 1 389 5 is_stmt 1 view .LVU725
 389:MidiController.cpp ****     queueCount_++;
 2769              		.loc 1 389 16 is_stmt 0 view .LVU726
 2770 005c 83F8B525 		strb	r2, [r3, #1461]
 2771              	.LVL148:
 390:MidiController.cpp **** }
 2772              		.loc 1 390 5 is_stmt 1 view .LVU727
 390:MidiController.cpp **** }
 2773              		.loc 1 390 16 is_stmt 0 view .LVU728
 2774 0060 83F8B6E5 		strb	lr, [r3, #1462]
 2775              	.LVL149:
 390:MidiController.cpp **** }
 2776              		.loc 1 390 16 view .LVU729
 2777              	.LBE954:
 2778              	.LBE963:
 129:MidiController.cpp **** 
 2779              		.loc 1 129 1 view .LVU730
 2780 0064 30BD     		pop	{r4, r5, pc}
 2781              	.LVL150:
 2782              	.L133:
ARM GAS  C:\Users\Marco\AppData\Local\Temp\ccVZoccs.s 			page 82


 2783              		.cfi_def_cfa_offset 0
 2784              		.cfi_restore 4
 2785              		.cfi_restore 5
 2786              		.cfi_restore 14
 129:MidiController.cpp **** 
 2787              		.loc 1 129 1 view .LVU731
 2788 0066 7047     		bx	lr
 2789              	.L137:
 2790              		.align	2
 2791              	.L136:
 2792 0068 B4220100 		.word	74420
 2793 006c B6220100 		.word	74422
 2794              		.cfi_endproc
 2795              	.LFE2575:
 2797              		.section	.text._ZN14MidiController16SendPolyPressureEhh,"ax",%progbits
 2798              		.align	1
 2799              		.p2align 2,,3
 2800              		.global	_ZN14MidiController16SendPolyPressureEhh
 2801              		.syntax unified
 2802              		.thumb
 2803              		.thumb_func
 2804              		.fpu fpv5-d16
 2806              	_ZN14MidiController16SendPolyPressureEhh:
 2807              	.LVL151:
 2808              	.LFB2576:
 131:MidiController.cpp ****     if (!enabled_ || !IsValidNote(note) || pressure > 127) {
 2809              		.loc 1 131 71 is_stmt 1 view -0
 2810              		.cfi_startproc
 2811              		@ args = 0, pretend = 0, frame = 0
 2812              		@ frame_needed = 0, uses_anonymous_args = 0
 132:MidiController.cpp ****         return;
 2813              		.loc 1 132 5 view .LVU733
 132:MidiController.cpp ****         return;
 2814              		.loc 1 132 10 is_stmt 0 view .LVU734
 2815 0000 00F5903C 		add	ip, r0, #73728
 132:MidiController.cpp ****         return;
 2816              		.loc 1 132 41 view .LVU735
 2817 0004 9CF8AE32 		ldrb	r3, [ip, #686]	@ zero_extendqisi2
 2818 0008 6BB3     		cbz	r3, .L144
 2819              	.LVL152:
 2820              	.LBB972:
 2821              	.LBI972:
 463:MidiController.cpp ****     return note <= 127;
 2822              		.loc 1 463 6 is_stmt 1 view .LVU736
 2823              	.LBB973:
 464:MidiController.cpp **** }
 2824              		.loc 1 464 5 view .LVU737
 464:MidiController.cpp **** }
 2825              		.loc 1 464 5 is_stmt 0 view .LVU738
 2826              	.LBE973:
 2827              	.LBE972:
 132:MidiController.cpp ****         return;
 2828              		.loc 1 132 19 view .LVU739
 2829 000a 0B06     		lsls	r3, r1, #24
 2830 000c 2BD4     		bmi	.L144
 132:MidiController.cpp ****         return;
 2831              		.loc 1 132 41 discriminator 4 view .LVU740
ARM GAS  C:\Users\Marco\AppData\Local\Temp\ccVZoccs.s 			page 83


 2832 000e 1306     		lsls	r3, r2, #24
 2833 0010 29D4     		bmi	.L144
 136:MidiController.cpp ****     QueueMessage(status, note, pressure);
 2834              		.loc 1 136 5 is_stmt 1 view .LVU741
 2835              	.LVL153:
 2836              	.LBB974:
 2837              	.LBI974:
 455:MidiController.cpp ****     return (uint8_t)messageType | ((channel - 1) & 0x0F);
 2838              		.loc 1 455 9 view .LVU742
 2839              	.LBB975:
 456:MidiController.cpp **** }
 2840              		.loc 1 456 5 view .LVU743
 456:MidiController.cpp **** }
 2841              		.loc 1 456 5 is_stmt 0 view .LVU744
 2842              	.LBE975:
 2843              	.LBE974:
 137:MidiController.cpp **** }
 2844              		.loc 1 137 5 is_stmt 1 view .LVU745
 2845              	.LBB980:
 2846              	.LBI980:
 361:MidiController.cpp ****     if (IsQueueFull()) {
 2847              		.loc 1 361 6 view .LVU746
 2848              	.LBB981:
 362:MidiController.cpp ****         return; // Queue is full, drop message
 2849              		.loc 1 362 5 view .LVU747
 2850              	.LBB982:
 2851              	.LBI982:
 410:MidiController.cpp ****     return queueCount_ >= MESSAGE_QUEUE_SIZE;
 2852              		.loc 1 410 6 view .LVU748
 2853              	.LBB983:
 411:MidiController.cpp **** }
 2854              		.loc 1 411 5 view .LVU749
 411:MidiController.cpp **** }
 2855              		.loc 1 411 12 is_stmt 0 view .LVU750
 2856 0012 9CF8B635 		ldrb	r3, [ip, #1462]	@ zero_extendqisi2
 2857              	.LVL154:
 411:MidiController.cpp **** }
 2858              		.loc 1 411 12 view .LVU751
 2859              	.LBE983:
 2860              	.LBE982:
 362:MidiController.cpp ****         return; // Queue is full, drop message
 2861              		.loc 1 362 5 view .LVU752
 2862 0016 3F2B     		cmp	r3, #63
 2863 0018 25D8     		bhi	.L144
 366:MidiController.cpp ****     msg.status = status;
 2864              		.loc 1 366 5 is_stmt 1 view .LVU753
 2865              	.LBE981:
 2866              	.LBE980:
 131:MidiController.cpp ****     if (!enabled_ || !IsValidNote(note) || pressure > 127) {
 2867              		.loc 1 131 71 is_stmt 0 view .LVU754
 2868 001a F0B5     		push	{r4, r5, r6, r7, lr}
 2869              		.cfi_def_cfa_offset 20
 2870              		.cfi_offset 4, -20
 2871              		.cfi_offset 5, -16
 2872              		.cfi_offset 6, -12
 2873              		.cfi_offset 7, -8
 2874              		.cfi_offset 14, -4
ARM GAS  C:\Users\Marco\AppData\Local\Temp\ccVZoccs.s 			page 84


 2875              	.LBB988:
 2876              	.LBB976:
 456:MidiController.cpp **** }
 2877              		.loc 1 456 45 view .LVU755
 2878 001c 9CF8ACE2 		ldrb	lr, [ip, #684]	@ zero_extendqisi2
 2879              	.LBE976:
 2880              	.LBE988:
 2881              	.LBB989:
 2882              	.LBB984:
 374:MidiController.cpp **** }
 2883              		.loc 1 374 16 view .LVU756
 2884 0020 5C1C     		adds	r4, r3, #1
 366:MidiController.cpp ****     msg.status = status;
 2885              		.loc 1 366 38 view .LVU757
 2886 0022 9CF8B535 		ldrb	r3, [ip, #1461]	@ zero_extendqisi2
 2887              	.LVL155:
 367:MidiController.cpp ****     msg.data1 = data1;
 2888              		.loc 1 367 5 is_stmt 1 view .LVU758
 2889              	.LBE984:
 2890              	.LBE989:
 2891              	.LBB990:
 2892              	.LBB977:
 456:MidiController.cpp **** }
 2893              		.loc 1 456 45 is_stmt 0 view .LVU759
 2894 0026 0EF1FF3E 		add	lr, lr, #-1
 2895              	.LBE977:
 2896              	.LBE990:
 2897              	.LBB991:
 2898              	.LBB985:
 367:MidiController.cpp ****     msg.data1 = data1;
 2899              		.loc 1 367 16 view .LVU760
 2900 002a 0F4E     		ldr	r6, .L147
 2901 002c 03EB4307 		add	r7, r3, r3, lsl #1
 368:MidiController.cpp ****     msg.data2 = data2;
 2902              		.loc 1 368 15 view .LVU761
 2903 0030 0E4D     		ldr	r5, .L147+4
 2904              	.LBE985:
 2905              	.LBE991:
 2906              	.LBB992:
 2907              	.LBB978:
 456:MidiController.cpp **** }
 2908              		.loc 1 456 50 view .LVU762
 2909 0032 0EF00F0E 		and	lr, lr, #15
 2910              	.LBE978:
 2911              	.LBE992:
 2912              	.LBB993:
 2913              	.LBB986:
 373:MidiController.cpp ****     queueCount_++;
 2914              		.loc 1 373 30 view .LVU763
 2915 0036 0133     		adds	r3, r3, #1
 2916              	.LVL156:
 367:MidiController.cpp ****     msg.data1 = data1;
 2917              		.loc 1 367 16 view .LVU764
 2918 0038 00EB8700 		add	r0, r0, r7, lsl #2
 2919              	.LVL157:
 367:MidiController.cpp ****     msg.data1 = data1;
 2920              		.loc 1 367 16 view .LVU765
ARM GAS  C:\Users\Marco\AppData\Local\Temp\ccVZoccs.s 			page 85


 2921              	.LBE986:
 2922              	.LBE993:
 2923              	.LBB994:
 2924              	.LBB979:
 456:MidiController.cpp **** }
 2925              		.loc 1 456 33 view .LVU766
 2926 003c 6EF05F0E 		orn	lr, lr, #95
 2927              	.LBE979:
 2928              	.LBE994:
 2929              	.LBB995:
 2930              	.LBB987:
 373:MidiController.cpp ****     queueCount_++;
 2931              		.loc 1 373 35 view .LVU767
 2932 0040 03F03F03 		and	r3, r3, #63
 2933              	.LVL158:
 367:MidiController.cpp ****     msg.data1 = data1;
 2934              		.loc 1 367 16 view .LVU768
 2935 0044 00F806E0 		strb	lr, [r0, r6]
 2936              	.LVL159:
 368:MidiController.cpp ****     msg.data2 = data2;
 2937              		.loc 1 368 5 is_stmt 1 view .LVU769
 368:MidiController.cpp ****     msg.data2 = data2;
 2938              		.loc 1 368 15 is_stmt 0 view .LVU770
 2939 0048 4155     		strb	r1, [r0, r5]
 369:MidiController.cpp ****     msg.hasData2 = true;
 2940              		.loc 1 369 5 is_stmt 1 view .LVU771
 369:MidiController.cpp ****     msg.hasData2 = true;
 2941              		.loc 1 369 15 is_stmt 0 view .LVU772
 2942 004a 0949     		ldr	r1, .L147+8
 2943              	.LVL160:
 369:MidiController.cpp ****     msg.hasData2 = true;
 2944              		.loc 1 369 15 view .LVU773
 2945 004c 4254     		strb	r2, [r0, r1]
 370:MidiController.cpp ****     msg.timestamp = lastActivityTime_; // TODO: Get actual timestamp
 2946              		.loc 1 370 5 is_stmt 1 view .LVU774
 370:MidiController.cpp ****     msg.timestamp = lastActivityTime_; // TODO: Get actual timestamp
 2947              		.loc 1 370 18 is_stmt 0 view .LVU775
 2948 004e 0121     		movs	r1, #1
 2949 0050 084A     		ldr	r2, .L147+12
 2950              	.LVL161:
 370:MidiController.cpp ****     msg.timestamp = lastActivityTime_; // TODO: Get actual timestamp
 2951              		.loc 1 370 18 view .LVU776
 2952 0052 8154     		strb	r1, [r0, r2]
 371:MidiController.cpp ****     
 2953              		.loc 1 371 5 is_stmt 1 view .LVU777
 371:MidiController.cpp ****     
 2954              		.loc 1 371 19 is_stmt 0 view .LVU778
 2955 0054 043A     		subs	r2, r2, #4
 2956 0056 DCF8BC15 		ldr	r1, [ip, #1468]
 2957 005a 8150     		str	r1, [r0, r2]
 373:MidiController.cpp ****     queueCount_++;
 2958              		.loc 1 373 5 is_stmt 1 view .LVU779
 373:MidiController.cpp ****     queueCount_++;
 2959              		.loc 1 373 16 is_stmt 0 view .LVU780
 2960 005c 8CF8B535 		strb	r3, [ip, #1461]
 2961              	.LVL162:
 374:MidiController.cpp **** }
ARM GAS  C:\Users\Marco\AppData\Local\Temp\ccVZoccs.s 			page 86


 2962              		.loc 1 374 5 is_stmt 1 view .LVU781
 374:MidiController.cpp **** }
 2963              		.loc 1 374 16 is_stmt 0 view .LVU782
 2964 0060 8CF8B645 		strb	r4, [ip, #1462]
 2965              	.LVL163:
 374:MidiController.cpp **** }
 2966              		.loc 1 374 16 view .LVU783
 2967              	.LBE987:
 2968              	.LBE995:
 138:MidiController.cpp **** 
 2969              		.loc 1 138 1 view .LVU784
 2970 0064 F0BD     		pop	{r4, r5, r6, r7, pc}
 2971              	.LVL164:
 2972              	.L144:
 2973              		.cfi_def_cfa_offset 0
 2974              		.cfi_restore 4
 2975              		.cfi_restore 5
 2976              		.cfi_restore 6
 2977              		.cfi_restore 7
 2978              		.cfi_restore 14
 138:MidiController.cpp **** 
 2979              		.loc 1 138 1 view .LVU785
 2980 0066 7047     		bx	lr
 2981              	.L148:
 2982              		.align	2
 2983              	.L147:
 2984 0068 B4220100 		.word	74420
 2985 006c B5220100 		.word	74421
 2986 0070 B6220100 		.word	74422
 2987 0074 BC220100 		.word	74428
 2988              		.cfi_endproc
 2989              	.LFE2576:
 2991              		.section	.text._ZN14MidiController10SetChannelEh,"ax",%progbits
 2992              		.align	1
 2993              		.p2align 2,,3
 2994              		.global	_ZN14MidiController10SetChannelEh
 2995              		.syntax unified
 2996              		.thumb
 2997              		.thumb_func
 2998              		.fpu fpv5-d16
 3000              	_ZN14MidiController10SetChannelEh:
 3001              	.LVL165:
 3002              	.LFB2577:
 141:MidiController.cpp ****     if (IsValidChannel(channel)) {
 3003              		.loc 1 141 50 is_stmt 1 view -0
 3004              		.cfi_startproc
 3005              		@ args = 0, pretend = 0, frame = 0
 3006              		@ frame_needed = 0, uses_anonymous_args = 0
 3007              		@ link register save eliminated.
 142:MidiController.cpp ****         midiChannel_ = channel;
 3008              		.loc 1 142 5 view .LVU787
 3009              	.LBB996:
 3010              	.LBI996:
 459:MidiController.cpp ****     return channel >= 1 && channel <= 16;
 3011              		.loc 1 459 6 view .LVU788
 3012              	.LBB997:
 460:MidiController.cpp **** }
ARM GAS  C:\Users\Marco\AppData\Local\Temp\ccVZoccs.s 			page 87


 3013              		.loc 1 460 5 view .LVU789
 460:MidiController.cpp **** }
 3014              		.loc 1 460 5 is_stmt 0 view .LVU790
 3015              	.LBE997:
 3016              	.LBE996:
 142:MidiController.cpp ****         midiChannel_ = channel;
 3017              		.loc 1 142 5 view .LVU791
 3018 0000 4B1E     		subs	r3, r1, #1
 3019 0002 0F2B     		cmp	r3, #15
 3020 0004 03D8     		bhi	.L149
 143:MidiController.cpp ****     }
 3021              		.loc 1 143 9 is_stmt 1 view .LVU792
 143:MidiController.cpp ****     }
 3022              		.loc 1 143 22 is_stmt 0 view .LVU793
 3023 0006 00F59030 		add	r0, r0, #73728
 3024              	.LVL166:
 143:MidiController.cpp ****     }
 3025              		.loc 1 143 22 view .LVU794
 3026 000a 80F8AC12 		strb	r1, [r0, #684]
 3027              	.LVL167:
 3028              	.L149:
 145:MidiController.cpp **** 
 3029              		.loc 1 145 1 view .LVU795
 3030 000e 7047     		bx	lr
 3031              		.cfi_endproc
 3032              	.LFE2577:
 3034              		.section	.text._ZN14MidiController13SetOutputModeE14MidiOutputMode,"ax",%progbits
 3035              		.align	1
 3036              		.p2align 2,,3
 3037              		.global	_ZN14MidiController13SetOutputModeE14MidiOutputMode
 3038              		.syntax unified
 3039              		.thumb
 3040              		.thumb_func
 3041              		.fpu fpv5-d16
 3043              	_ZN14MidiController13SetOutputModeE14MidiOutputMode:
 3044              	.LVL168:
 3045              	.LFB2578:
 147:MidiController.cpp ****     outputMode_ = mode;
 3046              		.loc 1 147 57 is_stmt 1 view -0
 3047              		.cfi_startproc
 3048              		@ args = 0, pretend = 0, frame = 0
 3049              		@ frame_needed = 0, uses_anonymous_args = 0
 3050              		@ link register save eliminated.
 148:MidiController.cpp **** }
 3051              		.loc 1 148 5 view .LVU797
 148:MidiController.cpp **** }
 3052              		.loc 1 148 17 is_stmt 0 view .LVU798
 3053 0000 00F59030 		add	r0, r0, #73728
 3054              	.LVL169:
 148:MidiController.cpp **** }
 3055              		.loc 1 148 17 view .LVU799
 3056 0004 80F8AD12 		strb	r1, [r0, #685]
 149:MidiController.cpp **** 
 3057              		.loc 1 149 1 view .LVU800
 3058 0008 7047     		bx	lr
 3059              		.cfi_endproc
 3060              	.LFE2578:
ARM GAS  C:\Users\Marco\AppData\Local\Temp\ccVZoccs.s 			page 88


 3062 000a 00BF     		.section	.text._ZN14MidiController10SetEnabledEb,"ax",%progbits
 3063              		.align	1
 3064              		.p2align 2,,3
 3065              		.global	_ZN14MidiController10SetEnabledEb
 3066              		.syntax unified
 3067              		.thumb
 3068              		.thumb_func
 3069              		.fpu fpv5-d16
 3071              	_ZN14MidiController10SetEnabledEb:
 3072              	.LVL170:
 3073              	.LFB2579:
 151:MidiController.cpp ****     enabled_ = enabled;
 3074              		.loc 1 151 47 is_stmt 1 view -0
 3075              		.cfi_startproc
 3076              		@ args = 0, pretend = 0, frame = 0
 3077              		@ frame_needed = 0, uses_anonymous_args = 0
 3078              		@ link register save eliminated.
 152:MidiController.cpp **** }
 3079              		.loc 1 152 5 view .LVU802
 152:MidiController.cpp **** }
 3080              		.loc 1 152 14 is_stmt 0 view .LVU803
 3081 0000 00F59030 		add	r0, r0, #73728
 3082              	.LVL171:
 152:MidiController.cpp **** }
 3083              		.loc 1 152 14 view .LVU804
 3084 0004 80F8AE12 		strb	r1, [r0, #686]
 153:MidiController.cpp **** 
 3085              		.loc 1 153 1 view .LVU805
 3086 0008 7047     		bx	lr
 3087              		.cfi_endproc
 3088              	.LFE2579:
 3090 000a 00BF     		.section	.text._ZN14MidiController18HasPendingMessagesEv,"ax",%progbits
 3091              		.align	1
 3092              		.p2align 2,,3
 3093              		.global	_ZN14MidiController18HasPendingMessagesEv
 3094              		.syntax unified
 3095              		.thumb
 3096              		.thumb_func
 3097              		.fpu fpv5-d16
 3099              	_ZN14MidiController18HasPendingMessagesEv:
 3100              	.LVL172:
 3101              	.LFB2580:
 156:MidiController.cpp ****     return queueCount_ > 0;
 3102              		.loc 1 156 43 is_stmt 1 view -0
 3103              		.cfi_startproc
 3104              		@ args = 0, pretend = 0, frame = 0
 3105              		@ frame_needed = 0, uses_anonymous_args = 0
 3106              		@ link register save eliminated.
 157:MidiController.cpp **** }
 3107              		.loc 1 157 5 view .LVU807
 157:MidiController.cpp **** }
 3108              		.loc 1 157 12 is_stmt 0 view .LVU808
 3109 0000 00F59030 		add	r0, r0, #73728
 3110              	.LVL173:
 157:MidiController.cpp **** }
 3111              		.loc 1 157 26 view .LVU809
