ARM GAS  C:\Users\Marco\AppData\Local\Temp\ccVZoccs.s 			page 1


   1              		.cpu cortex-m7
   2              		.eabi_attribute 28, 1
   3              		.eabi_attribute 20, 1
   4              		.eabi_attribute 21, 1
   5              		.eabi_attribute 23, 3
   6              		.eabi_attribute 24, 1
   7              		.eabi_attribute 25, 1
   8              		.eabi_attribute 26, 1
   9              		.eabi_attribute 30, 2
  10              		.eabi_attribute 34, 1
  11              		.eabi_attribute 18, 4
  12              		.file	"MidiController.cpp"
  13              		.text
  14              	.Ltext0:
  15              		.cfi_sections	.debug_frame
  16              		.section	.text._ZN14MidiController15SendMidiMessageEhh.part.0,"ax",%progbits
  17              		.align	1
  18              		.p2align 2,,3
  19              		.arch armv7e-m
  20              		.syntax unified
  21              		.thumb
  22              		.thumb_func
  23              		.fpu fpv5-d16
  25              	_ZN14MidiController15SendMidiMessageEhh.part.0:
  26              	.LVL0:
  27              	.LFB2681:
  28              		.file 1 "MidiController.cpp"
   1:MidiController.cpp **** #include "MidiController.h"
   2:MidiController.cpp **** 
   3:MidiController.cpp **** // Constructor
   4:MidiController.cpp **** MidiController::MidiController() 
   5:MidiController.cpp ****     : hardware_(nullptr), config_(nullptr), midiChannel_(1), 
   6:MidiController.cpp ****       outputMode_(MIDI_USB_ONLY), enabled_(true), usbConnected_(false), 
   7:MidiController.cpp ****       uartConnected_(false), queueHead_(0), queueTail_(0), queueCount_(0),
   8:MidiController.cpp ****       messagesSent_(0), lastActivityTime_(0), runningStatus_(0), 
   9:MidiController.cpp ****       activeNoteCount_(0), lastClockTime_(0), clockDivision_(24), 
  10:MidiController.cpp ****       clockRunning_(false) {
  11:MidiController.cpp ****     
  12:MidiController.cpp ****     // Initialize active notes array
  13:MidiController.cpp ****     for (int i = 0; i < 128; i++) {
  14:MidiController.cpp ****         activeNotes_[i] = false;
  15:MidiController.cpp ****     }
  16:MidiController.cpp **** }
  17:MidiController.cpp **** 
  18:MidiController.cpp **** // Destructor
  19:MidiController.cpp **** MidiController::~MidiController() {
  20:MidiController.cpp ****     // Destructor body - will be implemented later
  21:MidiController.cpp **** }
  22:MidiController.cpp **** 
  23:MidiController.cpp **** // Initialization
  24:MidiController.cpp **** void MidiController::Init(daisy::DaisySeed* hw, ConfigManager* config) {
  25:MidiController.cpp ****     hardware_ = hw;
  26:MidiController.cpp ****     config_ = config;
  27:MidiController.cpp ****     
  28:MidiController.cpp ****     // Get MIDI channel from config
  29:MidiController.cpp ****     if (config_) {
  30:MidiController.cpp ****         midiChannel_ = config_->GetMidiChannel();
ARM GAS  C:\Users\Marco\AppData\Local\Temp\ccVZoccs.s 			page 2


  31:MidiController.cpp ****     }
  32:MidiController.cpp ****     
  33:MidiController.cpp ****     // Initialize MIDI interfaces based on output mode
  34:MidiController.cpp ****     InitializeUSB();
  35:MidiController.cpp ****     InitializeUART();
  36:MidiController.cpp ****     
  37:MidiController.cpp ****     // Reset message statistics
  38:MidiController.cpp ****     messagesSent_ = 0;
  39:MidiController.cpp ****     lastActivityTime_ = daisy::System::GetNow();
  40:MidiController.cpp **** }
  41:MidiController.cpp **** 
  42:MidiController.cpp **** // Main update function
  43:MidiController.cpp **** void MidiController::Update() {
  44:MidiController.cpp ****     // Update connection status
  45:MidiController.cpp ****     CheckUSBConnection();
  46:MidiController.cpp ****     CheckUARTConnection();
  47:MidiController.cpp ****     
  48:MidiController.cpp ****     // Process any pending messages in the queue
  49:MidiController.cpp ****     ProcessMessageQueue();
  50:MidiController.cpp ****     
  51:MidiController.cpp ****     // Update timestamp
  52:MidiController.cpp ****     lastActivityTime_ = daisy::System::GetNow();
  53:MidiController.cpp **** }
  54:MidiController.cpp **** 
  55:MidiController.cpp **** // Note messages
  56:MidiController.cpp **** void MidiController::SendNoteOn(uint8_t note, uint8_t velocity) {
  57:MidiController.cpp ****     if (!enabled_ || !IsValidNote(note) || !IsValidVelocity(velocity)) {
  58:MidiController.cpp ****         return;
  59:MidiController.cpp ****     }
  60:MidiController.cpp ****     
  61:MidiController.cpp ****     uint8_t status = CreateStatusByte(MIDI_NOTE_ON, midiChannel_);
  62:MidiController.cpp ****     QueueMessage(status, note, velocity);
  63:MidiController.cpp ****     TrackNoteOn(note);
  64:MidiController.cpp **** }
  65:MidiController.cpp **** 
  66:MidiController.cpp **** void MidiController::SendNoteOff(uint8_t note) {
  67:MidiController.cpp ****     SendNoteOff(note, 64); // Default velocity
  68:MidiController.cpp **** }
  69:MidiController.cpp **** 
  70:MidiController.cpp **** void MidiController::SendNoteOff(uint8_t note, uint8_t velocity) {
  71:MidiController.cpp ****     if (!enabled_ || !IsValidNote(note) || !IsValidVelocity(velocity)) {
  72:MidiController.cpp ****         return;
  73:MidiController.cpp ****     }
  74:MidiController.cpp ****     
  75:MidiController.cpp ****     uint8_t status = CreateStatusByte(MIDI_NOTE_OFF, midiChannel_);
  76:MidiController.cpp ****     QueueMessage(status, note, velocity);
  77:MidiController.cpp ****     TrackNoteOff(note);
  78:MidiController.cpp **** }
  79:MidiController.cpp **** 
  80:MidiController.cpp **** void MidiController::SendAllNotesOff() {
  81:MidiController.cpp ****     // Send MIDI CC All Notes Off
  82:MidiController.cpp ****     SendControlChange(MIDI_CC_ALL_NOTES_OFF, 0);
  83:MidiController.cpp ****     
  84:MidiController.cpp ****     // Also send individual note offs for tracked notes
  85:MidiController.cpp ****     for (int i = 0; i < 128; i++) {
  86:MidiController.cpp ****         if (activeNotes_[i]) {
  87:MidiController.cpp ****             SendNoteOff(i);
ARM GAS  C:\Users\Marco\AppData\Local\Temp\ccVZoccs.s 			page 3


  88:MidiController.cpp ****         }
  89:MidiController.cpp ****     }
  90:MidiController.cpp **** }
  91:MidiController.cpp **** 
  92:MidiController.cpp **** // Control messages
  93:MidiController.cpp **** void MidiController::SendControlChange(uint8_t controller, uint8_t value) {
  94:MidiController.cpp ****     if (!enabled_ || !IsValidController(controller)) {
  95:MidiController.cpp ****         return;
  96:MidiController.cpp ****     }
  97:MidiController.cpp ****     
  98:MidiController.cpp ****     uint8_t status = CreateStatusByte(MIDI_CONTROL_CHANGE, midiChannel_);
  99:MidiController.cpp ****     QueueMessage(status, controller, value);
 100:MidiController.cpp **** }
 101:MidiController.cpp **** 
 102:MidiController.cpp **** void MidiController::SendProgramChange(uint8_t program) {
 103:MidiController.cpp ****     if (!enabled_ || program > 127) {
 104:MidiController.cpp ****         return;
 105:MidiController.cpp ****     }
 106:MidiController.cpp ****     
 107:MidiController.cpp ****     uint8_t status = CreateStatusByte(MIDI_PROGRAM_CHANGE, midiChannel_);
 108:MidiController.cpp ****     QueueMessage(status, program);
 109:MidiController.cpp **** }
 110:MidiController.cpp **** 
 111:MidiController.cpp **** void MidiController::SendPitchBend(uint16_t value) {
 112:MidiController.cpp ****     if (!enabled_) {
 113:MidiController.cpp ****         return;
 114:MidiController.cpp ****     }
 115:MidiController.cpp ****     
 116:MidiController.cpp ****     uint8_t status = CreateStatusByte(MIDI_PITCH_BEND, midiChannel_);
 117:MidiController.cpp ****     uint8_t lsb = value & 0x7F;
 118:MidiController.cpp ****     uint8_t msb = (value >> 7) & 0x7F;
 119:MidiController.cpp ****     QueueMessage(status, lsb, msb);
 120:MidiController.cpp **** }
 121:MidiController.cpp **** 
 122:MidiController.cpp **** void MidiController::SendChannelPressure(uint8_t pressure) {
 123:MidiController.cpp ****     if (!enabled_ || pressure > 127) {
 124:MidiController.cpp ****         return;
 125:MidiController.cpp ****     }
 126:MidiController.cpp ****     
 127:MidiController.cpp ****     uint8_t status = CreateStatusByte(MIDI_CHANNEL_PRESSURE, midiChannel_);
 128:MidiController.cpp ****     QueueMessage(status, pressure);
 129:MidiController.cpp **** }
 130:MidiController.cpp **** 
 131:MidiController.cpp **** void MidiController::SendPolyPressure(uint8_t note, uint8_t pressure) {
 132:MidiController.cpp ****     if (!enabled_ || !IsValidNote(note) || pressure > 127) {
 133:MidiController.cpp ****         return;
 134:MidiController.cpp ****     }
 135:MidiController.cpp ****     
 136:MidiController.cpp ****     uint8_t status = CreateStatusByte(MIDI_POLY_PRESSURE, midiChannel_);
 137:MidiController.cpp ****     QueueMessage(status, note, pressure);
 138:MidiController.cpp **** }
 139:MidiController.cpp **** 
 140:MidiController.cpp **** // Configuration
 141:MidiController.cpp **** void MidiController::SetChannel(uint8_t channel) {
 142:MidiController.cpp ****     if (IsValidChannel(channel)) {
 143:MidiController.cpp ****         midiChannel_ = channel;
 144:MidiController.cpp ****     }
ARM GAS  C:\Users\Marco\AppData\Local\Temp\ccVZoccs.s 			page 4


 145:MidiController.cpp **** }
 146:MidiController.cpp **** 
 147:MidiController.cpp **** void MidiController::SetOutputMode(MidiOutputMode mode) {
 148:MidiController.cpp ****     outputMode_ = mode;
 149:MidiController.cpp **** }
 150:MidiController.cpp **** 
 151:MidiController.cpp **** void MidiController::SetEnabled(bool enabled) {
 152:MidiController.cpp ****     enabled_ = enabled;
 153:MidiController.cpp **** }
 154:MidiController.cpp **** 
 155:MidiController.cpp **** // Queue management
 156:MidiController.cpp **** bool MidiController::HasPendingMessages() {
 157:MidiController.cpp ****     return queueCount_ > 0;
 158:MidiController.cpp **** }
 159:MidiController.cpp **** 
 160:MidiController.cpp **** void MidiController::FlushMessageQueue() {
 161:MidiController.cpp ****     // Process all pending messages immediately
 162:MidiController.cpp ****     ProcessMessageQueue();
 163:MidiController.cpp **** }
 164:MidiController.cpp **** 
 165:MidiController.cpp **** void MidiController::ClearMessageQueue() {
 166:MidiController.cpp ****     queueHead_ = 0;
 167:MidiController.cpp ****     queueTail_ = 0;
 168:MidiController.cpp ****     queueCount_ = 0;
 169:MidiController.cpp **** }
 170:MidiController.cpp **** 
 171:MidiController.cpp **** // Status and diagnostics
 172:MidiController.cpp **** uint8_t MidiController::GetCurrentChannel() {
 173:MidiController.cpp ****     return midiChannel_;
 174:MidiController.cpp **** }
 175:MidiController.cpp **** 
 176:MidiController.cpp **** MidiOutputMode MidiController::GetOutputMode() {
 177:MidiController.cpp ****     return outputMode_;
 178:MidiController.cpp **** }
 179:MidiController.cpp **** 
 180:MidiController.cpp **** bool MidiController::IsEnabled() {
 181:MidiController.cpp ****     return enabled_;
 182:MidiController.cpp **** }
 183:MidiController.cpp **** 
 184:MidiController.cpp **** uint32_t MidiController::GetMessagesSent() {
 185:MidiController.cpp ****     return messagesSent_;
 186:MidiController.cpp **** }
 187:MidiController.cpp **** 
 188:MidiController.cpp **** uint32_t MidiController::GetLastActivityTime() {
 189:MidiController.cpp ****     return lastActivityTime_;
 190:MidiController.cpp **** }
 191:MidiController.cpp **** 
 192:MidiController.cpp **** bool MidiController::SelfTest() {
 193:MidiController.cpp ****     // Perform basic self-test
 194:MidiController.cpp ****     bool usbOk = true;
 195:MidiController.cpp ****     bool uartOk = true;
 196:MidiController.cpp ****     
 197:MidiController.cpp ****     // Test queue functionality
 198:MidiController.cpp ****     bool queueOk = (queueCount_ <= MESSAGE_QUEUE_SIZE);
 199:MidiController.cpp ****     
 200:MidiController.cpp ****     // Test MIDI channel validity
 201:MidiController.cpp ****     bool channelOk = IsValidChannel(midiChannel_);
ARM GAS  C:\Users\Marco\AppData\Local\Temp\ccVZoccs.s 			page 5


 202:MidiController.cpp ****     
 203:MidiController.cpp ****     return usbOk && uartOk && queueOk && channelOk;
 204:MidiController.cpp **** }
 205:MidiController.cpp **** 
 206:MidiController.cpp **** // Advanced features
 207:MidiController.cpp **** void MidiController::SendSysEx(uint8_t* data, size_t length) {
 208:MidiController.cpp ****     if (!enabled_ || length < 1) return;
 209:MidiController.cpp ****     
 210:MidiController.cpp ****     // SysEx messages start with 0xF0 and end with 0xF7
 211:MidiController.cpp ****     uint8_t* sysexMsg = new uint8_t[length + 2];
 212:MidiController.cpp ****     sysexMsg[0] = 0xF0; // SysEx start
 213:MidiController.cpp ****     for (size_t i = 0; i < length; i++) {
 214:MidiController.cpp ****         sysexMsg[i + 1] = data[i];
 215:MidiController.cpp ****     }
 216:MidiController.cpp ****     sysexMsg[length + 1] = 0xF7; // SysEx end
 217:MidiController.cpp ****     
 218:MidiController.cpp ****     if (outputMode_ == MIDI_USB_ONLY || outputMode_ == MIDI_BOTH) {
 219:MidiController.cpp ****         if (usbConnected_) {
 220:MidiController.cpp ****             SendViaUSB(sysexMsg, length + 2);
 221:MidiController.cpp ****         }
 222:MidiController.cpp ****     }
 223:MidiController.cpp ****     
 224:MidiController.cpp ****     if (outputMode_ == MIDI_UART_ONLY || outputMode_ == MIDI_BOTH) {
 225:MidiController.cpp ****         if (uartConnected_) {
 226:MidiController.cpp ****             SendViaUART(sysexMsg, length + 2);
 227:MidiController.cpp ****         }
 228:MidiController.cpp ****     }
 229:MidiController.cpp ****     
 230:MidiController.cpp ****     delete[] sysexMsg;
 231:MidiController.cpp ****     messagesSent_++;
 232:MidiController.cpp **** }
 233:MidiController.cpp **** 
 234:MidiController.cpp **** void MidiController::SendMTC(uint8_t frameType, uint8_t value) {
 235:MidiController.cpp ****     // MIDI Time Code Quarter Frame
 236:MidiController.cpp ****     uint8_t mtcByte = 0xF1;
 237:MidiController.cpp ****     uint8_t dataByte = (frameType << 4) | (value & 0x0F);
 238:MidiController.cpp ****     SendMidiMessage(mtcByte, dataByte);
 239:MidiController.cpp **** }
 240:MidiController.cpp **** 
 241:MidiController.cpp **** void MidiController::SendSongPosition(uint16_t position) {
 242:MidiController.cpp ****     uint8_t lsb = position & 0x7F;
 243:MidiController.cpp ****     uint8_t msb = (position >> 7) & 0x7F;
 244:MidiController.cpp ****     uint8_t bytes[3] = {0xF2, lsb, msb};
 245:MidiController.cpp ****     
 246:MidiController.cpp ****     if (outputMode_ == MIDI_USB_ONLY || outputMode_ == MIDI_BOTH) {
 247:MidiController.cpp ****         if (usbConnected_) {
 248:MidiController.cpp ****             SendViaUSB(bytes, 3);
 249:MidiController.cpp ****         }
 250:MidiController.cpp ****     }
 251:MidiController.cpp ****     
 252:MidiController.cpp ****     if (outputMode_ == MIDI_UART_ONLY || outputMode_ == MIDI_BOTH) {
 253:MidiController.cpp ****         if (uartConnected_) {
 254:MidiController.cpp ****             SendViaUART(bytes, 3);
 255:MidiController.cpp ****         }
 256:MidiController.cpp ****     }
 257:MidiController.cpp **** }
 258:MidiController.cpp **** 
ARM GAS  C:\Users\Marco\AppData\Local\Temp\ccVZoccs.s 			page 6


 259:MidiController.cpp **** void MidiController::SendClock() {
 260:MidiController.cpp ****     SendMidiMessage(0xF8); // MIDI Clock
 261:MidiController.cpp **** }
 262:MidiController.cpp **** 
 263:MidiController.cpp **** void MidiController::SendStart() {
 264:MidiController.cpp ****     SendMidiMessage(0xFA); // MIDI Start
 265:MidiController.cpp ****     clockRunning_ = true;
 266:MidiController.cpp **** }
 267:MidiController.cpp **** 
 268:MidiController.cpp **** void MidiController::SendStop() {
 269:MidiController.cpp ****     SendMidiMessage(0xFC); // MIDI Stop
 270:MidiController.cpp ****     clockRunning_ = false;
 271:MidiController.cpp **** }
 272:MidiController.cpp **** 
 273:MidiController.cpp **** void MidiController::SendContinue() {
 274:MidiController.cpp ****     SendMidiMessage(0xFB); // MIDI Continue
 275:MidiController.cpp ****     clockRunning_ = true;
 276:MidiController.cpp **** }
 277:MidiController.cpp **** 
 278:MidiController.cpp **** void MidiController::SendSceneChange(uint8_t scene) {
 279:MidiController.cpp ****     // Send as Program Change
 280:MidiController.cpp ****     SendProgramChange(scene);
 281:MidiController.cpp **** }
 282:MidiController.cpp **** 
 283:MidiController.cpp **** void MidiController::SendBankSelect(uint8_t bank) {
 284:MidiController.cpp ****     // Bank Select MSB (CC 0)
 285:MidiController.cpp ****     SendControlChange(0, bank);
 286:MidiController.cpp **** }
 287:MidiController.cpp **** 
 288:MidiController.cpp **** // Private methods - implementation
 289:MidiController.cpp **** void MidiController::SendMidiMessage(uint8_t status, uint8_t data1, uint8_t data2) {
 290:MidiController.cpp ****     if (!enabled_) return;
 291:MidiController.cpp ****     
 292:MidiController.cpp ****     uint8_t midiBytes[3] = {status, data1, data2};
 293:MidiController.cpp ****     
 294:MidiController.cpp ****     // Send via USB if enabled
 295:MidiController.cpp ****     if (outputMode_ == MIDI_USB_ONLY || outputMode_ == MIDI_BOTH) {
 296:MidiController.cpp ****         if (usbConnected_) {
 297:MidiController.cpp ****             SendViaUSB(midiBytes, 3);
 298:MidiController.cpp ****         }
 299:MidiController.cpp ****     }
 300:MidiController.cpp ****     
 301:MidiController.cpp ****     // Send via UART if enabled
 302:MidiController.cpp ****     if (outputMode_ == MIDI_UART_ONLY || outputMode_ == MIDI_BOTH) {
 303:MidiController.cpp ****         if (uartConnected_) {
 304:MidiController.cpp ****             SendViaUART(midiBytes, 3);
 305:MidiController.cpp ****         }
 306:MidiController.cpp ****     }
 307:MidiController.cpp ****     
 308:MidiController.cpp ****     messagesSent_++;
 309:MidiController.cpp ****     UpdateRunningStatus(status);
 310:MidiController.cpp ****     lastActivityTime_ = daisy::System::GetNow();
 311:MidiController.cpp **** }
 312:MidiController.cpp **** 
 313:MidiController.cpp **** void MidiController::SendMidiMessage(uint8_t status, uint8_t data1) {
  29              		.loc 1 313 6 view -0
  30              		.cfi_startproc
ARM GAS  C:\Users\Marco\AppData\Local\Temp\ccVZoccs.s 			page 7


  31              		@ args = 0, pretend = 0, frame = 8
  32              		@ frame_needed = 0, uses_anonymous_args = 0
 314:MidiController.cpp ****     if (!enabled_) return;
 315:MidiController.cpp ****     
 316:MidiController.cpp ****     uint8_t midiBytes[2] = {status, data1};
  33              		.loc 1 316 5 view .LVU1
 313:MidiController.cpp ****     if (!enabled_) return;
  34              		.loc 1 313 6 is_stmt 0 view .LVU2
  35 0000 70B5     		push	{r4, r5, r6, lr}
  36              		.cfi_def_cfa_offset 16
  37              		.cfi_offset 4, -16
  38              		.cfi_offset 5, -12
  39              		.cfi_offset 6, -8
  40              		.cfi_offset 14, -4
 317:MidiController.cpp ****     
 318:MidiController.cpp ****     // Send via USB if enabled
 319:MidiController.cpp ****     if (outputMode_ == MIDI_USB_ONLY || outputMode_ == MIDI_BOTH) {
  41              		.loc 1 319 9 view .LVU3
  42 0002 00F59034 		add	r4, r0, #73728
 313:MidiController.cpp ****     if (!enabled_) return;
  43              		.loc 1 313 6 view .LVU4
  44 0006 82B0     		sub	sp, sp, #8
  45              		.cfi_def_cfa_offset 24
 313:MidiController.cpp ****     if (!enabled_) return;
  46              		.loc 1 313 6 view .LVU5
  47 0008 0646     		mov	r6, r0
  48 000a 0D46     		mov	r5, r1
  49              		.loc 1 319 9 view .LVU6
  50 000c 94F8AD32 		ldrb	r3, [r4, #685]	@ zero_extendqisi2
 316:MidiController.cpp ****     
  51              		.loc 1 316 42 view .LVU7
  52 0010 8DF80520 		strb	r2, [sp, #5]
  53              		.loc 1 319 5 is_stmt 1 view .LVU8
  54 0014 13F0FD0F 		tst	r3, #253
 316:MidiController.cpp ****     
  55              		.loc 1 316 42 is_stmt 0 view .LVU9
  56 0018 8DF80410 		strb	r1, [sp, #4]
  57              		.loc 1 319 5 view .LVU10
  58 001c 02D1     		bne	.L2
 320:MidiController.cpp ****         if (usbConnected_) {
  59              		.loc 1 320 9 is_stmt 1 view .LVU11
  60 001e 94F8AF22 		ldrb	r2, [r4, #687]	@ zero_extendqisi2
  61              	.LVL1:
  62              		.loc 1 320 9 is_stmt 0 view .LVU12
  63 0022 D2B9     		cbnz	r2, .L12
  64              	.LVL2:
  65              	.L2:
 321:MidiController.cpp ****             SendViaUSB(midiBytes, 2);
 322:MidiController.cpp ****         }
 323:MidiController.cpp ****     }
 324:MidiController.cpp ****     
 325:MidiController.cpp ****     // Send via UART if enabled
 326:MidiController.cpp ****     if (outputMode_ == MIDI_UART_ONLY || outputMode_ == MIDI_BOTH) {
  66              		.loc 1 326 5 is_stmt 1 view .LVU13
  67 0024 013B     		subs	r3, r3, #1
  68 0026 012B     		cmp	r3, #1
  69 0028 0CD9     		bls	.L13
ARM GAS  C:\Users\Marco\AppData\Local\Temp\ccVZoccs.s 			page 8


  70              	.L3:
 327:MidiController.cpp ****         if (uartConnected_) {
 328:MidiController.cpp ****             SendViaUART(midiBytes, 2);
 329:MidiController.cpp ****         }
 330:MidiController.cpp ****     }
 331:MidiController.cpp ****     
 332:MidiController.cpp ****     messagesSent_++;
  71              		.loc 1 332 5 view .LVU14
  72              		.loc 1 332 18 is_stmt 0 view .LVU15
  73 002a D4F8B835 		ldr	r3, [r4, #1464]
  74              	.LBB323:
  75              	.LBB324:
 333:MidiController.cpp ****     UpdateRunningStatus(status);
 334:MidiController.cpp ****     lastActivityTime_ = daisy::System::GetNow();
 335:MidiController.cpp **** }
 336:MidiController.cpp **** 
 337:MidiController.cpp **** void MidiController::SendMidiMessage(uint8_t status) {
 338:MidiController.cpp ****     if (!enabled_) return;
 339:MidiController.cpp ****     
 340:MidiController.cpp ****     uint8_t midiBytes[1] = {status};
 341:MidiController.cpp ****     
 342:MidiController.cpp ****     // Send via USB if enabled
 343:MidiController.cpp ****     if (outputMode_ == MIDI_USB_ONLY || outputMode_ == MIDI_BOTH) {
 344:MidiController.cpp ****         if (usbConnected_) {
 345:MidiController.cpp ****             SendViaUSB(midiBytes, 1);
 346:MidiController.cpp ****         }
 347:MidiController.cpp ****     }
 348:MidiController.cpp ****     
 349:MidiController.cpp ****     // Send via UART if enabled
 350:MidiController.cpp ****     if (outputMode_ == MIDI_UART_ONLY || outputMode_ == MIDI_BOTH) {
 351:MidiController.cpp ****         if (uartConnected_) {
 352:MidiController.cpp ****             SendViaUART(midiBytes, 1);
 353:MidiController.cpp ****         }
 354:MidiController.cpp ****     }
 355:MidiController.cpp ****     
 356:MidiController.cpp ****     messagesSent_++;
 357:MidiController.cpp ****     UpdateRunningStatus(status);
 358:MidiController.cpp ****     lastActivityTime_ = daisy::System::GetNow();
 359:MidiController.cpp **** }
 360:MidiController.cpp **** 
 361:MidiController.cpp **** void MidiController::QueueMessage(uint8_t status, uint8_t data1, uint8_t data2) {
 362:MidiController.cpp ****     if (IsQueueFull()) {
 363:MidiController.cpp ****         return; // Queue is full, drop message
 364:MidiController.cpp ****     }
 365:MidiController.cpp ****     
 366:MidiController.cpp ****     MidiMessage& msg = messageQueue_[queueTail_];
 367:MidiController.cpp ****     msg.status = status;
 368:MidiController.cpp ****     msg.data1 = data1;
 369:MidiController.cpp ****     msg.data2 = data2;
 370:MidiController.cpp ****     msg.hasData2 = true;
 371:MidiController.cpp ****     msg.timestamp = lastActivityTime_; // TODO: Get actual timestamp
 372:MidiController.cpp ****     
 373:MidiController.cpp ****     queueTail_ = (queueTail_ + 1) % MESSAGE_QUEUE_SIZE;
 374:MidiController.cpp ****     queueCount_++;
 375:MidiController.cpp **** }
 376:MidiController.cpp **** 
 377:MidiController.cpp **** void MidiController::QueueMessage(uint8_t status, uint8_t data1) {
ARM GAS  C:\Users\Marco\AppData\Local\Temp\ccVZoccs.s 			page 9


 378:MidiController.cpp ****     if (IsQueueFull()) {
 379:MidiController.cpp ****         return;
 380:MidiController.cpp ****     }
 381:MidiController.cpp ****     
 382:MidiController.cpp ****     MidiMessage& msg = messageQueue_[queueTail_];
 383:MidiController.cpp ****     msg.status = status;
 384:MidiController.cpp ****     msg.data1 = data1;
 385:MidiController.cpp ****     msg.data2 = 0;
 386:MidiController.cpp ****     msg.hasData2 = false;
 387:MidiController.cpp ****     msg.timestamp = lastActivityTime_;
 388:MidiController.cpp ****     
 389:MidiController.cpp ****     queueTail_ = (queueTail_ + 1) % MESSAGE_QUEUE_SIZE;
 390:MidiController.cpp ****     queueCount_++;
 391:MidiController.cpp **** }
 392:MidiController.cpp **** 
 393:MidiController.cpp **** void MidiController::ProcessMessageQueue() {
 394:MidiController.cpp ****     // Process all pending messages in the queue
 395:MidiController.cpp ****     while (queueCount_ > 0) {
 396:MidiController.cpp ****         MidiMessage& msg = messageQueue_[queueHead_];
 397:MidiController.cpp ****         
 398:MidiController.cpp ****         if (msg.hasData2) {
 399:MidiController.cpp ****             SendMidiMessage(msg.status, msg.data1, msg.data2);
 400:MidiController.cpp ****         } else {
 401:MidiController.cpp ****             SendMidiMessage(msg.status, msg.data1);
 402:MidiController.cpp ****         }
 403:MidiController.cpp ****         
 404:MidiController.cpp ****         // Move to next message
 405:MidiController.cpp ****         queueHead_ = (queueHead_ + 1) % MESSAGE_QUEUE_SIZE;
 406:MidiController.cpp ****         queueCount_--;
 407:MidiController.cpp ****     }
 408:MidiController.cpp **** }
 409:MidiController.cpp **** 
 410:MidiController.cpp **** bool MidiController::IsQueueFull() {
 411:MidiController.cpp ****     return queueCount_ >= MESSAGE_QUEUE_SIZE;
 412:MidiController.cpp **** }
 413:MidiController.cpp **** 
 414:MidiController.cpp **** void MidiController::SendViaUSB(uint8_t* data, size_t length) {
 415:MidiController.cpp ****     usbMidi_.SendMessage(data, length);
 416:MidiController.cpp ****     // Note: SendMessage returns void, no error checking available
 417:MidiController.cpp **** }
 418:MidiController.cpp **** 
 419:MidiController.cpp **** void MidiController::SendViaUART(uint8_t* data, size_t length) {
 420:MidiController.cpp ****     uartMidi_.SendMessage(data, length);
 421:MidiController.cpp **** }
 422:MidiController.cpp **** 
 423:MidiController.cpp **** void MidiController::InitializeUSB() {
 424:MidiController.cpp ****     daisy::MidiUsbHandler::Config usbConfig;
 425:MidiController.cpp ****     usbConfig.transport_config.periph = daisy::MidiUsbTransport::Config::INTERNAL;
 426:MidiController.cpp ****     usbMidi_.Init(usbConfig);
 427:MidiController.cpp ****     usbConnected_ = true; // Assume connected for now
 428:MidiController.cpp **** }
 429:MidiController.cpp **** 
 430:MidiController.cpp **** void MidiController::InitializeUART() {
 431:MidiController.cpp ****     daisy::MidiUartHandler::Config uartConfig;
 432:MidiController.cpp ****     // Use default UART configuration - pins D14/D15 for UART1
 433:MidiController.cpp ****     uartMidi_.Init(uartConfig);
 434:MidiController.cpp ****     uartConnected_ = true; // Assume connected for now
ARM GAS  C:\Users\Marco\AppData\Local\Temp\ccVZoccs.s 			page 10


 435:MidiController.cpp **** }
 436:MidiController.cpp **** 
 437:MidiController.cpp **** void MidiController::CheckUSBConnection() {
 438:MidiController.cpp ****     // Check if USB device is connected
 439:MidiController.cpp ****     // This is a simplified check - in real implementation you might
 440:MidiController.cpp ****     // want to check USB enumeration status
 441:MidiController.cpp ****     usbConnected_ = true; // For now, assume always connected
 442:MidiController.cpp **** }
 443:MidiController.cpp **** 
 444:MidiController.cpp **** void MidiController::CheckUARTConnection() {
 445:MidiController.cpp ****     // Check if UART device is connected
 446:MidiController.cpp ****     // This is difficult to detect automatically for UART MIDI
 447:MidiController.cpp ****     uartConnected_ = true; // For now, assume always connected
 448:MidiController.cpp **** }
 449:MidiController.cpp **** 
 450:MidiController.cpp **** void MidiController::HandleConnectionChange() {
 451:MidiController.cpp ****     // Handle connection/disconnection events
 452:MidiController.cpp ****     // Could be used to notify the application about MIDI device status
 453:MidiController.cpp **** }
 454:MidiController.cpp **** 
 455:MidiController.cpp **** uint8_t MidiController::CreateStatusByte(MidiMessageType messageType, uint8_t channel) {
 456:MidiController.cpp ****     return (uint8_t)messageType | ((channel - 1) & 0x0F);
 457:MidiController.cpp **** }
 458:MidiController.cpp **** 
 459:MidiController.cpp **** bool MidiController::IsValidChannel(uint8_t channel) {
 460:MidiController.cpp ****     return channel >= 1 && channel <= 16;
 461:MidiController.cpp **** }
 462:MidiController.cpp **** 
 463:MidiController.cpp **** bool MidiController::IsValidNote(uint8_t note) {
 464:MidiController.cpp ****     return note <= 127;
 465:MidiController.cpp **** }
 466:MidiController.cpp **** 
 467:MidiController.cpp **** bool MidiController::IsValidVelocity(uint8_t velocity) {
 468:MidiController.cpp ****     return velocity <= 127;
 469:MidiController.cpp **** }
 470:MidiController.cpp **** 
 471:MidiController.cpp **** bool MidiController::IsValidController(uint8_t controller) {
 472:MidiController.cpp ****     return controller <= 127;
 473:MidiController.cpp **** }
 474:MidiController.cpp **** 
 475:MidiController.cpp **** void MidiController::TrackNoteOn(uint8_t note) {
 476:MidiController.cpp ****     if (note < 128 && !activeNotes_[note]) {
 477:MidiController.cpp ****         activeNotes_[note] = true;
 478:MidiController.cpp ****         activeNoteCount_++;
 479:MidiController.cpp ****     }
 480:MidiController.cpp **** }
 481:MidiController.cpp **** 
 482:MidiController.cpp **** void MidiController::TrackNoteOff(uint8_t note) {
 483:MidiController.cpp ****     if (note < 128 && activeNotes_[note]) {
 484:MidiController.cpp ****         activeNotes_[note] = false;
 485:MidiController.cpp ****         if (activeNoteCount_ > 0) {
 486:MidiController.cpp ****             activeNoteCount_--;
 487:MidiController.cpp ****         }
 488:MidiController.cpp ****     }
 489:MidiController.cpp **** }
 490:MidiController.cpp **** 
 491:MidiController.cpp **** bool MidiController::IsNoteActive(uint8_t note) {
ARM GAS  C:\Users\Marco\AppData\Local\Temp\ccVZoccs.s 			page 11


 492:MidiController.cpp ****     return note < 128 && activeNotes_[note];
 493:MidiController.cpp **** }
 494:MidiController.cpp **** 
 495:MidiController.cpp **** void MidiController::UpdateRunningStatus(uint8_t status) {
 496:MidiController.cpp ****     runningStatus_ = status;
  76              		.loc 1 496 20 view .LVU16
  77 002e 84F8C055 		strb	r5, [r4, #1472]
  78              	.LBE324:
  79              	.LBE323:
 332:MidiController.cpp ****     UpdateRunningStatus(status);
  80              		.loc 1 332 18 view .LVU17
  81 0032 0133     		adds	r3, r3, #1
  82 0034 C4F8B835 		str	r3, [r4, #1464]
 333:MidiController.cpp ****     UpdateRunningStatus(status);
  83              		.loc 1 333 5 is_stmt 1 view .LVU18
  84              	.LVL3:
  85              	.LBB326:
  86              	.LBI323:
 495:MidiController.cpp ****     runningStatus_ = status;
  87              		.loc 1 495 6 view .LVU19
  88              	.LBB325:
  89              		.loc 1 496 5 view .LVU20
  90              		.loc 1 496 5 is_stmt 0 view .LVU21
  91              	.LBE325:
  92              	.LBE326:
 334:MidiController.cpp **** }
  93              		.loc 1 334 5 is_stmt 1 view .LVU22
 334:MidiController.cpp **** }
  94              		.loc 1 334 46 is_stmt 0 view .LVU23
  95 0038 FFF7FEFF 		bl	_ZN5daisy6System6GetNowEv
  96              	.LVL4:
 334:MidiController.cpp **** }
  97              		.loc 1 334 23 view .LVU24
  98 003c C4F8BC05 		str	r0, [r4, #1468]
 335:MidiController.cpp **** 
  99              		.loc 1 335 1 view .LVU25
 100 0040 02B0     		add	sp, sp, #8
 101              		.cfi_remember_state
 102              		.cfi_def_cfa_offset 16
 103              		@ sp needed
 104 0042 70BD     		pop	{r4, r5, r6, pc}
 105              	.LVL5:
 106              	.L13:
 107              		.cfi_restore_state
 327:MidiController.cpp ****             SendViaUART(midiBytes, 2);
 108              		.loc 1 327 9 is_stmt 1 view .LVU26
 109 0044 94F8B032 		ldrb	r3, [r4, #688]	@ zero_extendqisi2
 110 0048 002B     		cmp	r3, #0
 111 004a EED0     		beq	.L3
 328:MidiController.cpp ****         }
 112              		.loc 1 328 13 view .LVU27
 113              	.LVL6:
 114              	.LBB327:
 115              	.LBI327:
 419:MidiController.cpp ****     uartMidi_.SendMessage(data, length);
 116              		.loc 1 419 6 view .LVU28
 117              	.LBB328:
ARM GAS  C:\Users\Marco\AppData\Local\Temp\ccVZoccs.s 			page 12


 420:MidiController.cpp **** }
 118              		.loc 1 420 5 view .LVU29
 119              	.LBB329:
 120              	.LBI329:
 121              		.file 2 "../DaisyExamples/libDaisy/src/hid/midi.h"
   1:../DaisyExamples/libDaisy/src/hid/midi.h **** #pragma once
   2:../DaisyExamples/libDaisy/src/hid/midi.h **** #ifndef DSY_MIDI_H
   3:../DaisyExamples/libDaisy/src/hid/midi.h **** #define DSY_MIDI_H
   4:../DaisyExamples/libDaisy/src/hid/midi.h **** 
   5:../DaisyExamples/libDaisy/src/hid/midi.h **** #include <stdint.h>
   6:../DaisyExamples/libDaisy/src/hid/midi.h **** #include <stdlib.h>
   7:../DaisyExamples/libDaisy/src/hid/midi.h **** #include <algorithm>
   8:../DaisyExamples/libDaisy/src/hid/midi.h **** #include "per/uart.h"
   9:../DaisyExamples/libDaisy/src/hid/midi.h **** #include "util/ringbuffer.h"
  10:../DaisyExamples/libDaisy/src/hid/midi.h **** #include "util/FIFO.h"
  11:../DaisyExamples/libDaisy/src/hid/midi.h **** #include "hid/midi_parser.h"
  12:../DaisyExamples/libDaisy/src/hid/midi.h **** #include "hid/usb_midi.h"
  13:../DaisyExamples/libDaisy/src/hid/midi.h **** #include "sys/dma.h"
  14:../DaisyExamples/libDaisy/src/hid/midi.h **** #include "sys/system.h"
  15:../DaisyExamples/libDaisy/src/hid/midi.h **** 
  16:../DaisyExamples/libDaisy/src/hid/midi.h **** namespace daisy
  17:../DaisyExamples/libDaisy/src/hid/midi.h **** {
  18:../DaisyExamples/libDaisy/src/hid/midi.h **** /** @brief   Transport layer for sending and receiving MIDI data over UART
  19:../DaisyExamples/libDaisy/src/hid/midi.h ****  *  @details This is the mode of communication used for TRS and DIN MIDI
  20:../DaisyExamples/libDaisy/src/hid/midi.h ****  *           There is an additional 2kB of RAM data used within this class
  21:../DaisyExamples/libDaisy/src/hid/midi.h ****  *           for processing bulk data from the UART peripheral
  22:../DaisyExamples/libDaisy/src/hid/midi.h ****  *  @ingroup midi
  23:../DaisyExamples/libDaisy/src/hid/midi.h **** */
  24:../DaisyExamples/libDaisy/src/hid/midi.h **** class MidiUartTransport
  25:../DaisyExamples/libDaisy/src/hid/midi.h **** {
  26:../DaisyExamples/libDaisy/src/hid/midi.h ****   public:
  27:../DaisyExamples/libDaisy/src/hid/midi.h ****     typedef void (*MidiRxParseCallback)(uint8_t* data,
  28:../DaisyExamples/libDaisy/src/hid/midi.h ****                                         size_t   size,
  29:../DaisyExamples/libDaisy/src/hid/midi.h ****                                         void*    context);
  30:../DaisyExamples/libDaisy/src/hid/midi.h **** 
  31:../DaisyExamples/libDaisy/src/hid/midi.h ****     MidiUartTransport() {}
  32:../DaisyExamples/libDaisy/src/hid/midi.h ****     ~MidiUartTransport() {}
  33:../DaisyExamples/libDaisy/src/hid/midi.h **** 
  34:../DaisyExamples/libDaisy/src/hid/midi.h ****     /** @brief Configuration structure for UART MIDI */
  35:../DaisyExamples/libDaisy/src/hid/midi.h ****     struct Config
  36:../DaisyExamples/libDaisy/src/hid/midi.h ****     {
  37:../DaisyExamples/libDaisy/src/hid/midi.h ****         UartHandler::Config::Peripheral periph;
  38:../DaisyExamples/libDaisy/src/hid/midi.h ****         dsy_gpio_pin                    rx;
  39:../DaisyExamples/libDaisy/src/hid/midi.h ****         dsy_gpio_pin                    tx;
  40:../DaisyExamples/libDaisy/src/hid/midi.h **** 
  41:../DaisyExamples/libDaisy/src/hid/midi.h ****         /** Pointer to buffer for DMA UART rx byte transfer in background.
  42:../DaisyExamples/libDaisy/src/hid/midi.h ****          *
  43:../DaisyExamples/libDaisy/src/hid/midi.h ****          *  @details By default this uses a shared buffer in DMA_BUFFER_MEM_SECTION,
  44:../DaisyExamples/libDaisy/src/hid/midi.h ****          *           which can only be utilized for a single UART peripheral. To
  45:../DaisyExamples/libDaisy/src/hid/midi.h ****          *           use MIDI with multiple UART peripherals, you must provide your own
  46:../DaisyExamples/libDaisy/src/hid/midi.h ****          *           buffer, allocated to a DMA-capable memory section.
  47:../DaisyExamples/libDaisy/src/hid/midi.h ****          */
  48:../DaisyExamples/libDaisy/src/hid/midi.h ****         uint8_t* rx_buffer;
  49:../DaisyExamples/libDaisy/src/hid/midi.h **** 
  50:../DaisyExamples/libDaisy/src/hid/midi.h ****         /** Size in bytes of rx_buffer.
  51:../DaisyExamples/libDaisy/src/hid/midi.h ****          *
  52:../DaisyExamples/libDaisy/src/hid/midi.h ****          *  @details This size determines the maximum Rx bytes readable by the UART in the backgrou
ARM GAS  C:\Users\Marco\AppData\Local\Temp\ccVZoccs.s 			page 13


  53:../DaisyExamples/libDaisy/src/hid/midi.h ****          *           By default it's set to the size of the default shared rx_buffer (256 bytes).
  54:../DaisyExamples/libDaisy/src/hid/midi.h ****          *           While much smaller sizes can be used, data can get missed if the buffer is too
  55:../DaisyExamples/libDaisy/src/hid/midi.h ****          */
  56:../DaisyExamples/libDaisy/src/hid/midi.h ****         size_t rx_buffer_size;
  57:../DaisyExamples/libDaisy/src/hid/midi.h **** 
  58:../DaisyExamples/libDaisy/src/hid/midi.h ****         Config();
  59:../DaisyExamples/libDaisy/src/hid/midi.h ****     };
  60:../DaisyExamples/libDaisy/src/hid/midi.h **** 
  61:../DaisyExamples/libDaisy/src/hid/midi.h ****     /** @brief Initialization of UART using config struct */
  62:../DaisyExamples/libDaisy/src/hid/midi.h ****     inline void Init(Config config)
  63:../DaisyExamples/libDaisy/src/hid/midi.h ****     {
  64:../DaisyExamples/libDaisy/src/hid/midi.h ****         UartHandler::Config uart_config;
  65:../DaisyExamples/libDaisy/src/hid/midi.h **** 
  66:../DaisyExamples/libDaisy/src/hid/midi.h ****         //defaults
  67:../DaisyExamples/libDaisy/src/hid/midi.h ****         uart_config.baudrate   = 31250;
  68:../DaisyExamples/libDaisy/src/hid/midi.h ****         uart_config.stopbits   = UartHandler::Config::StopBits::BITS_1;
  69:../DaisyExamples/libDaisy/src/hid/midi.h ****         uart_config.parity     = UartHandler::Config::Parity::NONE;
  70:../DaisyExamples/libDaisy/src/hid/midi.h ****         uart_config.mode       = UartHandler::Config::Mode::TX_RX;
  71:../DaisyExamples/libDaisy/src/hid/midi.h ****         uart_config.wordlength = UartHandler::Config::WordLength::BITS_8;
  72:../DaisyExamples/libDaisy/src/hid/midi.h **** 
  73:../DaisyExamples/libDaisy/src/hid/midi.h ****         //user settings
  74:../DaisyExamples/libDaisy/src/hid/midi.h ****         uart_config.periph        = config.periph;
  75:../DaisyExamples/libDaisy/src/hid/midi.h ****         uart_config.pin_config.rx = config.rx;
  76:../DaisyExamples/libDaisy/src/hid/midi.h ****         uart_config.pin_config.tx = config.tx;
  77:../DaisyExamples/libDaisy/src/hid/midi.h **** 
  78:../DaisyExamples/libDaisy/src/hid/midi.h ****         rx_buffer      = config.rx_buffer;
  79:../DaisyExamples/libDaisy/src/hid/midi.h ****         rx_buffer_size = config.rx_buffer_size;
  80:../DaisyExamples/libDaisy/src/hid/midi.h **** 
  81:../DaisyExamples/libDaisy/src/hid/midi.h ****         /** zero the buffer to ensure emptiness regardless of source memory */
  82:../DaisyExamples/libDaisy/src/hid/midi.h ****         std::fill(rx_buffer, rx_buffer + rx_buffer_size, 0);
  83:../DaisyExamples/libDaisy/src/hid/midi.h **** 
  84:../DaisyExamples/libDaisy/src/hid/midi.h ****         uart_.Init(uart_config);
  85:../DaisyExamples/libDaisy/src/hid/midi.h ****     }
  86:../DaisyExamples/libDaisy/src/hid/midi.h **** 
  87:../DaisyExamples/libDaisy/src/hid/midi.h ****     /** @brief Start the UART peripheral in listening mode.
  88:../DaisyExamples/libDaisy/src/hid/midi.h ****      *  This will fill an internal data structure in the background */
  89:../DaisyExamples/libDaisy/src/hid/midi.h ****     inline void StartRx(MidiRxParseCallback parse_callback, void* context)
  90:../DaisyExamples/libDaisy/src/hid/midi.h ****     {
  91:../DaisyExamples/libDaisy/src/hid/midi.h ****         parse_context_  = context;
  92:../DaisyExamples/libDaisy/src/hid/midi.h ****         parse_callback_ = parse_callback;
  93:../DaisyExamples/libDaisy/src/hid/midi.h ****         dsy_dma_clear_cache_for_buffer((uint8_t*)this,
  94:../DaisyExamples/libDaisy/src/hid/midi.h ****                                        sizeof(MidiUartTransport));
  95:../DaisyExamples/libDaisy/src/hid/midi.h ****         uart_.DmaListenStart(
  96:../DaisyExamples/libDaisy/src/hid/midi.h ****             rx_buffer, rx_buffer_size, MidiUartTransport::rxCallback, this);
  97:../DaisyExamples/libDaisy/src/hid/midi.h ****     }
  98:../DaisyExamples/libDaisy/src/hid/midi.h **** 
  99:../DaisyExamples/libDaisy/src/hid/midi.h ****     /** @brief returns whether the UART peripheral is actively listening in the background or not *
 100:../DaisyExamples/libDaisy/src/hid/midi.h ****     inline bool RxActive() { return uart_.IsListening(); }
 101:../DaisyExamples/libDaisy/src/hid/midi.h **** 
 102:../DaisyExamples/libDaisy/src/hid/midi.h ****     /** @brief This is a no-op for UART transport - Rx is via DMA callback with circular buffer */
 103:../DaisyExamples/libDaisy/src/hid/midi.h ****     inline void FlushRx() {}
 104:../DaisyExamples/libDaisy/src/hid/midi.h **** 
 105:../DaisyExamples/libDaisy/src/hid/midi.h ****     /** @brief sends the buffer of bytes out of the UART peripheral */
 106:../DaisyExamples/libDaisy/src/hid/midi.h ****     inline void Tx(uint8_t* buff, size_t size) { uart_.PollTx(buff, size); }
 107:../DaisyExamples/libDaisy/src/hid/midi.h **** 
 108:../DaisyExamples/libDaisy/src/hid/midi.h ****   private:
 109:../DaisyExamples/libDaisy/src/hid/midi.h ****     UartHandler         uart_;
ARM GAS  C:\Users\Marco\AppData\Local\Temp\ccVZoccs.s 			page 14


 110:../DaisyExamples/libDaisy/src/hid/midi.h ****     uint8_t*            rx_buffer;
 111:../DaisyExamples/libDaisy/src/hid/midi.h ****     size_t              rx_buffer_size;
 112:../DaisyExamples/libDaisy/src/hid/midi.h ****     void*               parse_context_;
 113:../DaisyExamples/libDaisy/src/hid/midi.h ****     MidiRxParseCallback parse_callback_;
 114:../DaisyExamples/libDaisy/src/hid/midi.h **** 
 115:../DaisyExamples/libDaisy/src/hid/midi.h ****     /** Static callback for Uart MIDI that occurs when
 116:../DaisyExamples/libDaisy/src/hid/midi.h ****          *  new data is available from the peripheral.
 117:../DaisyExamples/libDaisy/src/hid/midi.h ****          *  The new data is transferred from the peripheral to the
 118:../DaisyExamples/libDaisy/src/hid/midi.h ****          *  MIDI instance's byte FIFO that feeds the MIDI parser.
 119:../DaisyExamples/libDaisy/src/hid/midi.h ****          *
 120:../DaisyExamples/libDaisy/src/hid/midi.h ****          *  TODO: Handle UartHandler errors better/at all.
 121:../DaisyExamples/libDaisy/src/hid/midi.h ****          *  (If there is a UART error, there's not really any recovery
 122:../DaisyExamples/libDaisy/src/hid/midi.h ****          *  option at the moment)
 123:../DaisyExamples/libDaisy/src/hid/midi.h ****          */
 124:../DaisyExamples/libDaisy/src/hid/midi.h ****     static void rxCallback(uint8_t*            data,
 125:../DaisyExamples/libDaisy/src/hid/midi.h ****                            size_t              size,
 126:../DaisyExamples/libDaisy/src/hid/midi.h ****                            void*               context,
 127:../DaisyExamples/libDaisy/src/hid/midi.h ****                            UartHandler::Result res)
 128:../DaisyExamples/libDaisy/src/hid/midi.h ****     {
 129:../DaisyExamples/libDaisy/src/hid/midi.h ****         /** Read context as transport type */
 130:../DaisyExamples/libDaisy/src/hid/midi.h ****         MidiUartTransport* transport
 131:../DaisyExamples/libDaisy/src/hid/midi.h ****             = reinterpret_cast<MidiUartTransport*>(context);
 132:../DaisyExamples/libDaisy/src/hid/midi.h ****         if(res == UartHandler::Result::OK)
 133:../DaisyExamples/libDaisy/src/hid/midi.h ****         {
 134:../DaisyExamples/libDaisy/src/hid/midi.h ****             if(transport->parse_callback_)
 135:../DaisyExamples/libDaisy/src/hid/midi.h ****             {
 136:../DaisyExamples/libDaisy/src/hid/midi.h ****                 transport->parse_callback_(
 137:../DaisyExamples/libDaisy/src/hid/midi.h ****                     data, size, transport->parse_context_);
 138:../DaisyExamples/libDaisy/src/hid/midi.h ****             }
 139:../DaisyExamples/libDaisy/src/hid/midi.h ****         }
 140:../DaisyExamples/libDaisy/src/hid/midi.h ****     }
 141:../DaisyExamples/libDaisy/src/hid/midi.h **** };
 142:../DaisyExamples/libDaisy/src/hid/midi.h **** 
 143:../DaisyExamples/libDaisy/src/hid/midi.h **** /**
 144:../DaisyExamples/libDaisy/src/hid/midi.h ****     @brief Simple MIDI Handler \n
 145:../DaisyExamples/libDaisy/src/hid/midi.h ****     Parses bytes from an input into valid MidiEvents. \n
 146:../DaisyExamples/libDaisy/src/hid/midi.h ****     The MidiEvents fill a FIFO queue that the user can pop messages from.
 147:../DaisyExamples/libDaisy/src/hid/midi.h ****     @author shensley
 148:../DaisyExamples/libDaisy/src/hid/midi.h ****     @date March 2020
 149:../DaisyExamples/libDaisy/src/hid/midi.h ****     @ingroup midi
 150:../DaisyExamples/libDaisy/src/hid/midi.h **** */
 151:../DaisyExamples/libDaisy/src/hid/midi.h **** template <typename Transport>
 152:../DaisyExamples/libDaisy/src/hid/midi.h **** class MidiHandler
 153:../DaisyExamples/libDaisy/src/hid/midi.h **** {
 154:../DaisyExamples/libDaisy/src/hid/midi.h ****   public:
 155:../DaisyExamples/libDaisy/src/hid/midi.h ****     MidiHandler() {}
 156:../DaisyExamples/libDaisy/src/hid/midi.h ****     ~MidiHandler() {}
 157:../DaisyExamples/libDaisy/src/hid/midi.h **** 
 158:../DaisyExamples/libDaisy/src/hid/midi.h ****     struct Config
 159:../DaisyExamples/libDaisy/src/hid/midi.h ****     {
 160:../DaisyExamples/libDaisy/src/hid/midi.h ****         typename Transport::Config transport_config;
 161:../DaisyExamples/libDaisy/src/hid/midi.h ****     };
 162:../DaisyExamples/libDaisy/src/hid/midi.h **** 
 163:../DaisyExamples/libDaisy/src/hid/midi.h ****     /** Initializes the MidiHandler
 164:../DaisyExamples/libDaisy/src/hid/midi.h ****      *  \param config Configuration structure used to define specifics to the MIDI Handler.
 165:../DaisyExamples/libDaisy/src/hid/midi.h ****      */
 166:../DaisyExamples/libDaisy/src/hid/midi.h ****     void Init(Config config)
ARM GAS  C:\Users\Marco\AppData\Local\Temp\ccVZoccs.s 			page 15


 167:../DaisyExamples/libDaisy/src/hid/midi.h ****     {
 168:../DaisyExamples/libDaisy/src/hid/midi.h ****         config_ = config;
 169:../DaisyExamples/libDaisy/src/hid/midi.h ****         transport_.Init(config_.transport_config);
 170:../DaisyExamples/libDaisy/src/hid/midi.h ****         parser_.Init();
 171:../DaisyExamples/libDaisy/src/hid/midi.h ****     }
 172:../DaisyExamples/libDaisy/src/hid/midi.h **** 
 173:../DaisyExamples/libDaisy/src/hid/midi.h ****     /** Starts listening on the selected input mode(s).
 174:../DaisyExamples/libDaisy/src/hid/midi.h ****      * MidiEvent Queue will begin to fill, and can be checked with HasEvents() */
 175:../DaisyExamples/libDaisy/src/hid/midi.h ****     void StartReceive()
 176:../DaisyExamples/libDaisy/src/hid/midi.h ****     {
 177:../DaisyExamples/libDaisy/src/hid/midi.h ****         transport_.StartRx(MidiHandler::ParseCallback, this);
 178:../DaisyExamples/libDaisy/src/hid/midi.h ****     }
 179:../DaisyExamples/libDaisy/src/hid/midi.h **** 
 180:../DaisyExamples/libDaisy/src/hid/midi.h ****     /** Start listening */
 181:../DaisyExamples/libDaisy/src/hid/midi.h ****     void Listen()
 182:../DaisyExamples/libDaisy/src/hid/midi.h ****     {
 183:../DaisyExamples/libDaisy/src/hid/midi.h ****         // In case of UART Error, (particularly
 184:../DaisyExamples/libDaisy/src/hid/midi.h ****         //  overrun error), UART disables itself.
 185:../DaisyExamples/libDaisy/src/hid/midi.h ****         // Flush the buff, and restart.
 186:../DaisyExamples/libDaisy/src/hid/midi.h ****         if(!transport_.RxActive())
 187:../DaisyExamples/libDaisy/src/hid/midi.h ****         {
 188:../DaisyExamples/libDaisy/src/hid/midi.h ****             parser_.Reset();
 189:../DaisyExamples/libDaisy/src/hid/midi.h ****             transport_.FlushRx();
 190:../DaisyExamples/libDaisy/src/hid/midi.h ****             StartReceive();
 191:../DaisyExamples/libDaisy/src/hid/midi.h ****         }
 192:../DaisyExamples/libDaisy/src/hid/midi.h ****     }
 193:../DaisyExamples/libDaisy/src/hid/midi.h **** 
 194:../DaisyExamples/libDaisy/src/hid/midi.h ****     /** Checks if there are unhandled messages in the queue
 195:../DaisyExamples/libDaisy/src/hid/midi.h ****     \return True if there are events to be handled, else false.
 196:../DaisyExamples/libDaisy/src/hid/midi.h ****      */
 197:../DaisyExamples/libDaisy/src/hid/midi.h ****     bool HasEvents() const { return event_q_.GetNumElements() > 0; }
 198:../DaisyExamples/libDaisy/src/hid/midi.h **** 
 199:../DaisyExamples/libDaisy/src/hid/midi.h **** 
 200:../DaisyExamples/libDaisy/src/hid/midi.h ****     /** Pops the oldest unhandled MidiEvent from the internal queue
 201:../DaisyExamples/libDaisy/src/hid/midi.h ****     \return The event to be handled
 202:../DaisyExamples/libDaisy/src/hid/midi.h ****      */
 203:../DaisyExamples/libDaisy/src/hid/midi.h ****     MidiEvent PopEvent() { return event_q_.PopFront(); }
 204:../DaisyExamples/libDaisy/src/hid/midi.h **** 
 205:../DaisyExamples/libDaisy/src/hid/midi.h ****     /** SendMessage
 206:../DaisyExamples/libDaisy/src/hid/midi.h ****     Send raw bytes as message
 207:../DaisyExamples/libDaisy/src/hid/midi.h ****     */
 208:../DaisyExamples/libDaisy/src/hid/midi.h ****     void SendMessage(uint8_t* bytes, size_t size)
 122              		.loc 2 208 10 view .LVU30
 123              	.LBB330:
 124              	.LBI330:
 106:../DaisyExamples/libDaisy/src/hid/midi.h **** 
 125              		.loc 2 106 17 view .LVU31
 126              	.LBB331:
 106:../DaisyExamples/libDaisy/src/hid/midi.h **** 
 127              		.loc 2 106 50 view .LVU32
 106:../DaisyExamples/libDaisy/src/hid/midi.h **** 
 128              		.loc 2 106 62 is_stmt 0 view .LVU33
 129 004c 0222     		movs	r2, #2
 130 004e 01A9     		add	r1, sp, #4
 131              	.LVL7:
 106:../DaisyExamples/libDaisy/src/hid/midi.h **** 
 132              		.loc 2 106 62 view .LVU34
ARM GAS  C:\Users\Marco\AppData\Local\Temp\ccVZoccs.s 			page 16


 133 0050 06F11800 		add	r0, r6, #24
 134 0054 FFF7FEFF 		bl	_ZN5daisy11UartHandler6PollTxEPhj
 135              	.LVL8:
 106:../DaisyExamples/libDaisy/src/hid/midi.h **** 
 136              		.loc 2 106 62 view .LVU35
 137              	.LBE331:
 138              	.LBE330:
 139              	.LBE329:
 421:MidiController.cpp **** 
 140              		.loc 1 421 1 view .LVU36
 141 0058 E7E7     		b	.L3
 142              	.LVL9:
 143              	.L12:
 421:MidiController.cpp **** 
 144              		.loc 1 421 1 view .LVU37
 145              	.LBE328:
 146              	.LBE327:
 321:MidiController.cpp ****         }
 147              		.loc 1 321 13 is_stmt 1 view .LVU38
 148              	.LBB332:
 149              	.LBI332:
 414:MidiController.cpp ****     usbMidi_.SendMessage(data, length);
 150              		.loc 1 414 6 view .LVU39
 151              	.LBB333:
 415:MidiController.cpp ****     // Note: SendMessage returns void, no error checking available
 152              		.loc 1 415 5 view .LVU40
 153              	.LBB334:
 154              	.LBI334:
 155              		.loc 2 208 10 view .LVU41
 156              	.LBB335:
 209:../DaisyExamples/libDaisy/src/hid/midi.h ****     {
 210:../DaisyExamples/libDaisy/src/hid/midi.h ****         transport_.Tx(bytes, size);
 157              		.loc 2 210 22 is_stmt 0 view .LVU42
 158 005a 49F26C10 		movw	r0, #37228
 159              	.LVL10:
 160              		.loc 2 210 22 view .LVU43
 161 005e 0222     		movs	r2, #2
 162 0060 01A9     		add	r1, sp, #4
 163              	.LVL11:
 164              		.loc 2 210 22 view .LVU44
 165 0062 3044     		add	r0, r0, r6
 166 0064 FFF7FEFF 		bl	_ZN5daisy16MidiUsbTransport2TxEPhj
 167              	.LVL12:
 168              		.loc 2 210 22 view .LVU45
 169              	.LBE335:
 170              	.LBE334:
 171              	.LBE333:
 172              	.LBE332:
 326:MidiController.cpp ****         if (uartConnected_) {
 173              		.loc 1 326 9 view .LVU46
 174 0068 94F8AD32 		ldrb	r3, [r4, #685]	@ zero_extendqisi2
 175              	.LBB337:
 176              	.LBB336:
 417:MidiController.cpp **** 
 177              		.loc 1 417 1 view .LVU47
 178 006c DAE7     		b	.L2
 179              	.LBE336:
ARM GAS  C:\Users\Marco\AppData\Local\Temp\ccVZoccs.s 			page 17


 180              	.LBE337:
 181              		.cfi_endproc
 182              	.LFE2681:
 184 006e 00BF     		.section	.text._ZN14MidiControllerC2Ev,"ax",%progbits
 185              		.align	1
 186              		.p2align 2,,3
 187              		.global	_ZN14MidiControllerC2Ev
 188              		.syntax unified
 189              		.thumb
 190              		.thumb_func
 191              		.fpu fpv5-d16
 193              	_ZN14MidiControllerC2Ev:
 194              	.LVL13:
 195              	.LFB2561:
   4:MidiController.cpp ****     : hardware_(nullptr), config_(nullptr), midiChannel_(1), 
 196              		.loc 1 4 1 is_stmt 1 view -0
 197              		.cfi_startproc
 198              		@ args = 0, pretend = 0, frame = 0
 199              		@ frame_needed = 0, uses_anonymous_args = 0
   4:MidiController.cpp ****     : hardware_(nullptr), config_(nullptr), midiChannel_(1), 
 200              		.loc 1 4 1 is_stmt 0 view .LVU49
 201 0000 F8B5     		push	{r3, r4, r5, r6, r7, lr}
 202              		.cfi_def_cfa_offset 24
 203              		.cfi_offset 3, -24
 204              		.cfi_offset 4, -20
 205              		.cfi_offset 5, -16
 206              		.cfi_offset 6, -12
 207              		.cfi_offset 7, -8
 208              		.cfi_offset 14, -4
 209              	.LBB376:
  10:MidiController.cpp ****     
 210              		.loc 1 10 26 view .LVU50
 211 0002 0025     		movs	r5, #0
 212              	.LBE376:
   4:MidiController.cpp ****     : hardware_(nullptr), config_(nullptr), midiChannel_(1), 
 213              		.loc 1 4 1 view .LVU51
 214 0004 0446     		mov	r4, r0
 215              	.LBB450:
 216              	.LBB377:
 217              	.LBB378:
 218              	.LBB379:
 158:../DaisyExamples/libDaisy/src/hid/midi.h ****     {
 219              		.loc 2 158 12 view .LVU52
 220 0006 0830     		adds	r0, r0, #8
 221              	.LVL14:
 158:../DaisyExamples/libDaisy/src/hid/midi.h ****     {
 222              		.loc 2 158 12 view .LVU53
 223              	.LBE379:
 224              	.LBE378:
 225              	.LBB381:
 226              	.LBB382:
 227              	.LBB383:
 228              	.LBB384:
 229              		.file 3 "../DaisyExamples/libDaisy/src/util/FIFO.h"
   1:../DaisyExamples/libDaisy/src/util/FIFO.h **** #pragma once
   2:../DaisyExamples/libDaisy/src/util/FIFO.h **** 
   3:../DaisyExamples/libDaisy/src/util/FIFO.h **** #include <stdint.h>
ARM GAS  C:\Users\Marco\AppData\Local\Temp\ccVZoccs.s 			page 18


   4:../DaisyExamples/libDaisy/src/util/FIFO.h **** #include <stddef.h>
   5:../DaisyExamples/libDaisy/src/util/FIFO.h **** #include <initializer_list>
   6:../DaisyExamples/libDaisy/src/util/FIFO.h **** 
   7:../DaisyExamples/libDaisy/src/util/FIFO.h **** namespace daisy
   8:../DaisyExamples/libDaisy/src/util/FIFO.h **** {
   9:../DaisyExamples/libDaisy/src/util/FIFO.h **** /** Capacity-independent base class for FIFO. Use FIFO instead. */
  10:../DaisyExamples/libDaisy/src/util/FIFO.h **** template <typename T>
  11:../DaisyExamples/libDaisy/src/util/FIFO.h **** class FIFOBase
  12:../DaisyExamples/libDaisy/src/util/FIFO.h **** {
  13:../DaisyExamples/libDaisy/src/util/FIFO.h ****   protected:
  14:../DaisyExamples/libDaisy/src/util/FIFO.h ****     FIFOBase(T* buffer, size_t bufferSize)
  15:../DaisyExamples/libDaisy/src/util/FIFO.h ****     : buffer_(buffer), bufferSize_(bufferSize), bufferIn_(0), bufferOut_(0)
 230              		.loc 3 15 75 view .LVU54
 231 0008 40F20116 		movw	r6, #257
 232              	.LBE384:
 233              	.LBE383:
  16:../DaisyExamples/libDaisy/src/util/FIFO.h ****     {
  17:../DaisyExamples/libDaisy/src/util/FIFO.h ****     }
  18:../DaisyExamples/libDaisy/src/util/FIFO.h **** 
  19:../DaisyExamples/libDaisy/src/util/FIFO.h ****     FIFOBase(T* buffer, size_t bufferSize, std::initializer_list<T> valuesToAdd)
  20:../DaisyExamples/libDaisy/src/util/FIFO.h ****     : buffer_(buffer), bufferSize_(bufferSize), bufferIn_(0), bufferOut_(0)
  21:../DaisyExamples/libDaisy/src/util/FIFO.h ****     {
  22:../DaisyExamples/libDaisy/src/util/FIFO.h ****         PushBack(valuesToAdd);
  23:../DaisyExamples/libDaisy/src/util/FIFO.h ****     }
  24:../DaisyExamples/libDaisy/src/util/FIFO.h **** 
  25:../DaisyExamples/libDaisy/src/util/FIFO.h ****   public:
  26:../DaisyExamples/libDaisy/src/util/FIFO.h ****     /** Copies all elements from another FIFO */
  27:../DaisyExamples/libDaisy/src/util/FIFO.h ****     FIFOBase<T>& operator=(const FIFOBase<T>& other)
  28:../DaisyExamples/libDaisy/src/util/FIFO.h ****     {
  29:../DaisyExamples/libDaisy/src/util/FIFO.h ****         bufferIn_ = bufferOut_ = 0;
  30:../DaisyExamples/libDaisy/src/util/FIFO.h ****         if(!other.IsEmpty())
  31:../DaisyExamples/libDaisy/src/util/FIFO.h ****         {
  32:../DaisyExamples/libDaisy/src/util/FIFO.h ****             int readPtr = other.bufferOut_;
  33:../DaisyExamples/libDaisy/src/util/FIFO.h ****             while((readPtr != other.bufferIn_) && (bufferIn_ < bufferSize_))
  34:../DaisyExamples/libDaisy/src/util/FIFO.h ****             {
  35:../DaisyExamples/libDaisy/src/util/FIFO.h ****                 buffer_[bufferIn_++] = other.buffer_[readPtr++];
  36:../DaisyExamples/libDaisy/src/util/FIFO.h ****                 if(readPtr >= other.bufferSize_)
  37:../DaisyExamples/libDaisy/src/util/FIFO.h ****                     readPtr -= other.bufferSize_;
  38:../DaisyExamples/libDaisy/src/util/FIFO.h ****             }
  39:../DaisyExamples/libDaisy/src/util/FIFO.h ****         }
  40:../DaisyExamples/libDaisy/src/util/FIFO.h ****         return *this;
  41:../DaisyExamples/libDaisy/src/util/FIFO.h ****     }
  42:../DaisyExamples/libDaisy/src/util/FIFO.h ****     ~FIFOBase() {}
  43:../DaisyExamples/libDaisy/src/util/FIFO.h **** 
  44:../DaisyExamples/libDaisy/src/util/FIFO.h ****     /** Removes all elements from the FIFO */
  45:../DaisyExamples/libDaisy/src/util/FIFO.h ****     void Clear() { bufferIn_ = bufferOut_ = 0; }
  46:../DaisyExamples/libDaisy/src/util/FIFO.h **** 
  47:../DaisyExamples/libDaisy/src/util/FIFO.h ****     /** Adds an element to the back of the buffer, returning true on
  48:../DaisyExamples/libDaisy/src/util/FIFO.h ****         success */
  49:../DaisyExamples/libDaisy/src/util/FIFO.h ****     bool PushBack(const T& elementToAdd)
  50:../DaisyExamples/libDaisy/src/util/FIFO.h ****     {
  51:../DaisyExamples/libDaisy/src/util/FIFO.h ****         if(!IsFull())
  52:../DaisyExamples/libDaisy/src/util/FIFO.h ****         {
  53:../DaisyExamples/libDaisy/src/util/FIFO.h ****             buffer_[bufferIn_++] = elementToAdd;
  54:../DaisyExamples/libDaisy/src/util/FIFO.h ****             if(bufferIn_ >= bufferSize_)
  55:../DaisyExamples/libDaisy/src/util/FIFO.h ****                 bufferIn_ -= bufferSize_;
  56:../DaisyExamples/libDaisy/src/util/FIFO.h ****             return true;
ARM GAS  C:\Users\Marco\AppData\Local\Temp\ccVZoccs.s 			page 19


  57:../DaisyExamples/libDaisy/src/util/FIFO.h ****         }
  58:../DaisyExamples/libDaisy/src/util/FIFO.h ****         return false;
  59:../DaisyExamples/libDaisy/src/util/FIFO.h ****     }
  60:../DaisyExamples/libDaisy/src/util/FIFO.h **** 
  61:../DaisyExamples/libDaisy/src/util/FIFO.h ****     /** Adds multiple elements and returns the number of elements that were added */
  62:../DaisyExamples/libDaisy/src/util/FIFO.h ****     int PushBack(std::initializer_list<T> valuesToAdd)
  63:../DaisyExamples/libDaisy/src/util/FIFO.h ****     {
  64:../DaisyExamples/libDaisy/src/util/FIFO.h ****         int numAdded = 0;
  65:../DaisyExamples/libDaisy/src/util/FIFO.h ****         for(const auto& v : valuesToAdd)
  66:../DaisyExamples/libDaisy/src/util/FIFO.h ****         {
  67:../DaisyExamples/libDaisy/src/util/FIFO.h ****             if(IsFull())
  68:../DaisyExamples/libDaisy/src/util/FIFO.h ****                 return numAdded;
  69:../DaisyExamples/libDaisy/src/util/FIFO.h **** 
  70:../DaisyExamples/libDaisy/src/util/FIFO.h ****             PushBack(v);
  71:../DaisyExamples/libDaisy/src/util/FIFO.h ****             numAdded++;
  72:../DaisyExamples/libDaisy/src/util/FIFO.h ****         }
  73:../DaisyExamples/libDaisy/src/util/FIFO.h ****         return numAdded;
  74:../DaisyExamples/libDaisy/src/util/FIFO.h ****     }
  75:../DaisyExamples/libDaisy/src/util/FIFO.h **** 
  76:../DaisyExamples/libDaisy/src/util/FIFO.h ****     /** returns a reference to the last element */
  77:../DaisyExamples/libDaisy/src/util/FIFO.h ****     T& Back()
  78:../DaisyExamples/libDaisy/src/util/FIFO.h ****     {
  79:../DaisyExamples/libDaisy/src/util/FIFO.h ****         if(IsEmpty())
  80:../DaisyExamples/libDaisy/src/util/FIFO.h ****             // invalid, but better not pass a temporary T() object as a reference...
  81:../DaisyExamples/libDaisy/src/util/FIFO.h ****             return buffer_[0];
  82:../DaisyExamples/libDaisy/src/util/FIFO.h ****         int idx = bufferIn_ - 1;
  83:../DaisyExamples/libDaisy/src/util/FIFO.h ****         if(idx < 0)
  84:../DaisyExamples/libDaisy/src/util/FIFO.h ****             idx += bufferSize_;
  85:../DaisyExamples/libDaisy/src/util/FIFO.h ****         return buffer_[idx];
  86:../DaisyExamples/libDaisy/src/util/FIFO.h ****     }
  87:../DaisyExamples/libDaisy/src/util/FIFO.h **** 
  88:../DaisyExamples/libDaisy/src/util/FIFO.h ****     /** returns a reference to the last element */
  89:../DaisyExamples/libDaisy/src/util/FIFO.h ****     const T& Back() const
  90:../DaisyExamples/libDaisy/src/util/FIFO.h ****     {
  91:../DaisyExamples/libDaisy/src/util/FIFO.h ****         if(IsEmpty())
  92:../DaisyExamples/libDaisy/src/util/FIFO.h ****             // invalid, but better not pass a temporary T() object as a reference...
  93:../DaisyExamples/libDaisy/src/util/FIFO.h ****             return buffer_[0];
  94:../DaisyExamples/libDaisy/src/util/FIFO.h ****         int idx = bufferIn_ - 1;
  95:../DaisyExamples/libDaisy/src/util/FIFO.h ****         if(idx < 0)
  96:../DaisyExamples/libDaisy/src/util/FIFO.h ****             idx += bufferSize_;
  97:../DaisyExamples/libDaisy/src/util/FIFO.h ****         return buffer_[idx];
  98:../DaisyExamples/libDaisy/src/util/FIFO.h ****     }
  99:../DaisyExamples/libDaisy/src/util/FIFO.h **** 
 100:../DaisyExamples/libDaisy/src/util/FIFO.h ****     /** removes and returns an element from the front of the buffer */
 101:../DaisyExamples/libDaisy/src/util/FIFO.h ****     T PopFront()
 102:../DaisyExamples/libDaisy/src/util/FIFO.h ****     {
 103:../DaisyExamples/libDaisy/src/util/FIFO.h ****         if(IsEmpty())
 104:../DaisyExamples/libDaisy/src/util/FIFO.h ****             return T();
 105:../DaisyExamples/libDaisy/src/util/FIFO.h ****         else
 106:../DaisyExamples/libDaisy/src/util/FIFO.h ****         {
 107:../DaisyExamples/libDaisy/src/util/FIFO.h ****             const auto result = buffer_[bufferOut_];
 108:../DaisyExamples/libDaisy/src/util/FIFO.h ****             bufferOut_++;
 109:../DaisyExamples/libDaisy/src/util/FIFO.h ****             if(bufferOut_ >= bufferSize_)
 110:../DaisyExamples/libDaisy/src/util/FIFO.h ****                 bufferOut_ -= bufferSize_;
 111:../DaisyExamples/libDaisy/src/util/FIFO.h ****             return result;
 112:../DaisyExamples/libDaisy/src/util/FIFO.h ****         }
 113:../DaisyExamples/libDaisy/src/util/FIFO.h ****     }
ARM GAS  C:\Users\Marco\AppData\Local\Temp\ccVZoccs.s 			page 20


 114:../DaisyExamples/libDaisy/src/util/FIFO.h **** 
 115:../DaisyExamples/libDaisy/src/util/FIFO.h ****     /** returns a copy of the first element */
 116:../DaisyExamples/libDaisy/src/util/FIFO.h ****     T& Front()
 117:../DaisyExamples/libDaisy/src/util/FIFO.h ****     {
 118:../DaisyExamples/libDaisy/src/util/FIFO.h ****         if(IsEmpty())
 119:../DaisyExamples/libDaisy/src/util/FIFO.h ****             // invalid, but better not pass a temporary T() object as a reference...
 120:../DaisyExamples/libDaisy/src/util/FIFO.h ****             return buffer_[0];
 121:../DaisyExamples/libDaisy/src/util/FIFO.h ****         return buffer_[bufferOut_];
 122:../DaisyExamples/libDaisy/src/util/FIFO.h ****     }
 123:../DaisyExamples/libDaisy/src/util/FIFO.h **** 
 124:../DaisyExamples/libDaisy/src/util/FIFO.h ****     /** returns a reference to the first element */
 125:../DaisyExamples/libDaisy/src/util/FIFO.h ****     const T& Front() const
 126:../DaisyExamples/libDaisy/src/util/FIFO.h ****     {
 127:../DaisyExamples/libDaisy/src/util/FIFO.h ****         if(IsEmpty())
 128:../DaisyExamples/libDaisy/src/util/FIFO.h ****             // invalid, but better not pass a temporary T() object as a reference...
 129:../DaisyExamples/libDaisy/src/util/FIFO.h ****             return buffer_[0];
 130:../DaisyExamples/libDaisy/src/util/FIFO.h ****         return buffer_[bufferOut_];
 131:../DaisyExamples/libDaisy/src/util/FIFO.h ****     }
 132:../DaisyExamples/libDaisy/src/util/FIFO.h **** 
 133:../DaisyExamples/libDaisy/src/util/FIFO.h ****     /** Returns true if the buffer contains an element equal to the provided value */
 134:../DaisyExamples/libDaisy/src/util/FIFO.h ****     bool Contains(const T& element)
 135:../DaisyExamples/libDaisy/src/util/FIFO.h ****     {
 136:../DaisyExamples/libDaisy/src/util/FIFO.h ****         auto idx = bufferOut_;
 137:../DaisyExamples/libDaisy/src/util/FIFO.h ****         while(idx != bufferIn_)
 138:../DaisyExamples/libDaisy/src/util/FIFO.h ****         {
 139:../DaisyExamples/libDaisy/src/util/FIFO.h ****             if(buffer_[idx] == element)
 140:../DaisyExamples/libDaisy/src/util/FIFO.h ****                 return true;
 141:../DaisyExamples/libDaisy/src/util/FIFO.h ****             idx++;
 142:../DaisyExamples/libDaisy/src/util/FIFO.h ****             if(idx >= bufferSize_)
 143:../DaisyExamples/libDaisy/src/util/FIFO.h ****                 idx -= bufferSize_;
 144:../DaisyExamples/libDaisy/src/util/FIFO.h ****         }
 145:../DaisyExamples/libDaisy/src/util/FIFO.h ****         return false;
 146:../DaisyExamples/libDaisy/src/util/FIFO.h ****     }
 147:../DaisyExamples/libDaisy/src/util/FIFO.h **** 
 148:../DaisyExamples/libDaisy/src/util/FIFO.h ****     /** Returns the number of elements in the buffer that are equal to the provided value */
 149:../DaisyExamples/libDaisy/src/util/FIFO.h ****     size_t CountEqualTo(const T& element)
 150:../DaisyExamples/libDaisy/src/util/FIFO.h ****     {
 151:../DaisyExamples/libDaisy/src/util/FIFO.h ****         size_t result = 0;
 152:../DaisyExamples/libDaisy/src/util/FIFO.h ****         size_t idx    = bufferOut_;
 153:../DaisyExamples/libDaisy/src/util/FIFO.h ****         while(idx != bufferIn_)
 154:../DaisyExamples/libDaisy/src/util/FIFO.h ****         {
 155:../DaisyExamples/libDaisy/src/util/FIFO.h ****             if(buffer_[idx] == element)
 156:../DaisyExamples/libDaisy/src/util/FIFO.h ****                 result++;
 157:../DaisyExamples/libDaisy/src/util/FIFO.h ****             idx++;
 158:../DaisyExamples/libDaisy/src/util/FIFO.h ****             if(idx >= bufferSize_)
 159:../DaisyExamples/libDaisy/src/util/FIFO.h ****                 idx -= bufferSize_;
 160:../DaisyExamples/libDaisy/src/util/FIFO.h ****         }
 161:../DaisyExamples/libDaisy/src/util/FIFO.h ****         return result;
 162:../DaisyExamples/libDaisy/src/util/FIFO.h ****     }
 163:../DaisyExamples/libDaisy/src/util/FIFO.h **** 
 164:../DaisyExamples/libDaisy/src/util/FIFO.h ****     /** returns true, if the buffer is empty */
 165:../DaisyExamples/libDaisy/src/util/FIFO.h ****     bool IsEmpty() const { return bufferIn_ == bufferOut_; }
 166:../DaisyExamples/libDaisy/src/util/FIFO.h **** 
 167:../DaisyExamples/libDaisy/src/util/FIFO.h ****     /** returns true, if the buffer is Full */
 168:../DaisyExamples/libDaisy/src/util/FIFO.h ****     bool IsFull() const { return GetNumElements() == bufferSize_ - 1; }
 169:../DaisyExamples/libDaisy/src/util/FIFO.h **** 
 170:../DaisyExamples/libDaisy/src/util/FIFO.h ****     /** returns the number of elements in the buffer */
ARM GAS  C:\Users\Marco\AppData\Local\Temp\ccVZoccs.s 			page 21


 171:../DaisyExamples/libDaisy/src/util/FIFO.h ****     size_t GetNumElements() const
 172:../DaisyExamples/libDaisy/src/util/FIFO.h ****     {
 173:../DaisyExamples/libDaisy/src/util/FIFO.h ****         int32_t numElements = bufferIn_ - bufferOut_;
 174:../DaisyExamples/libDaisy/src/util/FIFO.h ****         if(numElements < 0)
 175:../DaisyExamples/libDaisy/src/util/FIFO.h ****             numElements += bufferSize_;
 176:../DaisyExamples/libDaisy/src/util/FIFO.h ****         return size_t(numElements);
 177:../DaisyExamples/libDaisy/src/util/FIFO.h ****     }
 178:../DaisyExamples/libDaisy/src/util/FIFO.h **** 
 179:../DaisyExamples/libDaisy/src/util/FIFO.h ****     /** inserts an element "idx" positions behind the first element and returns true if successful 
 180:../DaisyExamples/libDaisy/src/util/FIFO.h ****     bool Insert(size_t idx, const T& element)
 181:../DaisyExamples/libDaisy/src/util/FIFO.h ****     {
 182:../DaisyExamples/libDaisy/src/util/FIFO.h ****         if(idx > GetNumElements())
 183:../DaisyExamples/libDaisy/src/util/FIFO.h ****             return false;
 184:../DaisyExamples/libDaisy/src/util/FIFO.h ****         if(IsFull())
 185:../DaisyExamples/libDaisy/src/util/FIFO.h ****             return false;
 186:../DaisyExamples/libDaisy/src/util/FIFO.h ****         if(idx == GetNumElements())
 187:../DaisyExamples/libDaisy/src/util/FIFO.h ****         {
 188:../DaisyExamples/libDaisy/src/util/FIFO.h ****             PushBack(element);
 189:../DaisyExamples/libDaisy/src/util/FIFO.h ****             return true;
 190:../DaisyExamples/libDaisy/src/util/FIFO.h ****         }
 191:../DaisyExamples/libDaisy/src/util/FIFO.h ****         // copy last element
 192:../DaisyExamples/libDaisy/src/util/FIFO.h ****         PushBack(Back());
 193:../DaisyExamples/libDaisy/src/util/FIFO.h ****         // move remaining elements: n => n+1
 194:../DaisyExamples/libDaisy/src/util/FIFO.h ****         for(int i = GetNumElements() - 2; i > int(idx); i--)
 195:../DaisyExamples/libDaisy/src/util/FIFO.h ****             (*this)[i] = (*this)[i - 1];
 196:../DaisyExamples/libDaisy/src/util/FIFO.h ****         // insert element
 197:../DaisyExamples/libDaisy/src/util/FIFO.h ****         (*this)[idx] = element;
 198:../DaisyExamples/libDaisy/src/util/FIFO.h ****         return true;
 199:../DaisyExamples/libDaisy/src/util/FIFO.h ****     }
 200:../DaisyExamples/libDaisy/src/util/FIFO.h **** 
 201:../DaisyExamples/libDaisy/src/util/FIFO.h ****     /** removes the element "idx" positions behind the first element 
 202:../DaisyExamples/libDaisy/src/util/FIFO.h ****      *  and returns true if successful */
 203:../DaisyExamples/libDaisy/src/util/FIFO.h ****     bool Remove(size_t idx)
 204:../DaisyExamples/libDaisy/src/util/FIFO.h ****     {
 205:../DaisyExamples/libDaisy/src/util/FIFO.h ****         if(idx >= GetNumElements())
 206:../DaisyExamples/libDaisy/src/util/FIFO.h ****             return false;
 207:../DaisyExamples/libDaisy/src/util/FIFO.h **** 
 208:../DaisyExamples/libDaisy/src/util/FIFO.h ****         size_t index = bufferOut_ + idx;
 209:../DaisyExamples/libDaisy/src/util/FIFO.h ****         if(index >= bufferSize_)
 210:../DaisyExamples/libDaisy/src/util/FIFO.h ****             index -= bufferSize_;
 211:../DaisyExamples/libDaisy/src/util/FIFO.h ****         size_t nextIndex = index + 1;
 212:../DaisyExamples/libDaisy/src/util/FIFO.h ****         if(nextIndex >= bufferSize_)
 213:../DaisyExamples/libDaisy/src/util/FIFO.h ****             nextIndex -= bufferSize_;
 214:../DaisyExamples/libDaisy/src/util/FIFO.h **** 
 215:../DaisyExamples/libDaisy/src/util/FIFO.h ****         while(nextIndex != bufferIn_)
 216:../DaisyExamples/libDaisy/src/util/FIFO.h ****         {
 217:../DaisyExamples/libDaisy/src/util/FIFO.h ****             buffer_[index] = buffer_[nextIndex];
 218:../DaisyExamples/libDaisy/src/util/FIFO.h ****             index++;
 219:../DaisyExamples/libDaisy/src/util/FIFO.h ****             nextIndex++;
 220:../DaisyExamples/libDaisy/src/util/FIFO.h ****             if(index >= bufferSize_)
 221:../DaisyExamples/libDaisy/src/util/FIFO.h ****                 index -= bufferSize_;
 222:../DaisyExamples/libDaisy/src/util/FIFO.h ****             if(nextIndex >= bufferSize_)
 223:../DaisyExamples/libDaisy/src/util/FIFO.h ****                 nextIndex -= bufferSize_;
 224:../DaisyExamples/libDaisy/src/util/FIFO.h ****         }
 225:../DaisyExamples/libDaisy/src/util/FIFO.h **** 
 226:../DaisyExamples/libDaisy/src/util/FIFO.h ****         int32_t nextBufferIn = int32_t(bufferIn_) - 1;
 227:../DaisyExamples/libDaisy/src/util/FIFO.h ****         if(nextBufferIn < 0)
ARM GAS  C:\Users\Marco\AppData\Local\Temp\ccVZoccs.s 			page 22


 228:../DaisyExamples/libDaisy/src/util/FIFO.h ****             nextBufferIn += bufferSize_;
 229:../DaisyExamples/libDaisy/src/util/FIFO.h ****         bufferIn_ = size_t(nextBufferIn);
 230:../DaisyExamples/libDaisy/src/util/FIFO.h **** 
 231:../DaisyExamples/libDaisy/src/util/FIFO.h ****         return true;
 232:../DaisyExamples/libDaisy/src/util/FIFO.h ****     }
 233:../DaisyExamples/libDaisy/src/util/FIFO.h **** 
 234:../DaisyExamples/libDaisy/src/util/FIFO.h ****     /** removes all elements from the buffer for which
 235:../DaisyExamples/libDaisy/src/util/FIFO.h ****         (buffer(index) == element) returns true and returns the number of
 236:../DaisyExamples/libDaisy/src/util/FIFO.h ****         elements that were removed. */
 237:../DaisyExamples/libDaisy/src/util/FIFO.h ****     size_t RemoveAllEqualTo(const T& element)
 238:../DaisyExamples/libDaisy/src/util/FIFO.h ****     {
 239:../DaisyExamples/libDaisy/src/util/FIFO.h ****         size_t numRemoved = 0;
 240:../DaisyExamples/libDaisy/src/util/FIFO.h ****         int    idx        = GetNumElements() - 1;
 241:../DaisyExamples/libDaisy/src/util/FIFO.h ****         while(idx >= 0)
 242:../DaisyExamples/libDaisy/src/util/FIFO.h ****         {
 243:../DaisyExamples/libDaisy/src/util/FIFO.h ****             if((*this)[idx] == element)
 244:../DaisyExamples/libDaisy/src/util/FIFO.h ****             {
 245:../DaisyExamples/libDaisy/src/util/FIFO.h ****                 numRemoved++;
 246:../DaisyExamples/libDaisy/src/util/FIFO.h ****                 Remove(idx);
 247:../DaisyExamples/libDaisy/src/util/FIFO.h ****                 // was that the last element?
 248:../DaisyExamples/libDaisy/src/util/FIFO.h ****                 if(idx == int(GetNumElements()) - 1)
 249:../DaisyExamples/libDaisy/src/util/FIFO.h ****                     idx--;
 250:../DaisyExamples/libDaisy/src/util/FIFO.h ****             }
 251:../DaisyExamples/libDaisy/src/util/FIFO.h ****             else
 252:../DaisyExamples/libDaisy/src/util/FIFO.h ****                 idx--;
 253:../DaisyExamples/libDaisy/src/util/FIFO.h ****         }
 254:../DaisyExamples/libDaisy/src/util/FIFO.h ****         return numRemoved;
 255:../DaisyExamples/libDaisy/src/util/FIFO.h ****     }
 256:../DaisyExamples/libDaisy/src/util/FIFO.h **** 
 257:../DaisyExamples/libDaisy/src/util/FIFO.h ****     /** returns the element "idx" positions behind the first element */
 258:../DaisyExamples/libDaisy/src/util/FIFO.h ****     T& operator[](size_t idx)
 259:../DaisyExamples/libDaisy/src/util/FIFO.h ****     {
 260:../DaisyExamples/libDaisy/src/util/FIFO.h ****         if(idx >= GetNumElements())
 261:../DaisyExamples/libDaisy/src/util/FIFO.h ****             // invalid, but better not pass a temporary T() object as a reference...
 262:../DaisyExamples/libDaisy/src/util/FIFO.h ****             return buffer_[0];
 263:../DaisyExamples/libDaisy/src/util/FIFO.h **** 
 264:../DaisyExamples/libDaisy/src/util/FIFO.h ****         size_t index = bufferOut_ + idx;
 265:../DaisyExamples/libDaisy/src/util/FIFO.h ****         if(index >= bufferSize_)
 266:../DaisyExamples/libDaisy/src/util/FIFO.h ****             index -= bufferSize_;
 267:../DaisyExamples/libDaisy/src/util/FIFO.h ****         return buffer_[index];
 268:../DaisyExamples/libDaisy/src/util/FIFO.h ****     }
 269:../DaisyExamples/libDaisy/src/util/FIFO.h **** 
 270:../DaisyExamples/libDaisy/src/util/FIFO.h ****     /** returns the element "idx" positions behind the first element */
 271:../DaisyExamples/libDaisy/src/util/FIFO.h ****     const T& operator[](size_t idx) const
 272:../DaisyExamples/libDaisy/src/util/FIFO.h ****     {
 273:../DaisyExamples/libDaisy/src/util/FIFO.h ****         if(idx >= GetNumElements())
 274:../DaisyExamples/libDaisy/src/util/FIFO.h ****             // invalid, but better not pass a temporary T() object as a reference...
 275:../DaisyExamples/libDaisy/src/util/FIFO.h ****             return buffer_[0];
 276:../DaisyExamples/libDaisy/src/util/FIFO.h **** 
 277:../DaisyExamples/libDaisy/src/util/FIFO.h ****         size_t index = bufferOut_ + idx;
 278:../DaisyExamples/libDaisy/src/util/FIFO.h ****         if(index >= bufferSize_)
 279:../DaisyExamples/libDaisy/src/util/FIFO.h ****             index -= bufferSize_;
 280:../DaisyExamples/libDaisy/src/util/FIFO.h ****         return buffer_[index];
 281:../DaisyExamples/libDaisy/src/util/FIFO.h ****     }
 282:../DaisyExamples/libDaisy/src/util/FIFO.h **** 
 283:../DaisyExamples/libDaisy/src/util/FIFO.h ****     /** returns the total capacity */
 284:../DaisyExamples/libDaisy/src/util/FIFO.h ****     size_t GetCapacity() const { return bufferSize_ - 1; }
ARM GAS  C:\Users\Marco\AppData\Local\Temp\ccVZoccs.s 			page 23


 285:../DaisyExamples/libDaisy/src/util/FIFO.h **** 
 286:../DaisyExamples/libDaisy/src/util/FIFO.h ****   private:
 287:../DaisyExamples/libDaisy/src/util/FIFO.h ****     FIFOBase(const FIFOBase<T>&) {} // non copyable
 288:../DaisyExamples/libDaisy/src/util/FIFO.h **** 
 289:../DaisyExamples/libDaisy/src/util/FIFO.h ****   private:
 290:../DaisyExamples/libDaisy/src/util/FIFO.h ****     T*           buffer_;
 291:../DaisyExamples/libDaisy/src/util/FIFO.h ****     const size_t bufferSize_;
 292:../DaisyExamples/libDaisy/src/util/FIFO.h ****     size_t       bufferIn_;
 293:../DaisyExamples/libDaisy/src/util/FIFO.h ****     size_t       bufferOut_;
 294:../DaisyExamples/libDaisy/src/util/FIFO.h **** };
 295:../DaisyExamples/libDaisy/src/util/FIFO.h **** 
 296:../DaisyExamples/libDaisy/src/util/FIFO.h **** /** A simple FIFO ring buffer with a fixed size. */
 297:../DaisyExamples/libDaisy/src/util/FIFO.h **** template <typename T, size_t capacity>
 298:../DaisyExamples/libDaisy/src/util/FIFO.h **** class FIFO : public FIFOBase<T>
 299:../DaisyExamples/libDaisy/src/util/FIFO.h **** {
 300:../DaisyExamples/libDaisy/src/util/FIFO.h ****   public:
 301:../DaisyExamples/libDaisy/src/util/FIFO.h ****     /** Creates an empty FIFO */
 302:../DaisyExamples/libDaisy/src/util/FIFO.h ****     FIFO() : FIFOBase<T>(buffer_, capacity + 1) {}
 234              		.loc 3 302 26 view .LVU55
 235 000c 04F1D807 		add	r7, r4, #216
 236              	.LBE382:
 237              	.LBE381:
 238              	.LBE377:
  10:MidiController.cpp ****     
 239              		.loc 1 10 26 view .LVU56
 240 0010 C4E90055 		strd	r5, r5, [r4]
 241              	.LVL15:
 242              	.LBB401:
 243              	.LBI377:
 155:../DaisyExamples/libDaisy/src/hid/midi.h ****     ~MidiHandler() {}
 244              		.loc 2 155 5 is_stmt 1 view .LVU57
 245              	.LBB388:
 246              	.LBI378:
 158:../DaisyExamples/libDaisy/src/hid/midi.h ****     {
 247              		.loc 2 158 12 view .LVU58
 248              	.LBB380:
 249 0014 FFF7FEFF 		bl	_ZN5daisy17MidiUartTransport6ConfigC1Ev
 250              	.LVL16:
 158:../DaisyExamples/libDaisy/src/hid/midi.h ****     {
 251              		.loc 2 158 12 is_stmt 0 view .LVU59
 252              	.LBE380:
 253              	.LBE388:
 254              	.LBB389:
 255              	.LBI389:
  31:../DaisyExamples/libDaisy/src/hid/midi.h ****     ~MidiUartTransport() {}
 256              		.loc 2 31 5 is_stmt 1 view .LVU60
 257              	.LBB390:
 258              	.LBI390:
 259              		.file 4 "../DaisyExamples/libDaisy/src/per/uart.h"
   1:../DaisyExamples/libDaisy/src/per/uart.h **** /* 
   2:../DaisyExamples/libDaisy/src/per/uart.h **** TODO
   3:../DaisyExamples/libDaisy/src/per/uart.h **** - Overflow handling, etc. for Rx Queue.
   4:../DaisyExamples/libDaisy/src/per/uart.h **** */
   5:../DaisyExamples/libDaisy/src/per/uart.h **** 
   6:../DaisyExamples/libDaisy/src/per/uart.h **** #pragma once
   7:../DaisyExamples/libDaisy/src/per/uart.h **** #ifndef DSY_UART_H
   8:../DaisyExamples/libDaisy/src/per/uart.h **** #define DSY_UART_H /**< macro */
ARM GAS  C:\Users\Marco\AppData\Local\Temp\ccVZoccs.s 			page 24


   9:../DaisyExamples/libDaisy/src/per/uart.h **** #include "daisy_core.h"
  10:../DaisyExamples/libDaisy/src/per/uart.h **** 
  11:../DaisyExamples/libDaisy/src/per/uart.h **** 
  12:../DaisyExamples/libDaisy/src/per/uart.h **** namespace daisy
  13:../DaisyExamples/libDaisy/src/per/uart.h **** {
  14:../DaisyExamples/libDaisy/src/per/uart.h **** /** @addtogroup serial
  15:../DaisyExamples/libDaisy/src/per/uart.h ****     @{
  16:../DaisyExamples/libDaisy/src/per/uart.h ****     */
  17:../DaisyExamples/libDaisy/src/per/uart.h **** 
  18:../DaisyExamples/libDaisy/src/per/uart.h **** /** 
  19:../DaisyExamples/libDaisy/src/per/uart.h ****     Uart Peripheral
  20:../DaisyExamples/libDaisy/src/per/uart.h ****     @author shensley
  21:../DaisyExamples/libDaisy/src/per/uart.h ****     @date March 2020
  22:../DaisyExamples/libDaisy/src/per/uart.h ****     */
  23:../DaisyExamples/libDaisy/src/per/uart.h **** class UartHandler
  24:../DaisyExamples/libDaisy/src/per/uart.h **** {
  25:../DaisyExamples/libDaisy/src/per/uart.h ****   public:
  26:../DaisyExamples/libDaisy/src/per/uart.h ****     struct Config
  27:../DaisyExamples/libDaisy/src/per/uart.h ****     {
  28:../DaisyExamples/libDaisy/src/per/uart.h ****         enum class Peripheral
  29:../DaisyExamples/libDaisy/src/per/uart.h ****         {
  30:../DaisyExamples/libDaisy/src/per/uart.h ****             USART_1,
  31:../DaisyExamples/libDaisy/src/per/uart.h ****             USART_2,
  32:../DaisyExamples/libDaisy/src/per/uart.h ****             USART_3,
  33:../DaisyExamples/libDaisy/src/per/uart.h ****             UART_4,
  34:../DaisyExamples/libDaisy/src/per/uart.h ****             UART_5,
  35:../DaisyExamples/libDaisy/src/per/uart.h ****             USART_6,
  36:../DaisyExamples/libDaisy/src/per/uart.h ****             UART_7,
  37:../DaisyExamples/libDaisy/src/per/uart.h ****             UART_8,
  38:../DaisyExamples/libDaisy/src/per/uart.h ****             LPUART_1,
  39:../DaisyExamples/libDaisy/src/per/uart.h ****         };
  40:../DaisyExamples/libDaisy/src/per/uart.h **** 
  41:../DaisyExamples/libDaisy/src/per/uart.h ****         enum class StopBits
  42:../DaisyExamples/libDaisy/src/per/uart.h ****         {
  43:../DaisyExamples/libDaisy/src/per/uart.h ****             BITS_0_5,
  44:../DaisyExamples/libDaisy/src/per/uart.h ****             BITS_1,
  45:../DaisyExamples/libDaisy/src/per/uart.h ****             BITS_1_5,
  46:../DaisyExamples/libDaisy/src/per/uart.h ****             BITS_2,
  47:../DaisyExamples/libDaisy/src/per/uart.h ****         };
  48:../DaisyExamples/libDaisy/src/per/uart.h **** 
  49:../DaisyExamples/libDaisy/src/per/uart.h ****         enum class Parity
  50:../DaisyExamples/libDaisy/src/per/uart.h ****         {
  51:../DaisyExamples/libDaisy/src/per/uart.h ****             NONE,
  52:../DaisyExamples/libDaisy/src/per/uart.h ****             EVEN,
  53:../DaisyExamples/libDaisy/src/per/uart.h ****             ODD,
  54:../DaisyExamples/libDaisy/src/per/uart.h ****         };
  55:../DaisyExamples/libDaisy/src/per/uart.h **** 
  56:../DaisyExamples/libDaisy/src/per/uart.h ****         enum class Mode
  57:../DaisyExamples/libDaisy/src/per/uart.h ****         {
  58:../DaisyExamples/libDaisy/src/per/uart.h ****             RX,
  59:../DaisyExamples/libDaisy/src/per/uart.h ****             TX,
  60:../DaisyExamples/libDaisy/src/per/uart.h ****             TX_RX,
  61:../DaisyExamples/libDaisy/src/per/uart.h ****         };
  62:../DaisyExamples/libDaisy/src/per/uart.h **** 
  63:../DaisyExamples/libDaisy/src/per/uart.h ****         enum class WordLength
  64:../DaisyExamples/libDaisy/src/per/uart.h ****         {
  65:../DaisyExamples/libDaisy/src/per/uart.h ****             BITS_7,
ARM GAS  C:\Users\Marco\AppData\Local\Temp\ccVZoccs.s 			page 25


  66:../DaisyExamples/libDaisy/src/per/uart.h ****             BITS_8,
  67:../DaisyExamples/libDaisy/src/per/uart.h ****             BITS_9,
  68:../DaisyExamples/libDaisy/src/per/uart.h ****         };
  69:../DaisyExamples/libDaisy/src/per/uart.h **** 
  70:../DaisyExamples/libDaisy/src/per/uart.h ****         struct
  71:../DaisyExamples/libDaisy/src/per/uart.h ****         {
  72:../DaisyExamples/libDaisy/src/per/uart.h ****             dsy_gpio_pin tx; /**< & */
  73:../DaisyExamples/libDaisy/src/per/uart.h ****             dsy_gpio_pin rx; /**< & */
  74:../DaisyExamples/libDaisy/src/per/uart.h ****         } pin_config;        /**< & */
  75:../DaisyExamples/libDaisy/src/per/uart.h **** 
  76:../DaisyExamples/libDaisy/src/per/uart.h ****         Config()
  77:../DaisyExamples/libDaisy/src/per/uart.h ****         {
  78:../DaisyExamples/libDaisy/src/per/uart.h ****             // user must init periph, pin_config, and mode
  79:../DaisyExamples/libDaisy/src/per/uart.h ****             stopbits   = StopBits::BITS_1;
  80:../DaisyExamples/libDaisy/src/per/uart.h ****             parity     = Parity::NONE;
  81:../DaisyExamples/libDaisy/src/per/uart.h ****             wordlength = WordLength::BITS_8;
  82:../DaisyExamples/libDaisy/src/per/uart.h ****             baudrate   = 31250;
  83:../DaisyExamples/libDaisy/src/per/uart.h ****         }
  84:../DaisyExamples/libDaisy/src/per/uart.h **** 
  85:../DaisyExamples/libDaisy/src/per/uart.h ****         Peripheral periph;
  86:../DaisyExamples/libDaisy/src/per/uart.h ****         StopBits   stopbits;
  87:../DaisyExamples/libDaisy/src/per/uart.h ****         Parity     parity;
  88:../DaisyExamples/libDaisy/src/per/uart.h ****         Mode       mode;
  89:../DaisyExamples/libDaisy/src/per/uart.h ****         WordLength wordlength;
  90:../DaisyExamples/libDaisy/src/per/uart.h ****         uint32_t   baudrate;
  91:../DaisyExamples/libDaisy/src/per/uart.h ****     };
  92:../DaisyExamples/libDaisy/src/per/uart.h **** 
  93:../DaisyExamples/libDaisy/src/per/uart.h **** 
  94:../DaisyExamples/libDaisy/src/per/uart.h ****     UartHandler() : pimpl_(nullptr) {}
 260              		.loc 4 94 5 view .LVU61
 261              	.LBE390:
 262              	.LBE389:
 263              	.LBE401:
 264              	.LBB402:
 265              	.LBB403:
 266              	.LBB404:
 267              		.loc 3 302 26 is_stmt 0 view .LVU62
 268 0018 49F21C20 		movw	r0, #37404
 269              	.LBE404:
 270              	.LBE403:
 271              	.LBB414:
 272              	.LBB415:
 273              	.LBB416:
 274              		.file 5 "../DaisyExamples/libDaisy/src/hid/usb_midi.h"
   1:../DaisyExamples/libDaisy/src/hid/usb_midi.h **** #pragma once
   2:../DaisyExamples/libDaisy/src/hid/usb_midi.h **** #ifndef __DSY_MIDIUSBTRANSPORT_H__
   3:../DaisyExamples/libDaisy/src/hid/usb_midi.h **** #define __DSY_MIDIUSBTRANSPORT_H__
   4:../DaisyExamples/libDaisy/src/hid/usb_midi.h **** 
   5:../DaisyExamples/libDaisy/src/hid/usb_midi.h **** #include "hid/usb.h"
   6:../DaisyExamples/libDaisy/src/hid/usb_midi.h **** #include "sys/system.h"
   7:../DaisyExamples/libDaisy/src/hid/usb_midi.h **** #include "util/ringbuffer.h"
   8:../DaisyExamples/libDaisy/src/hid/usb_midi.h **** 
   9:../DaisyExamples/libDaisy/src/hid/usb_midi.h **** namespace daisy
  10:../DaisyExamples/libDaisy/src/hid/usb_midi.h **** {
  11:../DaisyExamples/libDaisy/src/hid/usb_midi.h **** /** @brief USB Transport for MIDI
  12:../DaisyExamples/libDaisy/src/hid/usb_midi.h ****  *  @ingroup midi
  13:../DaisyExamples/libDaisy/src/hid/usb_midi.h ****  */
ARM GAS  C:\Users\Marco\AppData\Local\Temp\ccVZoccs.s 			page 26


  14:../DaisyExamples/libDaisy/src/hid/usb_midi.h **** class MidiUsbTransport
  15:../DaisyExamples/libDaisy/src/hid/usb_midi.h **** {
  16:../DaisyExamples/libDaisy/src/hid/usb_midi.h ****   public:
  17:../DaisyExamples/libDaisy/src/hid/usb_midi.h ****     typedef void (*MidiRxParseCallback)(uint8_t* data,
  18:../DaisyExamples/libDaisy/src/hid/usb_midi.h ****                                         size_t   size,
  19:../DaisyExamples/libDaisy/src/hid/usb_midi.h ****                                         void*    context);
  20:../DaisyExamples/libDaisy/src/hid/usb_midi.h **** 
  21:../DaisyExamples/libDaisy/src/hid/usb_midi.h ****     struct Config
  22:../DaisyExamples/libDaisy/src/hid/usb_midi.h ****     {
  23:../DaisyExamples/libDaisy/src/hid/usb_midi.h ****         enum Periph
  24:../DaisyExamples/libDaisy/src/hid/usb_midi.h ****         {
  25:../DaisyExamples/libDaisy/src/hid/usb_midi.h ****             INTERNAL = 0,
  26:../DaisyExamples/libDaisy/src/hid/usb_midi.h ****             EXTERNAL
  27:../DaisyExamples/libDaisy/src/hid/usb_midi.h ****         };
  28:../DaisyExamples/libDaisy/src/hid/usb_midi.h **** 
  29:../DaisyExamples/libDaisy/src/hid/usb_midi.h ****         Periph periph;
  30:../DaisyExamples/libDaisy/src/hid/usb_midi.h **** 
  31:../DaisyExamples/libDaisy/src/hid/usb_midi.h ****         /**
  32:../DaisyExamples/libDaisy/src/hid/usb_midi.h ****          * When sending MIDI messages immediately back-to-back in user code,
  33:../DaisyExamples/libDaisy/src/hid/usb_midi.h ****          * sometimes the USB CDC driver is still "busy".
  34:../DaisyExamples/libDaisy/src/hid/usb_midi.h ****          *
  35:../DaisyExamples/libDaisy/src/hid/usb_midi.h ****          * This option configures the number of times to retry a Tx after
  36:../DaisyExamples/libDaisy/src/hid/usb_midi.h ****          * delaying for 100 microseconds (default = 3 retries).
  37:../DaisyExamples/libDaisy/src/hid/usb_midi.h ****          *
  38:../DaisyExamples/libDaisy/src/hid/usb_midi.h ****          * If you set this to zero, Tx will not retry so the attempt will block
  39:../DaisyExamples/libDaisy/src/hid/usb_midi.h ****          * for slightly less time, but transmit can fail if the Tx state is busy.
  40:../DaisyExamples/libDaisy/src/hid/usb_midi.h ****          */
  41:../DaisyExamples/libDaisy/src/hid/usb_midi.h ****         uint8_t tx_retry_count;
  42:../DaisyExamples/libDaisy/src/hid/usb_midi.h **** 
  43:../DaisyExamples/libDaisy/src/hid/usb_midi.h ****         Config() : periph(INTERNAL), tx_retry_count(3) {}
 275              		.loc 5 43 54 view .LVU63
 276 001c 04F51041 		add	r1, r4, #36864
 277              	.LBE416:
 278              	.LBE415:
 279              	.LBE414:
 280              	.LBE402:
 281              	.LBB440:
 282              	.LBB393:
 283              	.LBB394:
 284              		.file 6 "../DaisyExamples/libDaisy/src/hid/midi_parser.h"
   1:../DaisyExamples/libDaisy/src/hid/midi_parser.h **** #pragma once
   2:../DaisyExamples/libDaisy/src/hid/midi_parser.h **** #ifndef DSY_MIDI_PARSER_H
   3:../DaisyExamples/libDaisy/src/hid/midi_parser.h **** #define DSY_MIDI_PARSER_H
   4:../DaisyExamples/libDaisy/src/hid/midi_parser.h **** 
   5:../DaisyExamples/libDaisy/src/hid/midi_parser.h **** #include <stdint.h>
   6:../DaisyExamples/libDaisy/src/hid/midi_parser.h **** #include <stdlib.h>
   7:../DaisyExamples/libDaisy/src/hid/midi_parser.h **** #include "hid/MidiEvent.h"
   8:../DaisyExamples/libDaisy/src/hid/midi_parser.h **** 
   9:../DaisyExamples/libDaisy/src/hid/midi_parser.h **** namespace daisy
  10:../DaisyExamples/libDaisy/src/hid/midi_parser.h **** {
  11:../DaisyExamples/libDaisy/src/hid/midi_parser.h **** /** @brief   Utility class for parsing raw byte streams into MIDI messages
  12:../DaisyExamples/libDaisy/src/hid/midi_parser.h ****  *  @details Implemented as a state machine designed to parse one byte at a time
  13:../DaisyExamples/libDaisy/src/hid/midi_parser.h ****  *  @ingroup midi
  14:../DaisyExamples/libDaisy/src/hid/midi_parser.h ****  */
  15:../DaisyExamples/libDaisy/src/hid/midi_parser.h **** class MidiParser
  16:../DaisyExamples/libDaisy/src/hid/midi_parser.h **** {
  17:../DaisyExamples/libDaisy/src/hid/midi_parser.h ****   public:
ARM GAS  C:\Users\Marco\AppData\Local\Temp\ccVZoccs.s 			page 27


  18:../DaisyExamples/libDaisy/src/hid/midi_parser.h ****     MidiParser(){};
 285              		.loc 6 18 17 view .LVU64
 286 0020 8022     		movs	r2, #128
 287 0022 47F6707E 		movw	lr, #32624
 288 0026 40F20F7C 		movw	ip, #1807
 289              	.LBE394:
 290              	.LBE393:
 291              	.LBE440:
 292              	.LBB441:
 293              	.LBB424:
 294              	.LBB410:
 295              		.loc 3 302 26 view .LVU65
 296 002a 2044     		add	r0, r0, r4
 297              	.LBE410:
 298              	.LBE424:
 299              	.LBE441:
 300              	.LBB442:
 301              	.LBB397:
 302              	.LBB392:
 303              	.LBB391:
 304              		.loc 4 94 35 view .LVU66
 305 002c A561     		str	r5, [r4, #24]
 306              	.LVL17:
 307              		.loc 4 94 35 view .LVU67
 308              	.LBE391:
 309              	.LBE392:
 310              	.LBE397:
 311              	.LBB398:
 312              	.LBI393:
 313              		.loc 6 18 5 is_stmt 1 view .LVU68
 314              	.LBB395:
 315              		.loc 6 18 17 is_stmt 0 view .LVU69
 316 002e 84F8C120 		strb	r2, [r4, #193]
 317              	.LBE395:
 318              	.LBE398:
 319              	.LBE442:
  10:MidiController.cpp ****     
 320              		.loc 1 10 26 view .LVU70
 321 0032 04F59033 		add	r3, r4, #73728
 322              	.LBB443:
 323              	.LBB399:
 324              	.LBB396:
 325              		.loc 6 18 17 view .LVU71
 326 0036 A4F8C2E0 		strh	lr, [r4, #194]	@ movhi
 327 003a A4F8C4C0 		strh	ip, [r4, #196]	@ movhi
 328              	.LVL18:
 329              		.loc 6 18 17 view .LVU72
 330              	.LBE396:
 331              	.LBE399:
 332              	.LBB400:
 333              	.LBI381:
 334              		.loc 3 302 5 is_stmt 1 view .LVU73
 335              	.LBB387:
 336              	.LBB386:
 337              	.LBI383:
  14:../DaisyExamples/libDaisy/src/util/FIFO.h ****     : buffer_(buffer), bufferSize_(bufferSize), bufferIn_(0), bufferOut_(0)
 338              		.loc 3 14 5 view .LVU74
ARM GAS  C:\Users\Marco\AppData\Local\Temp\ccVZoccs.s 			page 28


 339              	.LBB385:
  15:../DaisyExamples/libDaisy/src/util/FIFO.h ****     {
 340              		.loc 3 15 75 is_stmt 0 view .LVU75
 341 003e C4F8CC60 		str	r6, [r4, #204]
 342 0042 C4F8C870 		str	r7, [r4, #200]
 343 0046 C4E93455 		strd	r5, r5, [r4, #208]
 344              	.LVL19:
  15:../DaisyExamples/libDaisy/src/util/FIFO.h ****     {
 345              		.loc 3 15 75 view .LVU76
 346              	.LBE385:
 347              	.LBE386:
 348              	.LBE387:
 349              	.LBE400:
 350              	.LBE443:
 351              	.LBB444:
 352              	.LBI402:
 155:../DaisyExamples/libDaisy/src/hid/midi.h ****     ~MidiHandler() {}
 353              		.loc 2 155 5 is_stmt 1 view .LVU77
 354              	.LBB425:
 355              	.LBI414:
 158:../DaisyExamples/libDaisy/src/hid/midi.h ****     {
 356              		.loc 2 158 12 view .LVU78
 357              	.LBB420:
 358              	.LBI415:
 359              		.loc 5 43 9 view .LVU79
 360              	.LBE420:
 361              	.LBE425:
 362              	.LBB426:
 363              	.LBB411:
 364              	.LBB405:
 365              	.LBB406:
  15:../DaisyExamples/libDaisy/src/util/FIFO.h ****     {
 366              		.loc 3 15 75 is_stmt 0 view .LVU80
 367 004a C1E98306 		strd	r0, r6, [r1, #524]
 368              	.LBE406:
 369              	.LBE405:
 370              	.LBE411:
 371              	.LBE426:
 372              	.LBB427:
 373              	.LBB421:
 374              	.LBB417:
 375              		.loc 5 43 54 view .LVU81
 376 004e 0320     		movs	r0, #3
 377              	.LBE417:
 378              	.LBE421:
 379              	.LBE427:
 380              	.LBB428:
 381              	.LBB429:
 382              		.loc 6 18 17 view .LVU82
 383 0050 A1F806E2 		strh	lr, [r1, #518]	@ movhi
 384 0054 A1F808C2 		strh	ip, [r1, #520]	@ movhi
 385              	.LBE429:
 386              	.LBE428:
 387              	.LBB431:
 388              	.LBB422:
 389              	.LBB418:
 390              		.loc 5 43 54 view .LVU83
ARM GAS  C:\Users\Marco\AppData\Local\Temp\ccVZoccs.s 			page 29


 391 0058 81F86901 		strb	r0, [r1, #361]
 392              	.LVL20:
 393              		.loc 5 43 54 view .LVU84
 394              	.LBE418:
 395              	.LBE422:
 396              	.LBE431:
 397              	.LBB432:
 398              	.LBI432:
  44:../DaisyExamples/libDaisy/src/hid/usb_midi.h ****     };
  45:../DaisyExamples/libDaisy/src/hid/usb_midi.h **** 
  46:../DaisyExamples/libDaisy/src/hid/usb_midi.h ****     void Init(Config config);
  47:../DaisyExamples/libDaisy/src/hid/usb_midi.h **** 
  48:../DaisyExamples/libDaisy/src/hid/usb_midi.h ****     void StartRx(MidiRxParseCallback callback, void* context);
  49:../DaisyExamples/libDaisy/src/hid/usb_midi.h ****     bool RxActive();
  50:../DaisyExamples/libDaisy/src/hid/usb_midi.h ****     void FlushRx();
  51:../DaisyExamples/libDaisy/src/hid/usb_midi.h ****     void Tx(uint8_t* buffer, size_t size);
  52:../DaisyExamples/libDaisy/src/hid/usb_midi.h **** 
  53:../DaisyExamples/libDaisy/src/hid/usb_midi.h ****     class Impl;
  54:../DaisyExamples/libDaisy/src/hid/usb_midi.h **** 
  55:../DaisyExamples/libDaisy/src/hid/usb_midi.h ****     MidiUsbTransport() : pimpl_(nullptr) {}
 399              		.loc 5 55 5 is_stmt 1 view .LVU85
 400              		.loc 5 55 5 is_stmt 0 view .LVU86
 401              	.LBE432:
 402              	.LBB434:
 403              	.LBI428:
 404              		.loc 6 18 5 is_stmt 1 view .LVU87
 405              		.loc 6 18 5 is_stmt 0 view .LVU88
 406              	.LBE434:
 407              	.LBB435:
 408              	.LBI403:
 409              		.loc 3 302 5 is_stmt 1 view .LVU89
 410              	.LBB412:
 411              	.LBB408:
 412              	.LBI405:
  14:../DaisyExamples/libDaisy/src/util/FIFO.h ****     : buffer_(buffer), bufferSize_(bufferSize), bufferIn_(0), bufferOut_(0)
 413              		.loc 3 14 5 view .LVU90
  14:../DaisyExamples/libDaisy/src/util/FIFO.h ****     : buffer_(buffer), bufferSize_(bufferSize), bufferIn_(0), bufferOut_(0)
 414              		.loc 3 14 5 is_stmt 0 view .LVU91
 415              	.LBE408:
 416              	.LBE412:
 417              	.LBE435:
 418              	.LBE444:
  10:MidiController.cpp ****     
 419              		.loc 1 10 26 view .LVU92
 420 005c 4FF00110 		mov	r0, #65537
 421              	.LBB445:
 422              	.LBB436:
 423              	.LBB423:
 424              	.LBB419:
  43:../DaisyExamples/libDaisy/src/hid/usb_midi.h ****     };
 425              		.loc 5 43 54 view .LVU93
 426 0060 81F86851 		strb	r5, [r1, #360]
 427              	.LBE419:
 428              	.LBE423:
 429              	.LBE436:
 430              	.LBB437:
 431              	.LBB433:
ARM GAS  C:\Users\Marco\AppData\Local\Temp\ccVZoccs.s 			page 30


 432              		.loc 5 55 40 view .LVU94
 433 0064 C1F86C51 		str	r5, [r1, #364]
 434              	.LBE433:
 435              	.LBE437:
 436              	.LBB438:
 437              	.LBB430:
 438              		.loc 6 18 17 view .LVU95
 439 0068 81F80522 		strb	r2, [r1, #517]
 440              	.LBE430:
 441              	.LBE438:
 442              	.LBB439:
 443              	.LBB413:
 444              	.LBB409:
 445              	.LBB407:
  15:../DaisyExamples/libDaisy/src/util/FIFO.h ****     {
 446              		.loc 3 15 75 view .LVU96
 447 006c C1E98555 		strd	r5, r5, [r1, #532]
 448              	.LBE407:
 449              	.LBE409:
 450              	.LBE413:
 451              	.LBE439:
 452              	.LBE445:
  10:MidiController.cpp ****     
 453              		.loc 1 10 26 view .LVU97
 454 0070 C3F8AC02 		str	r0, [r3, #684]
 455 0074 1820     		movs	r0, #24
 456              	.LBB446:
  14:MidiController.cpp ****     }
 457              		.loc 1 14 25 view .LVU98
 458 0076 2946     		mov	r1, r5
 459              	.LBE446:
  10:MidiController.cpp ****     
 460              		.loc 1 10 26 view .LVU99
 461 0078 83F8B052 		strb	r5, [r3, #688]
 462 007c A3F84806 		strh	r0, [r3, #1608]	@ movhi
 463              	.LBB447:
  14:MidiController.cpp ****     }
 464              		.loc 1 14 25 view .LVU100
 465 0080 0A48     		ldr	r0, .L16
 466              	.LBE447:
  10:MidiController.cpp ****     
 467              		.loc 1 10 26 view .LVU101
 468 0082 A3F8B455 		strh	r5, [r3, #1460]	@ movhi
 469              	.LBB448:
  14:MidiController.cpp ****     }
 470              		.loc 1 14 25 view .LVU102
 471 0086 2044     		add	r0, r0, r4
 472              	.LBE448:
  10:MidiController.cpp ****     
 473              		.loc 1 10 26 view .LVU103
 474 0088 83F8B655 		strb	r5, [r3, #1462]
 475 008c C3F8B855 		str	r5, [r3, #1464]
 476 0090 C3F8BC55 		str	r5, [r3, #1468]
 477 0094 83F8C055 		strb	r5, [r3, #1472]
 478 0098 83F84156 		strb	r5, [r3, #1601]
 479 009c C3F84456 		str	r5, [r3, #1604]
 480 00a0 83F84A56 		strb	r5, [r3, #1610]
ARM GAS  C:\Users\Marco\AppData\Local\Temp\ccVZoccs.s 			page 31


 481              	.LBE450:
  13:MidiController.cpp ****         activeNotes_[i] = false;
 482              		.loc 1 13 5 is_stmt 1 view .LVU104
 483              	.LVL21:
 484              	.LBB451:
 485              	.LBB449:
  13:MidiController.cpp ****         activeNotes_[i] = false;
 486              		.loc 1 13 23 view .LVU105
  14:MidiController.cpp ****     }
 487              		.loc 1 14 25 is_stmt 0 view .LVU106
 488 00a4 FFF7FEFF 		bl	memset
 489              	.LVL22:
  14:MidiController.cpp ****     }
 490              		.loc 1 14 25 view .LVU107
 491              	.LBE449:
 492              	.LBE451:
  16:MidiController.cpp **** 
 493              		.loc 1 16 1 view .LVU108
 494 00a8 2046     		mov	r0, r4
 495 00aa F8BD     		pop	{r3, r4, r5, r6, r7, pc}
 496              	.LVL23:
 497              	.L17:
  16:MidiController.cpp **** 
 498              		.loc 1 16 1 view .LVU109
 499              		.align	2
 500              	.L16:
 501 00ac C1250100 		.word	75201
 502              		.cfi_endproc
 503              	.LFE2561:
 505              		.global	_ZN14MidiControllerC1Ev
 506              		.thumb_set _ZN14MidiControllerC1Ev,_ZN14MidiControllerC2Ev
 507              		.section	.text._ZN14MidiControllerD2Ev,"ax",%progbits
 508              		.align	1
 509              		.p2align 2,,3
 510              		.global	_ZN14MidiControllerD2Ev
 511              		.syntax unified
 512              		.thumb
 513              		.thumb_func
 514              		.fpu fpv5-d16
 516              	_ZN14MidiControllerD2Ev:
 517              	.LVL24:
 518              	.LFB2564:
  19:MidiController.cpp ****     // Destructor body - will be implemented later
 519              		.loc 1 19 1 is_stmt 1 view -0
 520              		.cfi_startproc
 521              		@ args = 0, pretend = 0, frame = 0
 522              		@ frame_needed = 0, uses_anonymous_args = 0
 523              		@ link register save eliminated.
 524              	.LBB452:
 525              	.LBI452:
 156:../DaisyExamples/libDaisy/src/hid/midi.h **** 
 526              		.loc 2 156 5 view .LVU111
 527              	.LBB453:
 528              	.LBI453:
 298:../DaisyExamples/libDaisy/src/util/FIFO.h **** {
 529              		.loc 3 298 7 view .LVU112
 530              	.LBB454:
ARM GAS  C:\Users\Marco\AppData\Local\Temp\ccVZoccs.s 			page 32


 531              	.LBI454:
  42:../DaisyExamples/libDaisy/src/util/FIFO.h **** 
 532              		.loc 3 42 5 view .LVU113
  42:../DaisyExamples/libDaisy/src/util/FIFO.h **** 
 533              		.loc 3 42 5 is_stmt 0 view .LVU114
 534              	.LBE454:
 535              	.LBE453:
 536              	.LBB455:
 537              	.LBI455:
  19:../DaisyExamples/libDaisy/src/hid/midi_parser.h ****     ~MidiParser() {}
 538              		.loc 6 19 5 is_stmt 1 view .LVU115
 539              		.loc 6 19 5 is_stmt 0 view .LVU116
 540              	.LBE455:
 541              	.LBB456:
 542              	.LBI456:
  56:../DaisyExamples/libDaisy/src/hid/usb_midi.h ****     ~MidiUsbTransport() {}
 543              		.loc 5 56 5 is_stmt 1 view .LVU117
 544              		.loc 5 56 5 is_stmt 0 view .LVU118
 545              	.LBE456:
 546              	.LBE452:
 547              	.LBB457:
 548              	.LBI457:
 156:../DaisyExamples/libDaisy/src/hid/midi.h **** 
 549              		.loc 2 156 5 is_stmt 1 view .LVU119
 550              	.LBB458:
 551              	.LBI458:
 298:../DaisyExamples/libDaisy/src/util/FIFO.h **** {
 552              		.loc 3 298 7 view .LVU120
 553              	.LBB459:
 554              	.LBI459:
  42:../DaisyExamples/libDaisy/src/util/FIFO.h **** 
 555              		.loc 3 42 5 view .LVU121
  42:../DaisyExamples/libDaisy/src/util/FIFO.h **** 
 556              		.loc 3 42 5 is_stmt 0 view .LVU122
 557              	.LBE459:
 558              	.LBE458:
 559              	.LBB460:
 560              	.LBI460:
 561              		.loc 6 19 5 is_stmt 1 view .LVU123
 562              		.loc 6 19 5 is_stmt 0 view .LVU124
 563              	.LBE460:
 564              	.LBB461:
 565              	.LBI461:
  32:../DaisyExamples/libDaisy/src/hid/midi.h **** 
 566              		.loc 2 32 5 is_stmt 1 view .LVU125
  32:../DaisyExamples/libDaisy/src/hid/midi.h **** 
 567              		.loc 2 32 5 is_stmt 0 view .LVU126
 568              	.LBE461:
 569              	.LBE457:
  21:MidiController.cpp **** 
 570              		.loc 1 21 1 view .LVU127
 571 0000 7047     		bx	lr
 572              		.cfi_endproc
 573              	.LFE2564:
 575              		.global	_ZN14MidiControllerD1Ev
 576              		.thumb_set _ZN14MidiControllerD1Ev,_ZN14MidiControllerD2Ev
 577 0002 00BF     		.section	.text._ZN14MidiController10SendNoteOnEhh,"ax",%progbits
ARM GAS  C:\Users\Marco\AppData\Local\Temp\ccVZoccs.s 			page 33


 578              		.align	1
 579              		.p2align 2,,3
 580              		.global	_ZN14MidiController10SendNoteOnEhh
 581              		.syntax unified
 582              		.thumb
 583              		.thumb_func
 584              		.fpu fpv5-d16
 586              	_ZN14MidiController10SendNoteOnEhh:
 587              	.LVL25:
 588              	.LFB2568:
  56:MidiController.cpp ****     if (!enabled_ || !IsValidNote(note) || !IsValidVelocity(velocity)) {
 589              		.loc 1 56 65 is_stmt 1 view -0
 590              		.cfi_startproc
 591              		@ args = 0, pretend = 0, frame = 0
 592              		@ frame_needed = 0, uses_anonymous_args = 0
  57:MidiController.cpp ****         return;
 593              		.loc 1 57 5 view .LVU129
  57:MidiController.cpp ****         return;
 594              		.loc 1 57 10 is_stmt 0 view .LVU130
 595 0000 00F5903C 		add	ip, r0, #73728
  57:MidiController.cpp ****         return;
 596              		.loc 1 57 41 view .LVU131
 597 0004 9CF8AE32 		ldrb	r3, [ip, #686]	@ zero_extendqisi2
 598 0008 002B     		cmp	r3, #0
 599 000a 3FD0     		beq	.L25
 600              	.LVL26:
 601              	.LBB476:
 602              	.LBI476:
 463:MidiController.cpp ****     return note <= 127;
 603              		.loc 1 463 6 is_stmt 1 view .LVU132
 604              	.LBB477:
 464:MidiController.cpp **** }
 605              		.loc 1 464 5 view .LVU133
 464:MidiController.cpp **** }
 606              		.loc 1 464 5 is_stmt 0 view .LVU134
 607              	.LBE477:
 608              	.LBE476:
  57:MidiController.cpp ****         return;
 609              		.loc 1 57 19 view .LVU135
 610 000c 0B06     		lsls	r3, r1, #24
 611 000e 3DD4     		bmi	.L25
 612              	.LVL27:
 613              	.LBB478:
 614              	.LBI478:
 467:MidiController.cpp ****     return velocity <= 127;
 615              		.loc 1 467 6 is_stmt 1 view .LVU136
 616              	.LBB479:
 468:MidiController.cpp **** }
 617              		.loc 1 468 5 view .LVU137
 468:MidiController.cpp **** }
 618              		.loc 1 468 5 is_stmt 0 view .LVU138
 619              	.LBE479:
 620              	.LBE478:
  57:MidiController.cpp ****         return;
 621              		.loc 1 57 41 view .LVU139
 622 0010 1306     		lsls	r3, r2, #24
 623 0012 3BD4     		bmi	.L25
ARM GAS  C:\Users\Marco\AppData\Local\Temp\ccVZoccs.s 			page 34


  61:MidiController.cpp ****     QueueMessage(status, note, velocity);
 624              		.loc 1 61 5 is_stmt 1 view .LVU140
 625              	.LVL28:
 626              	.LBB480:
 627              	.LBI480:
 455:MidiController.cpp ****     return (uint8_t)messageType | ((channel - 1) & 0x0F);
 628              		.loc 1 455 9 view .LVU141
 629              	.LBB481:
 456:MidiController.cpp **** }
 630              		.loc 1 456 5 view .LVU142
 456:MidiController.cpp **** }
 631              		.loc 1 456 5 is_stmt 0 view .LVU143
 632              	.LBE481:
 633              	.LBE480:
  62:MidiController.cpp ****     TrackNoteOn(note);
 634              		.loc 1 62 5 is_stmt 1 view .LVU144
 635              	.LBB486:
 636              	.LBI486:
 361:MidiController.cpp ****     if (IsQueueFull()) {
 637              		.loc 1 361 6 view .LVU145
 638              	.LBB487:
 362:MidiController.cpp ****         return; // Queue is full, drop message
 639              		.loc 1 362 5 view .LVU146
 640              	.LBB488:
 641              	.LBI488:
 410:MidiController.cpp ****     return queueCount_ >= MESSAGE_QUEUE_SIZE;
 642              		.loc 1 410 6 view .LVU147
 643              	.LBB489:
 411:MidiController.cpp **** }
 644              		.loc 1 411 5 view .LVU148
 411:MidiController.cpp **** }
 645              		.loc 1 411 12 is_stmt 0 view .LVU149
 646 0014 9CF8B635 		ldrb	r3, [ip, #1462]	@ zero_extendqisi2
 647              	.LVL29:
 411:MidiController.cpp **** }
 648              		.loc 1 411 12 view .LVU150
 649              	.LBE489:
 650              	.LBE488:
 362:MidiController.cpp ****         return; // Queue is full, drop message
 651              		.loc 1 362 5 view .LVU151
 652 0018 3F2B     		cmp	r3, #63
 653 001a 33D8     		bhi	.L26
 366:MidiController.cpp ****     msg.status = status;
 654              		.loc 1 366 5 is_stmt 1 view .LVU152
 655              	.LBE487:
 656              	.LBE486:
  56:MidiController.cpp ****     if (!enabled_ || !IsValidNote(note) || !IsValidVelocity(velocity)) {
 657              		.loc 1 56 65 is_stmt 0 view .LVU153
 658 001c F0B5     		push	{r4, r5, r6, r7, lr}
 659              		.cfi_def_cfa_offset 20
 660              		.cfi_offset 4, -20
 661              		.cfi_offset 5, -16
 662              		.cfi_offset 6, -12
 663              		.cfi_offset 7, -8
 664              		.cfi_offset 14, -4
 665              	.LBB495:
 666              	.LBB482:
ARM GAS  C:\Users\Marco\AppData\Local\Temp\ccVZoccs.s 			page 35


 456:MidiController.cpp **** }
 667              		.loc 1 456 45 view .LVU154
 668 001e 9CF8AC42 		ldrb	r4, [ip, #684]	@ zero_extendqisi2
 669              	.LBE482:
 670              	.LBE495:
 671              	.LBB496:
 672              	.LBB490:
 374:MidiController.cpp **** }
 673              		.loc 1 374 16 view .LVU155
 674 0022 5D1C     		adds	r5, r3, #1
 366:MidiController.cpp ****     msg.status = status;
 675              		.loc 1 366 38 view .LVU156
 676 0024 9CF8B535 		ldrb	r3, [ip, #1461]	@ zero_extendqisi2
 677              	.LVL30:
 367:MidiController.cpp ****     msg.data1 = data1;
 678              		.loc 1 367 5 is_stmt 1 view .LVU157
 679              	.LBE490:
 680              	.LBE496:
 681              	.LBB497:
 682              	.LBB483:
 456:MidiController.cpp **** }
 683              		.loc 1 456 45 is_stmt 0 view .LVU158
 684 0028 013C     		subs	r4, r4, #1
 685              	.LBE483:
 686              	.LBE497:
 687              	.LBB498:
 688              	.LBB491:
 367:MidiController.cpp ****     msg.data1 = data1;
 689              		.loc 1 367 16 view .LVU159
 690 002a 1D4F     		ldr	r7, .L31
 691 002c 03EB430E 		add	lr, r3, r3, lsl #1
 368:MidiController.cpp ****     msg.data2 = data2;
 692              		.loc 1 368 15 view .LVU160
 693 0030 1C4E     		ldr	r6, .L31+4
 694              	.LBE491:
 695              	.LBE498:
 696              	.LBB499:
 697              	.LBB484:
 456:MidiController.cpp **** }
 698              		.loc 1 456 50 view .LVU161
 699 0032 04F00F04 		and	r4, r4, #15
 700              	.LBE484:
 701              	.LBE499:
 702              	.LBB500:
 703              	.LBB492:
 373:MidiController.cpp ****     queueCount_++;
 704              		.loc 1 373 30 view .LVU162
 705 0036 0133     		adds	r3, r3, #1
 706              	.LVL31:
 367:MidiController.cpp ****     msg.data1 = data1;
 707              		.loc 1 367 16 view .LVU163
 708 0038 00EB8E0E 		add	lr, r0, lr, lsl #2
 709              	.LBE492:
 710              	.LBE500:
 711              	.LBB501:
 712              	.LBB502:
 713              	.LBB503:
ARM GAS  C:\Users\Marco\AppData\Local\Temp\ccVZoccs.s 			page 36


 476:MidiController.cpp ****         activeNotes_[note] = true;
 714              		.loc 1 476 41 view .LVU164
 715 003c 0844     		add	r0, r0, r1
 716              	.LVL32:
 476:MidiController.cpp ****         activeNotes_[note] = true;
 717              		.loc 1 476 41 view .LVU165
 718              	.LBE503:
 719              	.LBE502:
 720              	.LBE501:
 721              	.LBB510:
 722              	.LBB485:
 456:MidiController.cpp **** }
 723              		.loc 1 456 33 view .LVU166
 724 003e 64F06F04 		orn	r4, r4, #111
 725              	.LBE485:
 726              	.LBE510:
 727              	.LBB511:
 728              	.LBB493:
 373:MidiController.cpp ****     queueCount_++;
 729              		.loc 1 373 35 view .LVU167
 730 0042 03F03F03 		and	r3, r3, #63
 731              	.LVL33:
 367:MidiController.cpp ****     msg.data1 = data1;
 732              		.loc 1 367 16 view .LVU168
 733 0046 0EF80740 		strb	r4, [lr, r7]
 734              	.LVL34:
 368:MidiController.cpp ****     msg.data2 = data2;
 735              		.loc 1 368 5 is_stmt 1 view .LVU169
 369:MidiController.cpp ****     msg.hasData2 = true;
 736              		.loc 1 369 15 is_stmt 0 view .LVU170
 737 004a 174C     		ldr	r4, .L31+8
 368:MidiController.cpp ****     msg.data2 = data2;
 738              		.loc 1 368 15 view .LVU171
 739 004c 0EF80610 		strb	r1, [lr, r6]
 369:MidiController.cpp ****     msg.hasData2 = true;
 740              		.loc 1 369 5 is_stmt 1 view .LVU172
 369:MidiController.cpp ****     msg.hasData2 = true;
 741              		.loc 1 369 15 is_stmt 0 view .LVU173
 742 0050 0EF80420 		strb	r2, [lr, r4]
 370:MidiController.cpp ****     msg.timestamp = lastActivityTime_; // TODO: Get actual timestamp
 743              		.loc 1 370 5 is_stmt 1 view .LVU174
 370:MidiController.cpp ****     msg.timestamp = lastActivityTime_; // TODO: Get actual timestamp
 744              		.loc 1 370 18 is_stmt 0 view .LVU175
 745 0054 0124     		movs	r4, #1
 746 0056 154A     		ldr	r2, .L31+12
 747              	.LVL35:
 370:MidiController.cpp ****     msg.timestamp = lastActivityTime_; // TODO: Get actual timestamp
 748              		.loc 1 370 18 view .LVU176
 749 0058 0EF80240 		strb	r4, [lr, r2]
 371:MidiController.cpp ****     
 750              		.loc 1 371 5 is_stmt 1 view .LVU177
 371:MidiController.cpp ****     
 751              		.loc 1 371 19 is_stmt 0 view .LVU178
 752 005c 043A     		subs	r2, r2, #4
 753 005e DCF8BC45 		ldr	r4, [ip, #1468]
 754 0062 4EF80240 		str	r4, [lr, r2]
 373:MidiController.cpp ****     queueCount_++;
ARM GAS  C:\Users\Marco\AppData\Local\Temp\ccVZoccs.s 			page 37


 755              		.loc 1 373 5 is_stmt 1 view .LVU179
 373:MidiController.cpp ****     queueCount_++;
 756              		.loc 1 373 16 is_stmt 0 view .LVU180
 757 0066 8CF8B535 		strb	r3, [ip, #1461]
 758              	.LVL36:
 374:MidiController.cpp **** }
 759              		.loc 1 374 5 is_stmt 1 view .LVU181
 374:MidiController.cpp **** }
 760              		.loc 1 374 5 is_stmt 0 view .LVU182
 761              	.LBE493:
 762              	.LBE511:
  63:MidiController.cpp **** }
 763              		.loc 1 63 5 is_stmt 1 view .LVU183
 764              	.LBB512:
 765              	.LBI501:
 475:MidiController.cpp ****     if (note < 128 && !activeNotes_[note]) {
 766              		.loc 1 475 6 view .LVU184
 767              	.LBE512:
 476:MidiController.cpp ****         activeNotes_[note] = true;
 768              		.loc 1 476 5 view .LVU185
 769              	.LBB513:
 770              	.LBB507:
 771              	.LBI502:
 475:MidiController.cpp ****     if (note < 128 && !activeNotes_[note]) {
 772              		.loc 1 475 6 view .LVU186
 773              	.LBB504:
 476:MidiController.cpp ****         activeNotes_[note] = true;
 774              		.loc 1 476 41 is_stmt 0 view .LVU187
 775 006a 114B     		ldr	r3, .L31+16
 776              	.LBE504:
 777              	.LBE507:
 778              	.LBE513:
 779              	.LBB514:
 780              	.LBB494:
 374:MidiController.cpp **** }
 781              		.loc 1 374 16 view .LVU188
 782 006c 8CF8B655 		strb	r5, [ip, #1462]
 783              	.LBE494:
 784              	.LBE514:
 785              	.LBB515:
 786              	.LBB508:
 787              	.LBB505:
 476:MidiController.cpp ****         activeNotes_[note] = true;
 788              		.loc 1 476 20 view .LVU189
 789 0070 C25C     		ldrb	r2, [r0, r3]	@ zero_extendqisi2
 790 0072 32B9     		cbnz	r2, .L19
 477:MidiController.cpp ****         activeNoteCount_++;
 791              		.loc 1 477 9 is_stmt 1 view .LVU190
 477:MidiController.cpp ****         activeNoteCount_++;
 792              		.loc 1 477 28 is_stmt 0 view .LVU191
 793 0074 0122     		movs	r2, #1
 794 0076 C254     		strb	r2, [r0, r3]
 478:MidiController.cpp ****     }
 795              		.loc 1 478 9 is_stmt 1 view .LVU192
 478:MidiController.cpp ****     }
 796              		.loc 1 478 25 is_stmt 0 view .LVU193
 797 0078 9CF84136 		ldrb	r3, [ip, #1601]	@ zero_extendqisi2
ARM GAS  C:\Users\Marco\AppData\Local\Temp\ccVZoccs.s 			page 38


 798 007c 1344     		add	r3, r3, r2
 799 007e 8CF84136 		strb	r3, [ip, #1601]
 800              	.LVL37:
 801              	.L19:
 478:MidiController.cpp ****     }
 802              		.loc 1 478 25 view .LVU194
 803              	.LBE505:
 804              	.LBE508:
 805              	.LBE515:
  64:MidiController.cpp **** 
 806              		.loc 1 64 1 view .LVU195
 807 0082 F0BD     		pop	{r4, r5, r6, r7, pc}
 808              	.LVL38:
 809              	.L26:
 810              		.cfi_def_cfa_offset 0
 811              		.cfi_restore 4
 812              		.cfi_restore 5
 813              		.cfi_restore 6
 814              		.cfi_restore 7
 815              		.cfi_restore 14
  63:MidiController.cpp **** }
 816              		.loc 1 63 5 is_stmt 1 view .LVU196
 817              	.LBB516:
 475:MidiController.cpp ****     if (note < 128 && !activeNotes_[note]) {
 818              		.loc 1 475 6 view .LVU197
 819              	.LBE516:
 476:MidiController.cpp ****         activeNotes_[note] = true;
 820              		.loc 1 476 5 view .LVU198
 821              	.LBB517:
 822              	.LBB509:
 475:MidiController.cpp ****     if (note < 128 && !activeNotes_[note]) {
 823              		.loc 1 475 6 view .LVU199
 824              	.LBB506:
 476:MidiController.cpp ****         activeNotes_[note] = true;
 825              		.loc 1 476 41 is_stmt 0 view .LVU200
 826 0084 0844     		add	r0, r0, r1
 827              	.LVL39:
 476:MidiController.cpp ****         activeNotes_[note] = true;
 828              		.loc 1 476 41 view .LVU201
 829 0086 0A4B     		ldr	r3, .L31+16
 476:MidiController.cpp ****         activeNotes_[note] = true;
 830              		.loc 1 476 20 view .LVU202
 831 0088 C25C     		ldrb	r2, [r0, r3]	@ zero_extendqisi2
 832              	.LVL40:
 476:MidiController.cpp ****         activeNotes_[note] = true;
 833              		.loc 1 476 20 view .LVU203
 834 008a 02B1     		cbz	r2, .L30
 835              	.LVL41:
 836              	.L25:
 476:MidiController.cpp ****         activeNotes_[note] = true;
 837              		.loc 1 476 20 view .LVU204
 838 008c 7047     		bx	lr
 839              	.LVL42:
 840              	.L30:
 477:MidiController.cpp ****         activeNoteCount_++;
 841              		.loc 1 477 9 is_stmt 1 view .LVU205
 477:MidiController.cpp ****         activeNoteCount_++;
ARM GAS  C:\Users\Marco\AppData\Local\Temp\ccVZoccs.s 			page 39


 842              		.loc 1 477 28 is_stmt 0 view .LVU206
 843 008e 0122     		movs	r2, #1
 844 0090 C254     		strb	r2, [r0, r3]
 845              	.LVL43:
 478:MidiController.cpp ****     }
 846              		.loc 1 478 9 is_stmt 1 view .LVU207
 478:MidiController.cpp ****     }
 847              		.loc 1 478 25 is_stmt 0 view .LVU208
 848 0092 9CF84136 		ldrb	r3, [ip, #1601]	@ zero_extendqisi2
 849 0096 1344     		add	r3, r3, r2
 850 0098 8CF84136 		strb	r3, [ip, #1601]
 851              	.LVL44:
 478:MidiController.cpp ****     }
 852              		.loc 1 478 25 view .LVU209
 853 009c 7047     		bx	lr
 854              	.L32:
 855 009e 00BF     		.align	2
 856              	.L31:
 857 00a0 B4220100 		.word	74420
 858 00a4 B5220100 		.word	74421
 859 00a8 B6220100 		.word	74422
 860 00ac BC220100 		.word	74428
 861 00b0 C1250100 		.word	75201
 862              	.LBE506:
 863              	.LBE509:
 864              	.LBE517:
 865              		.cfi_endproc
 866              	.LFE2568:
 868              		.section	.text._ZN14MidiController11SendNoteOffEh,"ax",%progbits
 869              		.align	1
 870              		.p2align 2,,3
 871              		.global	_ZN14MidiController11SendNoteOffEh
 872              		.syntax unified
 873              		.thumb
 874              		.thumb_func
 875              		.fpu fpv5-d16
 877              	_ZN14MidiController11SendNoteOffEh:
 878              	.LVL45:
 879              	.LFB2569:
  66:MidiController.cpp ****     SendNoteOff(note, 64); // Default velocity
 880              		.loc 1 66 48 is_stmt 1 view -0
 881              		.cfi_startproc
 882              		@ args = 0, pretend = 0, frame = 0
 883              		@ frame_needed = 0, uses_anonymous_args = 0
  67:MidiController.cpp **** }
 884              		.loc 1 67 5 view .LVU211
 885              	.LBB540:
 886              	.LBI540:
  70:MidiController.cpp ****     if (!enabled_ || !IsValidNote(note) || !IsValidVelocity(velocity)) {
 887              		.loc 1 70 6 view .LVU212
 888              	.LBB541:
  71:MidiController.cpp ****         return;
 889              		.loc 1 71 5 view .LVU213
  71:MidiController.cpp ****         return;
 890              		.loc 1 71 10 is_stmt 0 view .LVU214
 891 0000 00F59032 		add	r2, r0, #73728
  71:MidiController.cpp ****         return;
ARM GAS  C:\Users\Marco\AppData\Local\Temp\ccVZoccs.s 			page 40


 892              		.loc 1 71 41 view .LVU215
 893 0004 92F8AE32 		ldrb	r3, [r2, #686]	@ zero_extendqisi2
 894 0008 002B     		cmp	r3, #0
 895 000a 40D0     		beq	.L45
 896              	.LVL46:
 897              	.LBB542:
 898              	.LBI542:
 463:MidiController.cpp ****     return note <= 127;
 899              		.loc 1 463 6 is_stmt 1 view .LVU216
 900              	.LBB543:
 464:MidiController.cpp **** }
 901              		.loc 1 464 5 view .LVU217
 464:MidiController.cpp **** }
 902              		.loc 1 464 5 is_stmt 0 view .LVU218
 903              	.LBE543:
 904              	.LBE542:
  71:MidiController.cpp ****         return;
 905              		.loc 1 71 19 view .LVU219
 906 000c 0B06     		lsls	r3, r1, #24
 907 000e 3ED4     		bmi	.L45
 908              	.LVL47:
  71:MidiController.cpp ****         return;
 909              		.loc 1 71 19 view .LVU220
 910              	.LBE541:
 911              	.LBE540:
 468:MidiController.cpp **** }
 912              		.loc 1 468 5 is_stmt 1 view .LVU221
 913              	.LBB603:
 914              	.LBB598:
 915              	.LBB544:
 916              	.LBI544:
  70:MidiController.cpp ****     if (!enabled_ || !IsValidNote(note) || !IsValidVelocity(velocity)) {
 917              		.loc 1 70 6 view .LVU222
 918              	.LBB545:
  75:MidiController.cpp ****     QueueMessage(status, note, velocity);
 919              		.loc 1 75 5 view .LVU223
 920              	.LBB546:
 921              	.LBI546:
 455:MidiController.cpp ****     return (uint8_t)messageType | ((channel - 1) & 0x0F);
 922              		.loc 1 455 9 view .LVU224
 923              	.LBB547:
 456:MidiController.cpp **** }
 924              		.loc 1 456 5 view .LVU225
 456:MidiController.cpp **** }
 925              		.loc 1 456 5 is_stmt 0 view .LVU226
 926              	.LBE547:
 927              	.LBE546:
  76:MidiController.cpp ****     TrackNoteOff(note);
 928              		.loc 1 76 5 is_stmt 1 view .LVU227
 929              	.LBB552:
 930              	.LBI552:
 361:MidiController.cpp ****     if (IsQueueFull()) {
 931              		.loc 1 361 6 view .LVU228
 932              	.LBB553:
 362:MidiController.cpp ****         return; // Queue is full, drop message
 933              		.loc 1 362 5 view .LVU229
 934              	.LBB554:
ARM GAS  C:\Users\Marco\AppData\Local\Temp\ccVZoccs.s 			page 41


 935              	.LBI554:
 410:MidiController.cpp ****     return queueCount_ >= MESSAGE_QUEUE_SIZE;
 936              		.loc 1 410 6 view .LVU230
 937              	.LBB555:
 411:MidiController.cpp **** }
 938              		.loc 1 411 5 view .LVU231
 411:MidiController.cpp **** }
 939              		.loc 1 411 12 is_stmt 0 view .LVU232
 940 0010 92F8B635 		ldrb	r3, [r2, #1462]	@ zero_extendqisi2
 941              	.LVL48:
 411:MidiController.cpp **** }
 942              		.loc 1 411 12 view .LVU233
 943              	.LBE555:
 944              	.LBE554:
 362:MidiController.cpp ****         return; // Queue is full, drop message
 945              		.loc 1 362 5 view .LVU234
 946 0014 3F2B     		cmp	r3, #63
 947 0016 36D8     		bhi	.L46
 366:MidiController.cpp ****     msg.status = status;
 948              		.loc 1 366 5 is_stmt 1 view .LVU235
 949              	.LBE553:
 950              	.LBE552:
 951              	.LBE545:
 952              	.LBE544:
 953              	.LBE598:
 954              	.LBE603:
  66:MidiController.cpp ****     SendNoteOff(note, 64); // Default velocity
 955              		.loc 1 66 48 is_stmt 0 view .LVU236
 956 0018 30B5     		push	{r4, r5, lr}
 957              		.cfi_def_cfa_offset 12
 958              		.cfi_offset 4, -12
 959              		.cfi_offset 5, -8
 960              		.cfi_offset 14, -4
 961              	.LBB604:
 962              	.LBB599:
 963              	.LBB594:
 964              	.LBB590:
 965              	.LBB563:
 966              	.LBB556:
 374:MidiController.cpp **** }
 967              		.loc 1 374 16 view .LVU237
 968 001a 5C1C     		adds	r4, r3, #1
 969              	.LBE556:
 970              	.LBE563:
 971              	.LBB564:
 972              	.LBB548:
 456:MidiController.cpp **** }
 973              		.loc 1 456 45 view .LVU238
 974 001c 92F8AC32 		ldrb	r3, [r2, #684]	@ zero_extendqisi2
 975              	.LBE548:
 976              	.LBE564:
 977              	.LBB565:
 978              	.LBB557:
 366:MidiController.cpp ****     msg.status = status;
 979              		.loc 1 366 38 view .LVU239
 980 0020 92F8B5C5 		ldrb	ip, [r2, #1461]	@ zero_extendqisi2
 981              	.LVL49:
ARM GAS  C:\Users\Marco\AppData\Local\Temp\ccVZoccs.s 			page 42


 367:MidiController.cpp ****     msg.data1 = data1;
 982              		.loc 1 367 5 is_stmt 1 view .LVU240
 983              	.LBE557:
 984              	.LBE565:
 985              	.LBB566:
 986              	.LBB549:
 456:MidiController.cpp **** }
 987              		.loc 1 456 45 is_stmt 0 view .LVU241
 988 0024 013B     		subs	r3, r3, #1
 989              	.LBE549:
 990              	.LBE566:
 991              	.LBB567:
 992              	.LBB558:
 367:MidiController.cpp ****     msg.data1 = data1;
 993              		.loc 1 367 16 view .LVU242
 994 0026 1F4D     		ldr	r5, .L52
 995 0028 0CEB4C0E 		add	lr, ip, ip, lsl #1
 373:MidiController.cpp ****     queueCount_++;
 996              		.loc 1 373 30 view .LVU243
 997 002c 0CF1010C 		add	ip, ip, #1
 998              	.LVL50:
 373:MidiController.cpp ****     queueCount_++;
 999              		.loc 1 373 30 view .LVU244
 1000              	.LBE558:
 1001              	.LBE567:
 1002              	.LBB568:
 1003              	.LBB550:
 456:MidiController.cpp **** }
 1004              		.loc 1 456 50 view .LVU245
 1005 0030 03F00F03 		and	r3, r3, #15
 1006              	.LBE550:
 1007              	.LBE568:
 1008              	.LBB569:
 1009              	.LBB559:
 367:MidiController.cpp ****     msg.data1 = data1;
 1010              		.loc 1 367 16 view .LVU246
 1011 0034 00EB8E0E 		add	lr, r0, lr, lsl #2
 373:MidiController.cpp ****     queueCount_++;
 1012              		.loc 1 373 35 view .LVU247
 1013 0038 0CF03F0C 		and	ip, ip, #63
 1014              	.LVL51:
 373:MidiController.cpp ****     queueCount_++;
 1015              		.loc 1 373 35 view .LVU248
 1016              	.LBE559:
 1017              	.LBE569:
 1018              	.LBB570:
 1019              	.LBB551:
 456:MidiController.cpp **** }
 1020              		.loc 1 456 33 view .LVU249
 1021 003c 63F07F03 		orn	r3, r3, #127
 1022              	.LBE551:
 1023              	.LBE570:
 1024              	.LBB571:
 1025              	.LBB572:
 1026              	.LBB573:
 483:MidiController.cpp ****         activeNotes_[note] = false;
 1027              		.loc 1 483 40 view .LVU250
ARM GAS  C:\Users\Marco\AppData\Local\Temp\ccVZoccs.s 			page 43


 1028 0040 0844     		add	r0, r0, r1
 1029              	.LVL52:
 483:MidiController.cpp ****         activeNotes_[note] = false;
 1030              		.loc 1 483 40 view .LVU251
 1031              	.LBE573:
 1032              	.LBE572:
 1033              	.LBE571:
 1034              	.LBB581:
 1035              	.LBB560:
 367:MidiController.cpp ****     msg.data1 = data1;
 1036              		.loc 1 367 16 view .LVU252
 1037 0042 0EF80530 		strb	r3, [lr, r5]
 1038              	.LVL53:
 368:MidiController.cpp ****     msg.data2 = data2;
 1039              		.loc 1 368 5 is_stmt 1 view .LVU253
 369:MidiController.cpp ****     msg.hasData2 = true;
 1040              		.loc 1 369 15 is_stmt 0 view .LVU254
 1041 0046 4025     		movs	r5, #64
 368:MidiController.cpp ****     msg.data2 = data2;
 1042              		.loc 1 368 15 view .LVU255
 1043 0048 174B     		ldr	r3, .L52+4
 1044 004a 0EF80310 		strb	r1, [lr, r3]
 369:MidiController.cpp ****     msg.hasData2 = true;
 1045              		.loc 1 369 5 is_stmt 1 view .LVU256
 369:MidiController.cpp ****     msg.hasData2 = true;
 1046              		.loc 1 369 15 is_stmt 0 view .LVU257
 1047 004e 0133     		adds	r3, r3, #1
 1048 0050 0EF80350 		strb	r5, [lr, r3]
 370:MidiController.cpp ****     msg.timestamp = lastActivityTime_; // TODO: Get actual timestamp
 1049              		.loc 1 370 5 is_stmt 1 view .LVU258
 370:MidiController.cpp ****     msg.timestamp = lastActivityTime_; // TODO: Get actual timestamp
 1050              		.loc 1 370 18 is_stmt 0 view .LVU259
 1051 0054 0633     		adds	r3, r3, #6
 1052 0056 0125     		movs	r5, #1
 1053 0058 0EF80350 		strb	r5, [lr, r3]
 371:MidiController.cpp ****     
 1054              		.loc 1 371 5 is_stmt 1 view .LVU260
 371:MidiController.cpp ****     
 1055              		.loc 1 371 19 is_stmt 0 view .LVU261
 1056 005c 043B     		subs	r3, r3, #4
 1057 005e D2F8BC55 		ldr	r5, [r2, #1468]
 1058 0062 4EF80350 		str	r5, [lr, r3]
 373:MidiController.cpp ****     queueCount_++;
 1059              		.loc 1 373 5 is_stmt 1 view .LVU262
 1060              	.LBE560:
 1061              	.LBE581:
 1062              	.LBB582:
 1063              	.LBB577:
 1064              	.LBB574:
 483:MidiController.cpp ****         activeNotes_[note] = false;
 1065              		.loc 1 483 40 is_stmt 0 view .LVU263
 1066 0066 114B     		ldr	r3, .L52+8
 1067              	.LBE574:
 1068              	.LBE577:
 1069              	.LBE582:
 1070              	.LBB583:
 1071              	.LBB561:
ARM GAS  C:\Users\Marco\AppData\Local\Temp\ccVZoccs.s 			page 44


 373:MidiController.cpp ****     queueCount_++;
 1072              		.loc 1 373 16 view .LVU264
 1073 0068 82F8B5C5 		strb	ip, [r2, #1461]
 374:MidiController.cpp **** }
 1074              		.loc 1 374 5 is_stmt 1 view .LVU265
 1075              	.LVL54:
 374:MidiController.cpp **** }
 1076              		.loc 1 374 5 is_stmt 0 view .LVU266
 1077              	.LBE561:
 1078              	.LBE583:
  77:MidiController.cpp **** }
 1079              		.loc 1 77 5 is_stmt 1 view .LVU267
 1080              	.LBB584:
 1081              	.LBI571:
 482:MidiController.cpp ****     if (note < 128 && activeNotes_[note]) {
 1082              		.loc 1 482 6 view .LVU268
 1083              	.LBE584:
 1084              	.LBE590:
 1085              	.LBE594:
 1086              	.LBE599:
 1087              	.LBE604:
 483:MidiController.cpp ****         activeNotes_[note] = false;
 1088              		.loc 1 483 5 view .LVU269
 1089              	.LBB605:
 1090              	.LBB600:
 1091              	.LBB595:
 1092              	.LBB591:
 1093              	.LBB585:
 1094              	.LBB578:
 1095              	.LBI572:
 482:MidiController.cpp ****     if (note < 128 && activeNotes_[note]) {
 1096              		.loc 1 482 6 view .LVU270
 1097              	.LBE578:
 1098              	.LBE585:
 1099              	.LBB586:
 1100              	.LBB562:
 374:MidiController.cpp **** }
 1101              		.loc 1 374 16 is_stmt 0 view .LVU271
 1102 006c 82F8B645 		strb	r4, [r2, #1462]
 1103              	.LBE562:
 1104              	.LBE586:
 1105              	.LBB587:
 1106              	.LBB579:
 1107              	.LBB575:
 483:MidiController.cpp ****         activeNotes_[note] = false;
 1108              		.loc 1 483 20 view .LVU272
 1109 0070 C15C     		ldrb	r1, [r0, r3]	@ zero_extendqisi2
 1110              	.LVL55:
 483:MidiController.cpp ****         activeNotes_[note] = false;
 1111              		.loc 1 483 20 view .LVU273
 1112 0072 39B1     		cbz	r1, .L33
 484:MidiController.cpp ****         if (activeNoteCount_ > 0) {
 1113              		.loc 1 484 9 is_stmt 1 view .LVU274
 484:MidiController.cpp ****         if (activeNoteCount_ > 0) {
 1114              		.loc 1 484 28 is_stmt 0 view .LVU275
 1115 0074 0021     		movs	r1, #0
 1116 0076 C154     		strb	r1, [r0, r3]
ARM GAS  C:\Users\Marco\AppData\Local\Temp\ccVZoccs.s 			page 45


 485:MidiController.cpp ****             activeNoteCount_--;
 1117              		.loc 1 485 9 is_stmt 1 view .LVU276
 485:MidiController.cpp ****             activeNoteCount_--;
 1118              		.loc 1 485 13 is_stmt 0 view .LVU277
 1119 0078 92F84136 		ldrb	r3, [r2, #1601]	@ zero_extendqisi2
 485:MidiController.cpp ****             activeNoteCount_--;
 1120              		.loc 1 485 9 view .LVU278
 1121 007c 13B1     		cbz	r3, .L33
 486:MidiController.cpp ****         }
 1122              		.loc 1 486 13 is_stmt 1 view .LVU279
 486:MidiController.cpp ****         }
 1123              		.loc 1 486 29 is_stmt 0 view .LVU280
 1124 007e 013B     		subs	r3, r3, #1
 1125 0080 82F84136 		strb	r3, [r2, #1601]
 1126              	.LVL56:
 1127              	.L33:
 486:MidiController.cpp ****         }
 1128              		.loc 1 486 29 view .LVU281
 1129              	.LBE575:
 1130              	.LBE579:
 1131              	.LBE587:
 1132              	.LBE591:
 1133              	.LBE595:
 1134              	.LBE600:
 1135              	.LBE605:
  68:MidiController.cpp **** 
 1136              		.loc 1 68 1 view .LVU282
 1137 0084 30BD     		pop	{r4, r5, pc}
 1138              	.LVL57:
 1139              	.L46:
 1140              		.cfi_def_cfa_offset 0
 1141              		.cfi_restore 4
 1142              		.cfi_restore 5
 1143              		.cfi_restore 14
 1144              	.LBB606:
 1145              	.LBB601:
 1146              	.LBB596:
 1147              	.LBB592:
  77:MidiController.cpp **** }
 1148              		.loc 1 77 5 is_stmt 1 view .LVU283
 1149              	.LBB588:
 482:MidiController.cpp ****     if (note < 128 && activeNotes_[note]) {
 1150              		.loc 1 482 6 view .LVU284
 1151              	.LBE588:
 1152              	.LBE592:
 1153              	.LBE596:
 1154              	.LBE601:
 1155              	.LBE606:
 483:MidiController.cpp ****         activeNotes_[note] = false;
 1156              		.loc 1 483 5 view .LVU285
 1157              	.LBB607:
 1158              	.LBB602:
 1159              	.LBB597:
 1160              	.LBB593:
 1161              	.LBB589:
 1162              	.LBB580:
 482:MidiController.cpp ****     if (note < 128 && activeNotes_[note]) {
ARM GAS  C:\Users\Marco\AppData\Local\Temp\ccVZoccs.s 			page 46


 1163              		.loc 1 482 6 view .LVU286
 1164              	.LBB576:
 483:MidiController.cpp ****         activeNotes_[note] = false;
 1165              		.loc 1 483 40 is_stmt 0 view .LVU287
 1166 0086 0844     		add	r0, r0, r1
 1167              	.LVL58:
 483:MidiController.cpp ****         activeNotes_[note] = false;
 1168              		.loc 1 483 40 view .LVU288
 1169 0088 084B     		ldr	r3, .L52+8
 483:MidiController.cpp ****         activeNotes_[note] = false;
 1170              		.loc 1 483 20 view .LVU289
 1171 008a C15C     		ldrb	r1, [r0, r3]	@ zero_extendqisi2
 1172              	.LVL59:
 483:MidiController.cpp ****         activeNotes_[note] = false;
 1173              		.loc 1 483 20 view .LVU290
 1174 008c 01B9     		cbnz	r1, .L51
 1175              	.LVL60:
 1176              	.L45:
 483:MidiController.cpp ****         activeNotes_[note] = false;
 1177              		.loc 1 483 20 view .LVU291
 1178 008e 7047     		bx	lr
 1179              	.LVL61:
 1180              	.L51:
 484:MidiController.cpp ****         if (activeNoteCount_ > 0) {
 1181              		.loc 1 484 9 is_stmt 1 view .LVU292
 484:MidiController.cpp ****         if (activeNoteCount_ > 0) {
 1182              		.loc 1 484 28 is_stmt 0 view .LVU293
 1183 0090 0021     		movs	r1, #0
 1184 0092 C154     		strb	r1, [r0, r3]
 1185              	.LVL62:
 485:MidiController.cpp ****             activeNoteCount_--;
 1186              		.loc 1 485 9 is_stmt 1 view .LVU294
 485:MidiController.cpp ****             activeNoteCount_--;
 1187              		.loc 1 485 13 is_stmt 0 view .LVU295
 1188 0094 92F84136 		ldrb	r3, [r2, #1601]	@ zero_extendqisi2
 485:MidiController.cpp ****             activeNoteCount_--;
 1189              		.loc 1 485 9 view .LVU296
 1190 0098 002B     		cmp	r3, #0
 1191 009a F8D0     		beq	.L45
 486:MidiController.cpp ****         }
 1192              		.loc 1 486 13 is_stmt 1 view .LVU297
 486:MidiController.cpp ****         }
 1193              		.loc 1 486 29 is_stmt 0 view .LVU298
 1194 009c 013B     		subs	r3, r3, #1
 1195 009e 82F84136 		strb	r3, [r2, #1601]
 1196              	.LVL63:
 486:MidiController.cpp ****         }
 1197              		.loc 1 486 29 view .LVU299
 1198 00a2 7047     		bx	lr
 1199              	.L53:
 1200              		.align	2
 1201              	.L52:
 1202 00a4 B4220100 		.word	74420
 1203 00a8 B5220100 		.word	74421
 1204 00ac C1250100 		.word	75201
 1205              	.LBE576:
 1206              	.LBE580:
ARM GAS  C:\Users\Marco\AppData\Local\Temp\ccVZoccs.s 			page 47


 1207              	.LBE589:
 1208              	.LBE593:
 1209              	.LBE597:
 1210              	.LBE602:
 1211              	.LBE607:
 1212              		.cfi_endproc
 1213              	.LFE2569:
 1215              		.section	.text._ZN14MidiController11SendNoteOffEhh,"ax",%progbits
 1216              		.align	1
 1217              		.p2align 2,,3
 1218              		.global	_ZN14MidiController11SendNoteOffEhh
 1219              		.syntax unified
 1220              		.thumb
 1221              		.thumb_func
 1222              		.fpu fpv5-d16
 1224              	_ZN14MidiController11SendNoteOffEhh:
 1225              	.LVL64:
 1226              	.LFB2570:
  70:MidiController.cpp ****     if (!enabled_ || !IsValidNote(note) || !IsValidVelocity(velocity)) {
 1227              		.loc 1 70 66 is_stmt 1 view -0
 1228              		.cfi_startproc
 1229              		@ args = 0, pretend = 0, frame = 0
 1230              		@ frame_needed = 0, uses_anonymous_args = 0
  71:MidiController.cpp ****         return;
 1231              		.loc 1 71 5 view .LVU301
  71:MidiController.cpp ****         return;
 1232              		.loc 1 71 10 is_stmt 0 view .LVU302
 1233 0000 00F5903C 		add	ip, r0, #73728
  71:MidiController.cpp ****         return;
 1234              		.loc 1 71 41 view .LVU303
 1235 0004 9CF8AE32 		ldrb	r3, [ip, #686]	@ zero_extendqisi2
 1236 0008 002B     		cmp	r3, #0
 1237 000a 40D0     		beq	.L66
 1238              	.LVL65:
 1239              	.LBB632:
 1240              	.LBI632:
 463:MidiController.cpp ****     return note <= 127;
 1241              		.loc 1 463 6 is_stmt 1 view .LVU304
 1242              	.LBB633:
 464:MidiController.cpp **** }
 1243              		.loc 1 464 5 view .LVU305
 464:MidiController.cpp **** }
 1244              		.loc 1 464 5 is_stmt 0 view .LVU306
 1245              	.LBE633:
 1246              	.LBE632:
  71:MidiController.cpp ****         return;
 1247              		.loc 1 71 19 view .LVU307
 1248 000c 0B06     		lsls	r3, r1, #24
 1249 000e 3ED4     		bmi	.L66
 1250              	.LVL66:
 1251              	.LBB634:
 1252              	.LBI634:
 467:MidiController.cpp ****     return velocity <= 127;
 1253              		.loc 1 467 6 is_stmt 1 view .LVU308
 1254              	.LBB635:
 468:MidiController.cpp **** }
 1255              		.loc 1 468 5 view .LVU309
ARM GAS  C:\Users\Marco\AppData\Local\Temp\ccVZoccs.s 			page 48


 468:MidiController.cpp **** }
 1256              		.loc 1 468 5 is_stmt 0 view .LVU310
 1257              	.LBE635:
 1258              	.LBE634:
  71:MidiController.cpp ****         return;
 1259              		.loc 1 71 41 view .LVU311
 1260 0010 1306     		lsls	r3, r2, #24
 1261 0012 3CD4     		bmi	.L66
 1262              	.LVL67:
 1263              	.LBB636:
 1264              	.LBI636:
  70:MidiController.cpp ****     if (!enabled_ || !IsValidNote(note) || !IsValidVelocity(velocity)) {
 1265              		.loc 1 70 6 is_stmt 1 view .LVU312
 1266              	.LBB637:
  75:MidiController.cpp ****     QueueMessage(status, note, velocity);
 1267              		.loc 1 75 5 view .LVU313
 1268              	.LBB638:
 1269              	.LBI638:
 455:MidiController.cpp ****     return (uint8_t)messageType | ((channel - 1) & 0x0F);
 1270              		.loc 1 455 9 view .LVU314
 1271              	.LBB639:
 456:MidiController.cpp **** }
 1272              		.loc 1 456 5 view .LVU315
 456:MidiController.cpp **** }
 1273              		.loc 1 456 5 is_stmt 0 view .LVU316
 1274              	.LBE639:
 1275              	.LBE638:
  76:MidiController.cpp ****     TrackNoteOff(note);
 1276              		.loc 1 76 5 is_stmt 1 view .LVU317
 1277              	.LBB644:
 1278              	.LBI644:
 361:MidiController.cpp ****     if (IsQueueFull()) {
 1279              		.loc 1 361 6 view .LVU318
 1280              	.LBB645:
 362:MidiController.cpp ****         return; // Queue is full, drop message
 1281              		.loc 1 362 5 view .LVU319
 1282              	.LBB646:
 1283              	.LBI646:
 410:MidiController.cpp ****     return queueCount_ >= MESSAGE_QUEUE_SIZE;
 1284              		.loc 1 410 6 view .LVU320
 1285              	.LBB647:
 411:MidiController.cpp **** }
 1286              		.loc 1 411 5 view .LVU321
 411:MidiController.cpp **** }
 1287              		.loc 1 411 12 is_stmt 0 view .LVU322
 1288 0014 9CF8B635 		ldrb	r3, [ip, #1462]	@ zero_extendqisi2
 1289              	.LVL68:
 411:MidiController.cpp **** }
 1290              		.loc 1 411 12 view .LVU323
 1291              	.LBE647:
 1292              	.LBE646:
 362:MidiController.cpp ****         return; // Queue is full, drop message
 1293              		.loc 1 362 5 view .LVU324
 1294 0018 3F2B     		cmp	r3, #63
 1295 001a 34D8     		bhi	.L67
 366:MidiController.cpp ****     msg.status = status;
 1296              		.loc 1 366 5 is_stmt 1 view .LVU325
ARM GAS  C:\Users\Marco\AppData\Local\Temp\ccVZoccs.s 			page 49


 1297              	.LBE645:
 1298              	.LBE644:
 1299              	.LBE637:
 1300              	.LBE636:
  70:MidiController.cpp ****     if (!enabled_ || !IsValidNote(note) || !IsValidVelocity(velocity)) {
 1301              		.loc 1 70 66 is_stmt 0 view .LVU326
 1302 001c F0B5     		push	{r4, r5, r6, r7, lr}
 1303              		.cfi_def_cfa_offset 20
 1304              		.cfi_offset 4, -20
 1305              		.cfi_offset 5, -16
 1306              		.cfi_offset 6, -12
 1307              		.cfi_offset 7, -8
 1308              		.cfi_offset 14, -4
 1309              	.LBB680:
 1310              	.LBB676:
 1311              	.LBB653:
 1312              	.LBB640:
 456:MidiController.cpp **** }
 1313              		.loc 1 456 45 view .LVU327
 1314 001e 9CF8AC42 		ldrb	r4, [ip, #684]	@ zero_extendqisi2
 1315              	.LBE640:
 1316              	.LBE653:
 1317              	.LBB654:
 1318              	.LBB648:
 374:MidiController.cpp **** }
 1319              		.loc 1 374 16 view .LVU328
 1320 0022 5D1C     		adds	r5, r3, #1
 366:MidiController.cpp ****     msg.status = status;
 1321              		.loc 1 366 38 view .LVU329
 1322 0024 9CF8B535 		ldrb	r3, [ip, #1461]	@ zero_extendqisi2
 1323              	.LVL69:
 367:MidiController.cpp ****     msg.data1 = data1;
 1324              		.loc 1 367 5 is_stmt 1 view .LVU330
 1325              	.LBE648:
 1326              	.LBE654:
 1327              	.LBB655:
 1328              	.LBB641:
 456:MidiController.cpp **** }
 1329              		.loc 1 456 45 is_stmt 0 view .LVU331
 1330 0028 013C     		subs	r4, r4, #1
 1331              	.LBE641:
 1332              	.LBE655:
 1333              	.LBB656:
 1334              	.LBB649:
 367:MidiController.cpp ****     msg.data1 = data1;
 1335              		.loc 1 367 16 view .LVU332
 1336 002a 1E4F     		ldr	r7, .L73
 1337 002c 03EB430E 		add	lr, r3, r3, lsl #1
 368:MidiController.cpp ****     msg.data2 = data2;
 1338              		.loc 1 368 15 view .LVU333
 1339 0030 1D4E     		ldr	r6, .L73+4
 1340              	.LBE649:
 1341              	.LBE656:
 1342              	.LBB657:
 1343              	.LBB642:
 456:MidiController.cpp **** }
 1344              		.loc 1 456 50 view .LVU334
ARM GAS  C:\Users\Marco\AppData\Local\Temp\ccVZoccs.s 			page 50


 1345 0032 04F00F04 		and	r4, r4, #15
 1346              	.LBE642:
 1347              	.LBE657:
 1348              	.LBB658:
 1349              	.LBB650:
 373:MidiController.cpp ****     queueCount_++;
 1350              		.loc 1 373 30 view .LVU335
 1351 0036 0133     		adds	r3, r3, #1
 1352              	.LVL70:
 367:MidiController.cpp ****     msg.data1 = data1;
 1353              		.loc 1 367 16 view .LVU336
 1354 0038 00EB8E0E 		add	lr, r0, lr, lsl #2
 1355              	.LBE650:
 1356              	.LBE658:
 1357              	.LBB659:
 1358              	.LBB660:
 1359              	.LBB661:
 483:MidiController.cpp ****         activeNotes_[note] = false;
 1360              		.loc 1 483 40 view .LVU337
 1361 003c 0844     		add	r0, r0, r1
 1362              	.LVL71:
 483:MidiController.cpp ****         activeNotes_[note] = false;
 1363              		.loc 1 483 40 view .LVU338
 1364              	.LBE661:
 1365              	.LBE660:
 1366              	.LBE659:
 1367              	.LBB668:
 1368              	.LBB643:
 456:MidiController.cpp **** }
 1369              		.loc 1 456 33 view .LVU339
 1370 003e 64F07F04 		orn	r4, r4, #127
 1371              	.LBE643:
 1372              	.LBE668:
 1373              	.LBB669:
 1374              	.LBB651:
 373:MidiController.cpp ****     queueCount_++;
 1375              		.loc 1 373 35 view .LVU340
 1376 0042 03F03F03 		and	r3, r3, #63
 1377              	.LVL72:
 367:MidiController.cpp ****     msg.data1 = data1;
 1378              		.loc 1 367 16 view .LVU341
 1379 0046 0EF80740 		strb	r4, [lr, r7]
 1380              	.LVL73:
 368:MidiController.cpp ****     msg.data2 = data2;
 1381              		.loc 1 368 5 is_stmt 1 view .LVU342
 369:MidiController.cpp ****     msg.hasData2 = true;
 1382              		.loc 1 369 15 is_stmt 0 view .LVU343
 1383 004a 184C     		ldr	r4, .L73+8
 368:MidiController.cpp ****     msg.data2 = data2;
 1384              		.loc 1 368 15 view .LVU344
 1385 004c 0EF80610 		strb	r1, [lr, r6]
 369:MidiController.cpp ****     msg.hasData2 = true;
 1386              		.loc 1 369 5 is_stmt 1 view .LVU345
 369:MidiController.cpp ****     msg.hasData2 = true;
 1387              		.loc 1 369 15 is_stmt 0 view .LVU346
 1388 0050 0EF80420 		strb	r2, [lr, r4]
 370:MidiController.cpp ****     msg.timestamp = lastActivityTime_; // TODO: Get actual timestamp
ARM GAS  C:\Users\Marco\AppData\Local\Temp\ccVZoccs.s 			page 51


 1389              		.loc 1 370 5 is_stmt 1 view .LVU347
 370:MidiController.cpp ****     msg.timestamp = lastActivityTime_; // TODO: Get actual timestamp
 1390              		.loc 1 370 18 is_stmt 0 view .LVU348
 1391 0054 0124     		movs	r4, #1
 1392 0056 164A     		ldr	r2, .L73+12
 1393              	.LVL74:
 370:MidiController.cpp ****     msg.timestamp = lastActivityTime_; // TODO: Get actual timestamp
 1394              		.loc 1 370 18 view .LVU349
 1395 0058 0EF80240 		strb	r4, [lr, r2]
 371:MidiController.cpp ****     
 1396              		.loc 1 371 5 is_stmt 1 view .LVU350
 371:MidiController.cpp ****     
 1397              		.loc 1 371 19 is_stmt 0 view .LVU351
 1398 005c 043A     		subs	r2, r2, #4
 1399 005e DCF8BC45 		ldr	r4, [ip, #1468]
 1400 0062 4EF80240 		str	r4, [lr, r2]
 373:MidiController.cpp ****     queueCount_++;
 1401              		.loc 1 373 5 is_stmt 1 view .LVU352
 373:MidiController.cpp ****     queueCount_++;
 1402              		.loc 1 373 16 is_stmt 0 view .LVU353
 1403 0066 8CF8B535 		strb	r3, [ip, #1461]
 1404              	.LVL75:
 374:MidiController.cpp **** }
 1405              		.loc 1 374 5 is_stmt 1 view .LVU354
 374:MidiController.cpp **** }
 1406              		.loc 1 374 5 is_stmt 0 view .LVU355
 1407              	.LBE651:
 1408              	.LBE669:
  77:MidiController.cpp **** }
 1409              		.loc 1 77 5 is_stmt 1 view .LVU356
 1410              	.LBB670:
 1411              	.LBI659:
 482:MidiController.cpp ****     if (note < 128 && activeNotes_[note]) {
 1412              		.loc 1 482 6 view .LVU357
 1413              	.LBE670:
 1414              	.LBE676:
 1415              	.LBE680:
 483:MidiController.cpp ****         activeNotes_[note] = false;
 1416              		.loc 1 483 5 view .LVU358
 1417              	.LBB681:
 1418              	.LBB677:
 1419              	.LBB671:
 1420              	.LBB665:
 1421              	.LBI660:
 482:MidiController.cpp ****     if (note < 128 && activeNotes_[note]) {
 1422              		.loc 1 482 6 view .LVU359
 1423              	.LBB662:
 483:MidiController.cpp ****         activeNotes_[note] = false;
 1424              		.loc 1 483 40 is_stmt 0 view .LVU360
 1425 006a 124B     		ldr	r3, .L73+16
 1426              	.LBE662:
 1427              	.LBE665:
 1428              	.LBE671:
 1429              	.LBB672:
 1430              	.LBB652:
 374:MidiController.cpp **** }
 1431              		.loc 1 374 16 view .LVU361
ARM GAS  C:\Users\Marco\AppData\Local\Temp\ccVZoccs.s 			page 52


 1432 006c 8CF8B655 		strb	r5, [ip, #1462]
 1433              	.LBE652:
 1434              	.LBE672:
 1435              	.LBB673:
 1436              	.LBB666:
 1437              	.LBB663:
 483:MidiController.cpp ****         activeNotes_[note] = false;
 1438              		.loc 1 483 20 view .LVU362
 1439 0070 C25C     		ldrb	r2, [r0, r3]	@ zero_extendqisi2
 1440 0072 3AB1     		cbz	r2, .L54
 484:MidiController.cpp ****         if (activeNoteCount_ > 0) {
 1441              		.loc 1 484 9 is_stmt 1 view .LVU363
 484:MidiController.cpp ****         if (activeNoteCount_ > 0) {
 1442              		.loc 1 484 28 is_stmt 0 view .LVU364
 1443 0074 0022     		movs	r2, #0
 1444 0076 C254     		strb	r2, [r0, r3]
 485:MidiController.cpp ****             activeNoteCount_--;
 1445              		.loc 1 485 9 is_stmt 1 view .LVU365
 485:MidiController.cpp ****             activeNoteCount_--;
 1446              		.loc 1 485 13 is_stmt 0 view .LVU366
 1447 0078 9CF84136 		ldrb	r3, [ip, #1601]	@ zero_extendqisi2
 485:MidiController.cpp ****             activeNoteCount_--;
 1448              		.loc 1 485 9 view .LVU367
 1449 007c 13B1     		cbz	r3, .L54
 486:MidiController.cpp ****         }
 1450              		.loc 1 486 13 is_stmt 1 view .LVU368
 486:MidiController.cpp ****         }
 1451              		.loc 1 486 29 is_stmt 0 view .LVU369
 1452 007e 013B     		subs	r3, r3, #1
 1453 0080 8CF84136 		strb	r3, [ip, #1601]
 1454              	.LVL76:
 1455              	.L54:
 486:MidiController.cpp ****         }
 1456              		.loc 1 486 29 view .LVU370
 1457              	.LBE663:
 1458              	.LBE666:
 1459              	.LBE673:
 1460              	.LBE677:
 1461              	.LBE681:
  78:MidiController.cpp **** 
 1462              		.loc 1 78 1 view .LVU371
 1463 0084 F0BD     		pop	{r4, r5, r6, r7, pc}
 1464              	.LVL77:
 1465              	.L67:
 1466              		.cfi_def_cfa_offset 0
 1467              		.cfi_restore 4
 1468              		.cfi_restore 5
 1469              		.cfi_restore 6
 1470              		.cfi_restore 7
 1471              		.cfi_restore 14
 1472              	.LBB682:
 1473              	.LBB678:
  77:MidiController.cpp **** }
 1474              		.loc 1 77 5 is_stmt 1 view .LVU372
 1475              	.LBB674:
 482:MidiController.cpp ****     if (note < 128 && activeNotes_[note]) {
 1476              		.loc 1 482 6 view .LVU373
ARM GAS  C:\Users\Marco\AppData\Local\Temp\ccVZoccs.s 			page 53


 1477              	.LBE674:
 1478              	.LBE678:
 1479              	.LBE682:
 483:MidiController.cpp ****         activeNotes_[note] = false;
 1480              		.loc 1 483 5 view .LVU374
 1481              	.LBB683:
 1482              	.LBB679:
 1483              	.LBB675:
 1484              	.LBB667:
 482:MidiController.cpp ****     if (note < 128 && activeNotes_[note]) {
 1485              		.loc 1 482 6 view .LVU375
 1486              	.LBB664:
 483:MidiController.cpp ****         activeNotes_[note] = false;
 1487              		.loc 1 483 40 is_stmt 0 view .LVU376
 1488 0086 0844     		add	r0, r0, r1
 1489              	.LVL78:
 483:MidiController.cpp ****         activeNotes_[note] = false;
 1490              		.loc 1 483 40 view .LVU377
 1491 0088 0A4B     		ldr	r3, .L73+16
 483:MidiController.cpp ****         activeNotes_[note] = false;
 1492              		.loc 1 483 20 view .LVU378
 1493 008a C25C     		ldrb	r2, [r0, r3]	@ zero_extendqisi2
 1494              	.LVL79:
 483:MidiController.cpp ****         activeNotes_[note] = false;
 1495              		.loc 1 483 20 view .LVU379
 1496 008c 02B9     		cbnz	r2, .L72
 1497              	.LVL80:
 1498              	.L66:
 483:MidiController.cpp ****         activeNotes_[note] = false;
 1499              		.loc 1 483 20 view .LVU380
 1500 008e 7047     		bx	lr
 1501              	.LVL81:
 1502              	.L72:
 484:MidiController.cpp ****         if (activeNoteCount_ > 0) {
 1503              		.loc 1 484 9 is_stmt 1 view .LVU381
 484:MidiController.cpp ****         if (activeNoteCount_ > 0) {
 1504              		.loc 1 484 28 is_stmt 0 view .LVU382
 1505 0090 0022     		movs	r2, #0
 1506 0092 C254     		strb	r2, [r0, r3]
 1507              	.LVL82:
 485:MidiController.cpp ****             activeNoteCount_--;
 1508              		.loc 1 485 9 is_stmt 1 view .LVU383
 485:MidiController.cpp ****             activeNoteCount_--;
 1509              		.loc 1 485 13 is_stmt 0 view .LVU384
 1510 0094 9CF84136 		ldrb	r3, [ip, #1601]	@ zero_extendqisi2
 485:MidiController.cpp ****             activeNoteCount_--;
 1511              		.loc 1 485 9 view .LVU385
 1512 0098 002B     		cmp	r3, #0
 1513 009a F8D0     		beq	.L66
 486:MidiController.cpp ****         }
 1514              		.loc 1 486 13 is_stmt 1 view .LVU386
 486:MidiController.cpp ****         }
 1515              		.loc 1 486 29 is_stmt 0 view .LVU387
 1516 009c 013B     		subs	r3, r3, #1
 1517 009e 8CF84136 		strb	r3, [ip, #1601]
 1518              	.LVL83:
 486:MidiController.cpp ****         }
ARM GAS  C:\Users\Marco\AppData\Local\Temp\ccVZoccs.s 			page 54


 1519              		.loc 1 486 29 view .LVU388
 1520 00a2 7047     		bx	lr
 1521              	.L74:
 1522              		.align	2
 1523              	.L73:
 1524 00a4 B4220100 		.word	74420
 1525 00a8 B5220100 		.word	74421
 1526 00ac B6220100 		.word	74422
 1527 00b0 BC220100 		.word	74428
 1528 00b4 C1250100 		.word	75201
 1529              	.LBE664:
 1530              	.LBE667:
 1531              	.LBE675:
 1532              	.LBE679:
 1533              	.LBE683:
 1534              		.cfi_endproc
 1535              	.LFE2570:
 1537              		.section	.text._ZN14MidiController15SendAllNotesOffEv,"ax",%progbits
 1538              		.align	1
 1539              		.p2align 2,,3
 1540              		.global	_ZN14MidiController15SendAllNotesOffEv
 1541              		.syntax unified
 1542              		.thumb
 1543              		.thumb_func
 1544              		.fpu fpv5-d16
 1546              	_ZN14MidiController15SendAllNotesOffEv:
 1547              	.LVL84:
 1548              	.LFB2571:
  80:MidiController.cpp ****     // Send MIDI CC All Notes Off
 1549              		.loc 1 80 40 is_stmt 1 view -0
 1550              		.cfi_startproc
 1551              		@ args = 0, pretend = 0, frame = 16
 1552              		@ frame_needed = 0, uses_anonymous_args = 0
  82:MidiController.cpp ****     
 1553              		.loc 1 82 5 view .LVU390
  80:MidiController.cpp ****     // Send MIDI CC All Notes Off
 1554              		.loc 1 80 40 is_stmt 0 view .LVU391
 1555 0000 2DE9F04F 		push	{r4, r5, r6, r7, r8, r9, r10, fp, lr}
 1556              		.cfi_def_cfa_offset 36
 1557              		.cfi_offset 4, -36
 1558              		.cfi_offset 5, -32
 1559              		.cfi_offset 6, -28
 1560              		.cfi_offset 7, -24
 1561              		.cfi_offset 8, -20
 1562              		.cfi_offset 9, -16
 1563              		.cfi_offset 10, -12
 1564              		.cfi_offset 11, -8
 1565              		.cfi_offset 14, -4
 1566              	.LBB721:
 1567              	.LBB722:
  94:MidiController.cpp ****         return;
 1568              		.loc 1 94 10 view .LVU392
 1569 0004 00F5903A 		add	r10, r0, #73728
 1570              	.LBE722:
 1571              	.LBE721:
  80:MidiController.cpp ****     // Send MIDI CC All Notes Off
 1572              		.loc 1 80 40 view .LVU393
ARM GAS  C:\Users\Marco\AppData\Local\Temp\ccVZoccs.s 			page 55


 1573 0008 85B0     		sub	sp, sp, #20
 1574              		.cfi_def_cfa_offset 56
 1575              	.LBB750:
 1576              	.LBB747:
  94:MidiController.cpp ****         return;
 1577              		.loc 1 94 10 view .LVU394
 1578 000a 9AF8AE32 		ldrb	r3, [r10, #686]	@ zero_extendqisi2
 1579              	.LBE747:
 1580              	.LBE750:
  80:MidiController.cpp ****     // Send MIDI CC All Notes Off
 1581              		.loc 1 80 40 view .LVU395
 1582 000e 0390     		str	r0, [sp, #12]
 1583              	.LVL85:
 1584              	.LBB751:
 1585              	.LBI721:
  93:MidiController.cpp ****     if (!enabled_ || !IsValidController(controller)) {
 1586              		.loc 1 93 6 is_stmt 1 view .LVU396
 1587              	.LBB748:
  94:MidiController.cpp ****         return;
 1588              		.loc 1 94 5 view .LVU397
  94:MidiController.cpp ****         return;
 1589              		.loc 1 94 10 is_stmt 0 view .LVU398
 1590 0010 0193     		str	r3, [sp, #4]
  94:MidiController.cpp ****         return;
 1591              		.loc 1 94 19 view .LVU399
 1592 0012 43B3     		cbz	r3, .L76
 1593              	.LVL86:
  94:MidiController.cpp ****         return;
 1594              		.loc 1 94 19 view .LVU400
 1595              	.LBE748:
 1596              	.LBE751:
 472:MidiController.cpp **** }
 1597              		.loc 1 472 5 is_stmt 1 view .LVU401
 1598              	.LBB752:
 1599              	.LBB749:
 1600              	.LBB723:
 1601              	.LBI723:
  93:MidiController.cpp ****     if (!enabled_ || !IsValidController(controller)) {
 1602              		.loc 1 93 6 view .LVU402
 1603              	.LBB724:
  98:MidiController.cpp ****     QueueMessage(status, controller, value);
 1604              		.loc 1 98 5 view .LVU403
 1605              	.LBB725:
 1606              	.LBI725:
 455:MidiController.cpp ****     return (uint8_t)messageType | ((channel - 1) & 0x0F);
 1607              		.loc 1 455 9 view .LVU404
 1608              	.LBB726:
 456:MidiController.cpp **** }
 1609              		.loc 1 456 5 view .LVU405
 456:MidiController.cpp **** }
 1610              		.loc 1 456 5 is_stmt 0 view .LVU406
 1611              	.LBE726:
 1612              	.LBE725:
  99:MidiController.cpp **** }
 1613              		.loc 1 99 5 is_stmt 1 view .LVU407
 1614              	.LBB731:
 1615              	.LBI731:
ARM GAS  C:\Users\Marco\AppData\Local\Temp\ccVZoccs.s 			page 56


 361:MidiController.cpp ****     if (IsQueueFull()) {
 1616              		.loc 1 361 6 view .LVU408
 1617              	.LBB732:
 362:MidiController.cpp ****         return; // Queue is full, drop message
 1618              		.loc 1 362 5 view .LVU409
 1619              	.LBB733:
 1620              	.LBI733:
 410:MidiController.cpp ****     return queueCount_ >= MESSAGE_QUEUE_SIZE;
 1621              		.loc 1 410 6 view .LVU410
 1622              	.LBB734:
 411:MidiController.cpp **** }
 1623              		.loc 1 411 5 view .LVU411
 411:MidiController.cpp **** }
 1624              		.loc 1 411 12 is_stmt 0 view .LVU412
 1625 0014 9AF8B635 		ldrb	r3, [r10, #1462]	@ zero_extendqisi2
 1626              	.LVL87:
 411:MidiController.cpp **** }
 1627              		.loc 1 411 12 view .LVU413
 1628              	.LBE734:
 1629              	.LBE733:
 362:MidiController.cpp ****         return; // Queue is full, drop message
 1630              		.loc 1 362 5 view .LVU414
 1631 0018 3F2B     		cmp	r3, #63
 1632 001a 24D8     		bhi	.L76
 366:MidiController.cpp ****     msg.status = status;
 1633              		.loc 1 366 5 is_stmt 1 view .LVU415
 1634 001c 0446     		mov	r4, r0
 374:MidiController.cpp **** }
 1635              		.loc 1 374 16 is_stmt 0 view .LVU416
 1636 001e 581C     		adds	r0, r3, #1
 1637              	.LVL88:
 374:MidiController.cpp **** }
 1638              		.loc 1 374 16 view .LVU417
 1639              	.LBE732:
 1640              	.LBE731:
 1641              	.LBB739:
 1642              	.LBB727:
 456:MidiController.cpp **** }
 1643              		.loc 1 456 45 view .LVU418
 1644 0020 9AF8AC32 		ldrb	r3, [r10, #684]	@ zero_extendqisi2
 1645              	.LBE727:
 1646              	.LBE739:
 1647              	.LBB740:
 1648              	.LBB735:
 366:MidiController.cpp ****     msg.status = status;
 1649              		.loc 1 366 38 view .LVU419
 1650 0024 9AF8B525 		ldrb	r2, [r10, #1461]	@ zero_extendqisi2
 1651              	.LVL89:
 367:MidiController.cpp ****     msg.data1 = data1;
 1652              		.loc 1 367 5 is_stmt 1 view .LVU420
 1653              	.LBE735:
 1654              	.LBE740:
 1655              	.LBB741:
 1656              	.LBB728:
 456:MidiController.cpp **** }
 1657              		.loc 1 456 45 is_stmt 0 view .LVU421
 1658 0028 013B     		subs	r3, r3, #1
ARM GAS  C:\Users\Marco\AppData\Local\Temp\ccVZoccs.s 			page 57


 1659              	.LBE728:
 1660              	.LBE741:
 1661              	.LBB742:
 1662              	.LBB736:
 367:MidiController.cpp ****     msg.data1 = data1;
 1663              		.loc 1 367 16 view .LVU422
 1664 002a 02EB4201 		add	r1, r2, r2, lsl #1
 373:MidiController.cpp ****     queueCount_++;
 1665              		.loc 1 373 30 view .LVU423
 1666 002e 0132     		adds	r2, r2, #1
 1667              	.LVL90:
 373:MidiController.cpp ****     queueCount_++;
 1668              		.loc 1 373 30 view .LVU424
 1669              	.LBE736:
 1670              	.LBE742:
 1671              	.LBB743:
 1672              	.LBB729:
 456:MidiController.cpp **** }
 1673              		.loc 1 456 50 view .LVU425
 1674 0030 03F00F03 		and	r3, r3, #15
 1675              	.LBE729:
 1676              	.LBE743:
 1677              	.LBB744:
 1678              	.LBB737:
 367:MidiController.cpp ****     msg.data1 = data1;
 1679              		.loc 1 367 16 view .LVU426
 1680 0034 04EB8101 		add	r1, r4, r1, lsl #2
 1681 0038 354C     		ldr	r4, .L94
 1682              	.LVL91:
 367:MidiController.cpp ****     msg.data1 = data1;
 1683              		.loc 1 367 16 view .LVU427
 1684              	.LBE737:
 1685              	.LBE744:
 1686              	.LBB745:
 1687              	.LBB730:
 456:MidiController.cpp **** }
 1688              		.loc 1 456 33 view .LVU428
 1689 003a 63F04F03 		orn	r3, r3, #79
 1690              	.LBE730:
 1691              	.LBE745:
 1692              	.LBB746:
 1693              	.LBB738:
 373:MidiController.cpp ****     queueCount_++;
 1694              		.loc 1 373 35 view .LVU429
 1695 003e 02F03F02 		and	r2, r2, #63
 1696              	.LVL92:
 367:MidiController.cpp ****     msg.data1 = data1;
 1697              		.loc 1 367 16 view .LVU430
 1698 0042 0B55     		strb	r3, [r1, r4]
 1699              	.LVL93:
 368:MidiController.cpp ****     msg.data2 = data2;
 1700              		.loc 1 368 5 is_stmt 1 view .LVU431
 368:MidiController.cpp ****     msg.data2 = data2;
 1701              		.loc 1 368 15 is_stmt 0 view .LVU432
 1702 0044 7B24     		movs	r4, #123
 1703 0046 334B     		ldr	r3, .L94+4
 1704 0048 CC54     		strb	r4, [r1, r3]
ARM GAS  C:\Users\Marco\AppData\Local\Temp\ccVZoccs.s 			page 58


 369:MidiController.cpp ****     msg.hasData2 = true;
 1705              		.loc 1 369 5 is_stmt 1 view .LVU433
 369:MidiController.cpp ****     msg.hasData2 = true;
 1706              		.loc 1 369 15 is_stmt 0 view .LVU434
 1707 004a 0133     		adds	r3, r3, #1
 1708 004c 0024     		movs	r4, #0
 1709 004e CC54     		strb	r4, [r1, r3]
 370:MidiController.cpp ****     msg.timestamp = lastActivityTime_; // TODO: Get actual timestamp
 1710              		.loc 1 370 5 is_stmt 1 view .LVU435
 370:MidiController.cpp ****     msg.timestamp = lastActivityTime_; // TODO: Get actual timestamp
 1711              		.loc 1 370 18 is_stmt 0 view .LVU436
 1712 0050 0633     		adds	r3, r3, #6
 1713 0052 0124     		movs	r4, #1
 1714 0054 CC54     		strb	r4, [r1, r3]
 371:MidiController.cpp ****     
 1715              		.loc 1 371 5 is_stmt 1 view .LVU437
 371:MidiController.cpp ****     
 1716              		.loc 1 371 19 is_stmt 0 view .LVU438
 1717 0056 043B     		subs	r3, r3, #4
 1718 0058 DAF8BC45 		ldr	r4, [r10, #1468]
 1719 005c CC50     		str	r4, [r1, r3]
 373:MidiController.cpp ****     queueCount_++;
 1720              		.loc 1 373 5 is_stmt 1 view .LVU439
 373:MidiController.cpp ****     queueCount_++;
 1721              		.loc 1 373 16 is_stmt 0 view .LVU440
 1722 005e 8AF8B525 		strb	r2, [r10, #1461]
 374:MidiController.cpp **** }
 1723              		.loc 1 374 5 is_stmt 1 view .LVU441
 374:MidiController.cpp **** }
 1724              		.loc 1 374 16 is_stmt 0 view .LVU442
 1725 0062 8AF8B605 		strb	r0, [r10, #1462]
 1726              	.LVL94:
 1727              	.L76:
 374:MidiController.cpp **** }
 1728              		.loc 1 374 16 view .LVU443
 1729 0066 039B     		ldr	r3, [sp, #12]
 1730 0068 DFF8B880 		ldr	r8, .L94+20
 1731 006c 2A49     		ldr	r1, .L94+8
 1732 006e 9844     		add	r8, r8, r3
 1733 0070 1944     		add	r1, r1, r3
 1734              	.LBE738:
 1735              	.LBE746:
 1736              	.LBE724:
 1737              	.LBE723:
 1738              	.LBE749:
 1739              	.LBE752:
  80:MidiController.cpp ****     // Send MIDI CC All Notes Off
 1740              		.loc 1 80 40 view .LVU444
 1741 0072 C646     		mov	lr, r8
 1742 0074 4346     		mov	r3, r8
 1743 0076 01E0     		b	.L81
 1744              	.LVL95:
 1745              	.L78:
 1746              	.LBB753:
  85:MidiController.cpp ****         if (activeNotes_[i]) {
 1747              		.loc 1 85 23 discriminator 2 view .LVU445
 1748 0078 9942     		cmp	r1, r3
ARM GAS  C:\Users\Marco\AppData\Local\Temp\ccVZoccs.s 			page 59


 1749 007a 46D0     		beq	.L93
 1750              	.L81:
 1751              	.LVL96:
  86:MidiController.cpp ****             SendNoteOff(i);
 1752              		.loc 1 86 9 is_stmt 1 view .LVU446
  85:MidiController.cpp ****         if (activeNotes_[i]) {
 1753              		.loc 1 85 5 view .LVU447
  85:MidiController.cpp ****         if (activeNotes_[i]) {
 1754              		.loc 1 85 23 view .LVU448
  86:MidiController.cpp ****             SendNoteOff(i);
 1755              		.loc 1 86 9 is_stmt 0 view .LVU449
 1756 007c 13F8012F 		ldrb	r2, [r3, #1]!	@ zero_extendqisi2
 1757 0080 002A     		cmp	r2, #0
 1758 0082 F9D0     		beq	.L78
  87:MidiController.cpp ****         }
 1759              		.loc 1 87 13 is_stmt 1 view .LVU450
 1760              	.LVL97:
 1761              	.LBB754:
 1762              	.LBI754:
  66:MidiController.cpp ****     SendNoteOff(note, 64); // Default velocity
 1763              		.loc 1 66 6 view .LVU451
 1764              	.LBE754:
 1765              	.LBE753:
  67:MidiController.cpp **** }
 1766              		.loc 1 67 5 view .LVU452
 1767              	.LBB823:
 1768              	.LBB819:
 1769              	.LBB755:
 1770              	.LBI755:
  70:MidiController.cpp ****     if (!enabled_ || !IsValidNote(note) || !IsValidVelocity(velocity)) {
 1771              		.loc 1 70 6 view .LVU453
 1772              	.LBB756:
  71:MidiController.cpp ****         return;
 1773              		.loc 1 71 5 view .LVU454
  71:MidiController.cpp ****         return;
 1774              		.loc 1 71 5 is_stmt 0 view .LVU455
 1775              	.LBE756:
 1776              	.LBE755:
 1777              	.LBE819:
 1778              	.LBE823:
 464:MidiController.cpp **** }
 1779              		.loc 1 464 5 is_stmt 1 view .LVU456
 468:MidiController.cpp **** }
 1780              		.loc 1 468 5 view .LVU457
 1781              	.LBB824:
 1782              	.LBB820:
 1783              	.LBB816:
 1784              	.LBB813:
 1785              	.LBB757:
 1786              	.LBI757:
  70:MidiController.cpp ****     if (!enabled_ || !IsValidNote(note) || !IsValidVelocity(velocity)) {
 1787              		.loc 1 70 6 view .LVU458
 1788              	.LBB758:
  75:MidiController.cpp ****     QueueMessage(status, note, velocity);
 1789              		.loc 1 75 5 view .LVU459
 1790              	.LBB759:
 1791              	.LBI759:
ARM GAS  C:\Users\Marco\AppData\Local\Temp\ccVZoccs.s 			page 60


 455:MidiController.cpp ****     return (uint8_t)messageType | ((channel - 1) & 0x0F);
 1792              		.loc 1 455 9 view .LVU460
 1793              	.LBB760:
 456:MidiController.cpp **** }
 1794              		.loc 1 456 5 view .LVU461
 456:MidiController.cpp **** }
 1795              		.loc 1 456 5 is_stmt 0 view .LVU462
 1796              	.LBE760:
 1797              	.LBE759:
  76:MidiController.cpp ****     TrackNoteOff(note);
 1798              		.loc 1 76 5 is_stmt 1 view .LVU463
 1799              	.LBB765:
 1800              	.LBI765:
 361:MidiController.cpp ****     if (IsQueueFull()) {
 1801              		.loc 1 361 6 view .LVU464
 1802              	.LBB766:
 362:MidiController.cpp ****         return; // Queue is full, drop message
 1803              		.loc 1 362 5 view .LVU465
 1804              	.LBB767:
 1805              	.LBI767:
 410:MidiController.cpp ****     return queueCount_ >= MESSAGE_QUEUE_SIZE;
 1806              		.loc 1 410 6 view .LVU466
 1807              	.LBB768:
 411:MidiController.cpp **** }
 1808              		.loc 1 411 5 view .LVU467
 1809              	.LBE768:
 1810              	.LBE767:
 366:MidiController.cpp ****     msg.status = status;
 1811              		.loc 1 366 5 view .LVU468
 366:MidiController.cpp ****     msg.status = status;
 1812              		.loc 1 366 5 is_stmt 0 view .LVU469
 1813              	.LBE766:
 1814              	.LBE765:
  77:MidiController.cpp **** }
 1815              		.loc 1 77 5 is_stmt 1 view .LVU470
 1816              	.LBB778:
 1817              	.LBI778:
 482:MidiController.cpp ****     if (note < 128 && activeNotes_[note]) {
 1818              		.loc 1 482 6 view .LVU471
 1819              	.LBE778:
 1820              	.LBE758:
 1821              	.LBE757:
 1822              	.LBE813:
 1823              	.LBE816:
 1824              	.LBE820:
 1825              	.LBE824:
 483:MidiController.cpp ****         activeNotes_[note] = false;
 1826              		.loc 1 483 5 view .LVU472
 1827              	.LBB825:
 1828              	.LBB821:
 1829              	.LBB817:
 1830              	.LBB814:
 1831              	.LBB809:
 1832              	.LBB805:
 1833              	.LBB789:
 1834              	.LBB779:
 1835              	.LBI779:
ARM GAS  C:\Users\Marco\AppData\Local\Temp\ccVZoccs.s 			page 61


 482:MidiController.cpp ****     if (note < 128 && activeNotes_[note]) {
 1836              		.loc 1 482 6 view .LVU473
 1837              	.LBB780:
 484:MidiController.cpp ****         if (activeNoteCount_ > 0) {
 1838              		.loc 1 484 9 view .LVU474
 1839              	.LBE780:
 1840              	.LBE779:
 1841              	.LBE789:
 1842              	.LBB790:
 1843              	.LBB771:
 368:MidiController.cpp ****     msg.data2 = data2;
 1844              		.loc 1 368 15 is_stmt 0 view .LVU475
 1845 0084 5A1E     		subs	r2, r3, #1
 1846              	.LBE771:
 1847              	.LBE790:
 1848              	.LBE805:
 1849              	.LBE809:
  71:MidiController.cpp ****         return;
 1850              		.loc 1 71 41 view .LVU476
 1851 0086 0198     		ldr	r0, [sp, #4]
 1852              	.LBB810:
 1853              	.LBB806:
 1854              	.LBB791:
 1855              	.LBB785:
 1856              	.LBB781:
 484:MidiController.cpp ****         if (activeNoteCount_ > 0) {
 1857              		.loc 1 484 28 view .LVU477
 1858 0088 0026     		movs	r6, #0
 1859              	.LBE781:
 1860              	.LBE785:
 1861              	.LBE791:
 1862              	.LBB792:
 1863              	.LBB772:
 367:MidiController.cpp ****     msg.data1 = data1;
 1864              		.loc 1 367 16 view .LVU478
 1865 008a DFF884B0 		ldr	fp, .L94
 368:MidiController.cpp ****     msg.data2 = data2;
 1866              		.loc 1 368 15 view .LVU479
 1867 008e DFF88490 		ldr	r9, .L94+4
 1868 0092 A2EB0E02 		sub	r2, r2, lr
 369:MidiController.cpp ****     msg.hasData2 = true;
 1869              		.loc 1 369 15 view .LVU480
 1870 0096 4FF04008 		mov	r8, #64
 370:MidiController.cpp ****     msg.timestamp = lastActivityTime_; // TODO: Get actual timestamp
 1871              		.loc 1 370 18 view .LVU481
 1872 009a 4FF0010C 		mov	ip, #1
 1873              	.LBE772:
 1874              	.LBE792:
 1875              	.LBE806:
 1876              	.LBE810:
  71:MidiController.cpp ****         return;
 1877              		.loc 1 71 41 view .LVU482
 1878 009e 0028     		cmp	r0, #0
 1879 00a0 EAD0     		beq	.L78
 1880              	.LBB811:
 1881              	.LBB807:
 1882              	.LBB793:
ARM GAS  C:\Users\Marco\AppData\Local\Temp\ccVZoccs.s 			page 62


 1883              	.LBB786:
 1884              	.LBB782:
 486:MidiController.cpp ****         }
 1885              		.loc 1 486 13 is_stmt 1 view .LVU483
 1886              	.LBE782:
 1887              	.LBE786:
 1888              	.LBE793:
 1889              	.LBB794:
 1890              	.LBB773:
 1891              	.LBB770:
 1892              	.LBB769:
 411:MidiController.cpp **** }
 1893              		.loc 1 411 12 is_stmt 0 view .LVU484
 1894 00a2 9AF8B605 		ldrb	r0, [r10, #1462]	@ zero_extendqisi2
 1895              	.LBE769:
 1896              	.LBE770:
 362:MidiController.cpp ****         return; // Queue is full, drop message
 1897              		.loc 1 362 5 view .LVU485
 1898 00a6 3F28     		cmp	r0, #63
 374:MidiController.cpp **** }
 1899              		.loc 1 374 16 view .LVU486
 1900 00a8 6044     		add	r0, r0, ip
 1901 00aa 0290     		str	r0, [sp, #8]
 362:MidiController.cpp ****         return; // Queue is full, drop message
 1902              		.loc 1 362 5 view .LVU487
 1903 00ac 23D8     		bhi	.L80
 1904              	.LBE773:
 1905              	.LBE794:
 1906              	.LBB795:
 1907              	.LBB761:
 456:MidiController.cpp **** }
 1908              		.loc 1 456 45 view .LVU488
 1909 00ae 9AF8AC52 		ldrb	r5, [r10, #684]	@ zero_extendqisi2
 1910              	.LBE761:
 1911              	.LBE795:
 1912              	.LBB796:
 1913              	.LBB774:
 366:MidiController.cpp ****     msg.status = status;
 1914              		.loc 1 366 38 view .LVU489
 1915 00b2 9AF8B505 		ldrb	r0, [r10, #1461]	@ zero_extendqisi2
 1916              	.LVL98:
 367:MidiController.cpp ****     msg.data1 = data1;
 1917              		.loc 1 367 5 is_stmt 1 view .LVU490
 1918              	.LBE774:
 1919              	.LBE796:
 1920              	.LBB797:
 1921              	.LBB762:
 456:MidiController.cpp **** }
 1922              		.loc 1 456 45 is_stmt 0 view .LVU491
 1923 00b6 013D     		subs	r5, r5, #1
 1924              	.LBE762:
 1925              	.LBE797:
 1926              	.LBB798:
 1927              	.LBB775:
 367:MidiController.cpp ****     msg.data1 = data1;
 1928              		.loc 1 367 16 view .LVU492
 1929 00b8 039F     		ldr	r7, [sp, #12]
ARM GAS  C:\Users\Marco\AppData\Local\Temp\ccVZoccs.s 			page 63


 1930 00ba 00EB4004 		add	r4, r0, r0, lsl #1
 373:MidiController.cpp ****     queueCount_++;
 1931              		.loc 1 373 30 view .LVU493
 1932 00be 6044     		add	r0, r0, ip
 1933              	.LVL99:
 373:MidiController.cpp ****     queueCount_++;
 1934              		.loc 1 373 30 view .LVU494
 1935              	.LBE775:
 1936              	.LBE798:
 1937              	.LBB799:
 1938              	.LBB763:
 456:MidiController.cpp **** }
 1939              		.loc 1 456 50 view .LVU495
 1940 00c0 05F00F05 		and	r5, r5, #15
 1941              	.LBE763:
 1942              	.LBE799:
 1943              	.LBB800:
 1944              	.LBB776:
 367:MidiController.cpp ****     msg.data1 = data1;
 1945              		.loc 1 367 16 view .LVU496
 1946 00c4 07EB8404 		add	r4, r7, r4, lsl #2
 373:MidiController.cpp ****     queueCount_++;
 1947              		.loc 1 373 35 view .LVU497
 1948 00c8 00F03F00 		and	r0, r0, #63
 1949              	.LVL100:
 373:MidiController.cpp ****     queueCount_++;
 1950              		.loc 1 373 35 view .LVU498
 1951              	.LBE776:
 1952              	.LBE800:
 1953              	.LBB801:
 1954              	.LBB764:
 456:MidiController.cpp **** }
 1955              		.loc 1 456 33 view .LVU499
 1956 00cc 65F07F05 		orn	r5, r5, #127
 1957              	.LBE764:
 1958              	.LBE801:
 1959              	.LBB802:
 1960              	.LBB777:
 367:MidiController.cpp ****     msg.data1 = data1;
 1961              		.loc 1 367 16 view .LVU500
 1962 00d0 04F80B50 		strb	r5, [r4, fp]
 1963              	.LVL101:
 368:MidiController.cpp ****     msg.data2 = data2;
 1964              		.loc 1 368 5 is_stmt 1 view .LVU501
 368:MidiController.cpp ****     msg.data2 = data2;
 1965              		.loc 1 368 15 is_stmt 0 view .LVU502
 1966 00d4 04F80920 		strb	r2, [r4, r9]
 369:MidiController.cpp ****     msg.hasData2 = true;
 1967              		.loc 1 369 5 is_stmt 1 view .LVU503
 369:MidiController.cpp ****     msg.hasData2 = true;
 1968              		.loc 1 369 15 is_stmt 0 view .LVU504
 1969 00d8 104D     		ldr	r5, .L94+12
 370:MidiController.cpp ****     msg.timestamp = lastActivityTime_; // TODO: Get actual timestamp
 1970              		.loc 1 370 18 view .LVU505
 1971 00da 114A     		ldr	r2, .L94+16
 369:MidiController.cpp ****     msg.hasData2 = true;
 1972              		.loc 1 369 15 view .LVU506
ARM GAS  C:\Users\Marco\AppData\Local\Temp\ccVZoccs.s 			page 64


 1973 00dc 04F80580 		strb	r8, [r4, r5]
 370:MidiController.cpp ****     msg.timestamp = lastActivityTime_; // TODO: Get actual timestamp
 1974              		.loc 1 370 5 is_stmt 1 view .LVU507
 371:MidiController.cpp ****     
 1975              		.loc 1 371 19 is_stmt 0 view .LVU508
 1976 00e0 0235     		adds	r5, r5, #2
 370:MidiController.cpp ****     msg.timestamp = lastActivityTime_; // TODO: Get actual timestamp
 1977              		.loc 1 370 18 view .LVU509
 1978 00e2 04F802C0 		strb	ip, [r4, r2]
 371:MidiController.cpp ****     
 1979              		.loc 1 371 5 is_stmt 1 view .LVU510
 371:MidiController.cpp ****     
 1980              		.loc 1 371 19 is_stmt 0 view .LVU511
 1981 00e6 DAF8BC25 		ldr	r2, [r10, #1468]
 1982 00ea 6251     		str	r2, [r4, r5]
 373:MidiController.cpp ****     queueCount_++;
 1983              		.loc 1 373 5 is_stmt 1 view .LVU512
 374:MidiController.cpp **** }
 1984              		.loc 1 374 16 is_stmt 0 view .LVU513
 1985 00ec 029A     		ldr	r2, [sp, #8]
 373:MidiController.cpp ****     queueCount_++;
 1986              		.loc 1 373 16 view .LVU514
 1987 00ee 8AF8B505 		strb	r0, [r10, #1461]
 374:MidiController.cpp **** }
 1988              		.loc 1 374 5 is_stmt 1 view .LVU515
 374:MidiController.cpp **** }
 1989              		.loc 1 374 16 is_stmt 0 view .LVU516
 1990 00f2 8AF8B625 		strb	r2, [r10, #1462]
 1991              	.L80:
 374:MidiController.cpp **** }
 1992              		.loc 1 374 16 view .LVU517
 1993              	.LBE777:
 1994              	.LBE802:
 1995              	.LBB803:
 1996              	.LBB787:
 1997              	.LBB783:
 484:MidiController.cpp ****         if (activeNoteCount_ > 0) {
 1998              		.loc 1 484 28 view .LVU518
 1999 00f6 1E70     		strb	r6, [r3]
 485:MidiController.cpp ****             activeNoteCount_--;
 2000              		.loc 1 485 9 is_stmt 1 view .LVU519
 485:MidiController.cpp ****             activeNoteCount_--;
 2001              		.loc 1 485 13 is_stmt 0 view .LVU520
 2002 00f8 9AF84126 		ldrb	r2, [r10, #1601]	@ zero_extendqisi2
 486:MidiController.cpp ****         }
 2003              		.loc 1 486 29 view .LVU521
 2004 00fc 501E     		subs	r0, r2, #1
 485:MidiController.cpp ****             activeNoteCount_--;
 2005              		.loc 1 485 9 view .LVU522
 2006 00fe 002A     		cmp	r2, #0
 2007 0100 BAD0     		beq	.L78
 2008              	.LBE783:
 2009              	.LBE787:
 2010              	.LBE803:
 2011              	.LBE807:
 2012              	.LBE811:
 2013              	.LBE814:
ARM GAS  C:\Users\Marco\AppData\Local\Temp\ccVZoccs.s 			page 65


 2014              	.LBE817:
 2015              	.LBE821:
  85:MidiController.cpp ****         if (activeNotes_[i]) {
 2016              		.loc 1 85 23 view .LVU523
 2017 0102 9942     		cmp	r1, r3
 2018              	.LBB822:
 2019              	.LBB818:
 2020              	.LBB815:
 2021              	.LBB812:
 2022              	.LBB808:
 2023              	.LBB804:
 2024              	.LBB788:
 2025              	.LBB784:
 486:MidiController.cpp ****         }
 2026              		.loc 1 486 29 view .LVU524
 2027 0104 8AF84106 		strb	r0, [r10, #1601]
 2028              	.LBE784:
 2029              	.LBE788:
 2030              	.LBE804:
 2031              	.LBE808:
 2032              	.LBE812:
 2033              	.LBE815:
 2034              	.LBE818:
 2035              	.LBE822:
  85:MidiController.cpp ****         if (activeNotes_[i]) {
 2036              		.loc 1 85 23 view .LVU525
 2037 0108 B8D1     		bne	.L81
 2038              	.LVL102:
 2039              	.L93:
  85:MidiController.cpp ****         if (activeNotes_[i]) {
 2040              		.loc 1 85 23 view .LVU526
 2041              	.LBE825:
  90:MidiController.cpp **** 
 2042              		.loc 1 90 1 view .LVU527
 2043 010a 05B0     		add	sp, sp, #20
 2044              		.cfi_def_cfa_offset 36
 2045              		@ sp needed
 2046 010c BDE8F08F 		pop	{r4, r5, r6, r7, r8, r9, r10, fp, pc}
 2047              	.LVL103:
 2048              	.L95:
  90:MidiController.cpp **** 
 2049              		.loc 1 90 1 view .LVU528
 2050              		.align	2
 2051              	.L94:
 2052 0110 B4220100 		.word	74420
 2053 0114 B5220100 		.word	74421
 2054 0118 40260100 		.word	75328
 2055 011c B6220100 		.word	74422
 2056 0120 BC220100 		.word	74428
 2057 0124 C0250100 		.word	75200
 2058              		.cfi_endproc
 2059              	.LFE2571:
 2061              		.section	.text._ZN14MidiController17SendControlChangeEhh,"ax",%progbits
 2062              		.align	1
 2063              		.p2align 2,,3
 2064              		.global	_ZN14MidiController17SendControlChangeEhh
 2065              		.syntax unified
ARM GAS  C:\Users\Marco\AppData\Local\Temp\ccVZoccs.s 			page 66


 2066              		.thumb
 2067              		.thumb_func
 2068              		.fpu fpv5-d16
 2070              	_ZN14MidiController17SendControlChangeEhh:
 2071              	.LVL104:
 2072              	.LFB2572:
  93:MidiController.cpp ****     if (!enabled_ || !IsValidController(controller)) {
 2073              		.loc 1 93 75 is_stmt 1 view -0
 2074              		.cfi_startproc
 2075              		@ args = 0, pretend = 0, frame = 0
 2076              		@ frame_needed = 0, uses_anonymous_args = 0
  94:MidiController.cpp ****         return;
 2077              		.loc 1 94 5 view .LVU530
  93:MidiController.cpp ****     if (!enabled_ || !IsValidController(controller)) {
 2078              		.loc 1 93 75 is_stmt 0 view .LVU531
 2079 0000 F0B5     		push	{r4, r5, r6, r7, lr}
 2080              		.cfi_def_cfa_offset 20
 2081              		.cfi_offset 4, -20
 2082              		.cfi_offset 5, -16
 2083              		.cfi_offset 6, -12
 2084              		.cfi_offset 7, -8
 2085              		.cfi_offset 14, -4
  94:MidiController.cpp ****         return;
 2086              		.loc 1 94 10 view .LVU532
 2087 0002 00F5903E 		add	lr, r0, #73728
  94:MidiController.cpp ****         return;
 2088              		.loc 1 94 19 view .LVU533
 2089 0006 9EF8AE32 		ldrb	r3, [lr, #686]	@ zero_extendqisi2
 2090 000a 4BB3     		cbz	r3, .L96
 2091              	.LVL105:
 2092              	.LBB838:
 2093              	.LBI838:
 471:MidiController.cpp ****     return controller <= 127;
 2094              		.loc 1 471 6 is_stmt 1 view .LVU534
 2095              	.LBB839:
 472:MidiController.cpp **** }
 2096              		.loc 1 472 5 view .LVU535
 472:MidiController.cpp **** }
 2097              		.loc 1 472 5 is_stmt 0 view .LVU536
 2098              	.LBE839:
 2099              	.LBE838:
  94:MidiController.cpp ****         return;
 2100              		.loc 1 94 19 view .LVU537
 2101 000c 0B06     		lsls	r3, r1, #24
 2102 000e 27D4     		bmi	.L96
 2103              	.LVL106:
 2104              	.LBB840:
 2105              	.LBI840:
  93:MidiController.cpp ****     if (!enabled_ || !IsValidController(controller)) {
 2106              		.loc 1 93 6 is_stmt 1 view .LVU538
 2107              	.LBB841:
  98:MidiController.cpp ****     QueueMessage(status, controller, value);
 2108              		.loc 1 98 5 view .LVU539
 2109              	.LBB842:
 2110              	.LBI842:
 455:MidiController.cpp ****     return (uint8_t)messageType | ((channel - 1) & 0x0F);
 2111              		.loc 1 455 9 view .LVU540
ARM GAS  C:\Users\Marco\AppData\Local\Temp\ccVZoccs.s 			page 67


 2112              	.LBB843:
 456:MidiController.cpp **** }
 2113              		.loc 1 456 5 view .LVU541
 456:MidiController.cpp **** }
 2114              		.loc 1 456 5 is_stmt 0 view .LVU542
 2115              	.LBE843:
 2116              	.LBE842:
  99:MidiController.cpp **** }
 2117              		.loc 1 99 5 is_stmt 1 view .LVU543
 2118              	.LBB848:
 2119              	.LBI848:
 361:MidiController.cpp ****     if (IsQueueFull()) {
 2120              		.loc 1 361 6 view .LVU544
 2121              	.LBB849:
 362:MidiController.cpp ****         return; // Queue is full, drop message
 2122              		.loc 1 362 5 view .LVU545
 2123              	.LBB850:
 2124              	.LBI850:
 410:MidiController.cpp ****     return queueCount_ >= MESSAGE_QUEUE_SIZE;
 2125              		.loc 1 410 6 view .LVU546
 2126              	.LBB851:
 411:MidiController.cpp **** }
 2127              		.loc 1 411 5 view .LVU547
 411:MidiController.cpp **** }
 2128              		.loc 1 411 12 is_stmt 0 view .LVU548
 2129 0010 9EF8B635 		ldrb	r3, [lr, #1462]	@ zero_extendqisi2
 2130              	.LVL107:
 411:MidiController.cpp **** }
 2131              		.loc 1 411 12 view .LVU549
 2132              	.LBE851:
 2133              	.LBE850:
 362:MidiController.cpp ****         return; // Queue is full, drop message
 2134              		.loc 1 362 5 view .LVU550
 2135 0014 3F2B     		cmp	r3, #63
 2136 0016 23D8     		bhi	.L96
 366:MidiController.cpp ****     msg.status = status;
 2137              		.loc 1 366 5 is_stmt 1 view .LVU551
 2138              	.LBE849:
 2139              	.LBE848:
 2140              	.LBB856:
 2141              	.LBB844:
 456:MidiController.cpp **** }
 2142              		.loc 1 456 45 is_stmt 0 view .LVU552
 2143 0018 9EF8ACC2 		ldrb	ip, [lr, #684]	@ zero_extendqisi2
 2144              	.LBE844:
 2145              	.LBE856:
 2146              	.LBB857:
 2147              	.LBB852:
 374:MidiController.cpp **** }
 2148              		.loc 1 374 16 view .LVU553
 2149 001c 5C1C     		adds	r4, r3, #1
 366:MidiController.cpp ****     msg.status = status;
 2150              		.loc 1 366 38 view .LVU554
 2151 001e 9EF8B535 		ldrb	r3, [lr, #1461]	@ zero_extendqisi2
 2152              	.LVL108:
 367:MidiController.cpp ****     msg.data1 = data1;
 2153              		.loc 1 367 5 is_stmt 1 view .LVU555
ARM GAS  C:\Users\Marco\AppData\Local\Temp\ccVZoccs.s 			page 68


 2154              	.LBE852:
 2155              	.LBE857:
 2156              	.LBB858:
 2157              	.LBB845:
 456:MidiController.cpp **** }
 2158              		.loc 1 456 45 is_stmt 0 view .LVU556
 2159 0022 0CF1FF3C 		add	ip, ip, #-1
 2160              	.LBE845:
 2161              	.LBE858:
 2162              	.LBB859:
 2163              	.LBB853:
 367:MidiController.cpp ****     msg.data1 = data1;
 2164              		.loc 1 367 16 view .LVU557
 2165 0026 0F4E     		ldr	r6, .L102
 2166 0028 03EB4307 		add	r7, r3, r3, lsl #1
 368:MidiController.cpp ****     msg.data2 = data2;
 2167              		.loc 1 368 15 view .LVU558
 2168 002c 0E4D     		ldr	r5, .L102+4
 2169              	.LBE853:
 2170              	.LBE859:
 2171              	.LBB860:
 2172              	.LBB846:
 456:MidiController.cpp **** }
 2173              		.loc 1 456 50 view .LVU559
 2174 002e 0CF00F0C 		and	ip, ip, #15
 2175              	.LBE846:
 2176              	.LBE860:
 2177              	.LBB861:
 2178              	.LBB854:
 373:MidiController.cpp ****     queueCount_++;
 2179              		.loc 1 373 30 view .LVU560
 2180 0032 0133     		adds	r3, r3, #1
 2181              	.LVL109:
 367:MidiController.cpp ****     msg.data1 = data1;
 2182              		.loc 1 367 16 view .LVU561
 2183 0034 00EB8700 		add	r0, r0, r7, lsl #2
 2184              	.LVL110:
 367:MidiController.cpp ****     msg.data1 = data1;
 2185              		.loc 1 367 16 view .LVU562
 2186              	.LBE854:
 2187              	.LBE861:
 2188              	.LBB862:
 2189              	.LBB847:
 456:MidiController.cpp **** }
 2190              		.loc 1 456 33 view .LVU563
 2191 0038 6CF04F0C 		orn	ip, ip, #79
 2192              	.LBE847:
 2193              	.LBE862:
 2194              	.LBB863:
 2195              	.LBB855:
 373:MidiController.cpp ****     queueCount_++;
 2196              		.loc 1 373 35 view .LVU564
 2197 003c 03F03F03 		and	r3, r3, #63
 2198              	.LVL111:
 367:MidiController.cpp ****     msg.data1 = data1;
 2199              		.loc 1 367 16 view .LVU565
 2200 0040 00F806C0 		strb	ip, [r0, r6]
ARM GAS  C:\Users\Marco\AppData\Local\Temp\ccVZoccs.s 			page 69


 2201              	.LVL112:
 368:MidiController.cpp ****     msg.data2 = data2;
 2202              		.loc 1 368 5 is_stmt 1 view .LVU566
 368:MidiController.cpp ****     msg.data2 = data2;
 2203              		.loc 1 368 15 is_stmt 0 view .LVU567
 2204 0044 4155     		strb	r1, [r0, r5]
 369:MidiController.cpp ****     msg.hasData2 = true;
 2205              		.loc 1 369 5 is_stmt 1 view .LVU568
 369:MidiController.cpp ****     msg.hasData2 = true;
 2206              		.loc 1 369 15 is_stmt 0 view .LVU569
 2207 0046 0949     		ldr	r1, .L102+8
 2208              	.LVL113:
 369:MidiController.cpp ****     msg.hasData2 = true;
 2209              		.loc 1 369 15 view .LVU570
 2210 0048 4254     		strb	r2, [r0, r1]
 370:MidiController.cpp ****     msg.timestamp = lastActivityTime_; // TODO: Get actual timestamp
 2211              		.loc 1 370 5 is_stmt 1 view .LVU571
 370:MidiController.cpp ****     msg.timestamp = lastActivityTime_; // TODO: Get actual timestamp
 2212              		.loc 1 370 18 is_stmt 0 view .LVU572
 2213 004a 0121     		movs	r1, #1
 2214 004c 084A     		ldr	r2, .L102+12
 2215              	.LVL114:
 370:MidiController.cpp ****     msg.timestamp = lastActivityTime_; // TODO: Get actual timestamp
 2216              		.loc 1 370 18 view .LVU573
 2217 004e 8154     		strb	r1, [r0, r2]
 371:MidiController.cpp ****     
 2218              		.loc 1 371 5 is_stmt 1 view .LVU574
 371:MidiController.cpp ****     
 2219              		.loc 1 371 19 is_stmt 0 view .LVU575
 2220 0050 043A     		subs	r2, r2, #4
 2221 0052 DEF8BC15 		ldr	r1, [lr, #1468]
 2222 0056 8150     		str	r1, [r0, r2]
 373:MidiController.cpp ****     queueCount_++;
 2223              		.loc 1 373 5 is_stmt 1 view .LVU576
 373:MidiController.cpp ****     queueCount_++;
 2224              		.loc 1 373 16 is_stmt 0 view .LVU577
 2225 0058 8EF8B535 		strb	r3, [lr, #1461]
 2226              	.LVL115:
 374:MidiController.cpp **** }
 2227              		.loc 1 374 5 is_stmt 1 view .LVU578
 374:MidiController.cpp **** }
 2228              		.loc 1 374 16 is_stmt 0 view .LVU579
 2229 005c 8EF8B645 		strb	r4, [lr, #1462]
 2230              	.LVL116:
 2231              	.L96:
 374:MidiController.cpp **** }
 2232              		.loc 1 374 16 view .LVU580
 2233              	.LBE855:
 2234              	.LBE863:
 2235              	.LBE841:
 2236              	.LBE840:
 100:MidiController.cpp **** 
 2237              		.loc 1 100 1 view .LVU581
 2238 0060 F0BD     		pop	{r4, r5, r6, r7, pc}
 2239              	.L103:
 2240 0062 00BF     		.align	2
 2241              	.L102:
ARM GAS  C:\Users\Marco\AppData\Local\Temp\ccVZoccs.s 			page 70


 2242 0064 B4220100 		.word	74420
 2243 0068 B5220100 		.word	74421
 2244 006c B6220100 		.word	74422
 2245 0070 BC220100 		.word	74428
 2246              		.cfi_endproc
 2247              	.LFE2572:
 2249              		.section	.text._ZN14MidiController17SendProgramChangeEh,"ax",%progbits
 2250              		.align	1
 2251              		.p2align 2,,3
 2252              		.global	_ZN14MidiController17SendProgramChangeEh
 2253              		.syntax unified
 2254              		.thumb
 2255              		.thumb_func
 2256              		.fpu fpv5-d16
 2258              	_ZN14MidiController17SendProgramChangeEh:
 2259              	.LVL117:
 2260              	.LFB2573:
 102:MidiController.cpp ****     if (!enabled_ || program > 127) {
 2261              		.loc 1 102 57 is_stmt 1 view -0
 2262              		.cfi_startproc
 2263              		@ args = 0, pretend = 0, frame = 0
 2264              		@ frame_needed = 0, uses_anonymous_args = 0
 103:MidiController.cpp ****         return;
 2265              		.loc 1 103 5 view .LVU583
 103:MidiController.cpp ****         return;
 2266              		.loc 1 103 10 is_stmt 0 view .LVU584
 2267 0000 00F59033 		add	r3, r0, #73728
 103:MidiController.cpp ****         return;
 2268              		.loc 1 103 5 view .LVU585
 2269 0004 93F8AE22 		ldrb	r2, [r3, #686]	@ zero_extendqisi2
 2270 0008 6AB3     		cbz	r2, .L110
 103:MidiController.cpp ****         return;
 2271              		.loc 1 103 19 discriminator 1 view .LVU586
 2272 000a 0A06     		lsls	r2, r1, #24
 2273 000c 2BD4     		bmi	.L110
 2274              	.LVL118:
 2275              	.LBB872:
 2276              	.LBI872:
 102:MidiController.cpp ****     if (!enabled_ || program > 127) {
 2277              		.loc 1 102 6 is_stmt 1 view .LVU587
 2278              	.LBB873:
 107:MidiController.cpp ****     QueueMessage(status, program);
 2279              		.loc 1 107 5 view .LVU588
 2280              	.LBB874:
 2281              	.LBI874:
 455:MidiController.cpp ****     return (uint8_t)messageType | ((channel - 1) & 0x0F);
 2282              		.loc 1 455 9 view .LVU589
 2283              	.LBB875:
 456:MidiController.cpp **** }
 2284              		.loc 1 456 5 view .LVU590
 456:MidiController.cpp **** }
 2285              		.loc 1 456 5 is_stmt 0 view .LVU591
 2286              	.LBE875:
 2287              	.LBE874:
 108:MidiController.cpp **** }
 2288              		.loc 1 108 5 is_stmt 1 view .LVU592
 2289              	.LBB880:
ARM GAS  C:\Users\Marco\AppData\Local\Temp\ccVZoccs.s 			page 71


 2290              	.LBI880:
 377:MidiController.cpp ****     if (IsQueueFull()) {
 2291              		.loc 1 377 6 view .LVU593
 2292              	.LBB881:
 378:MidiController.cpp ****         return;
 2293              		.loc 1 378 5 view .LVU594
 2294              	.LBB882:
 2295              	.LBI882:
 410:MidiController.cpp ****     return queueCount_ >= MESSAGE_QUEUE_SIZE;
 2296              		.loc 1 410 6 view .LVU595
 2297              	.LBB883:
 411:MidiController.cpp **** }
 2298              		.loc 1 411 5 view .LVU596
 411:MidiController.cpp **** }
 2299              		.loc 1 411 12 is_stmt 0 view .LVU597
 2300 000e 93F8B6C5 		ldrb	ip, [r3, #1462]	@ zero_extendqisi2
 2301              	.LVL119:
 411:MidiController.cpp **** }
 2302              		.loc 1 411 12 view .LVU598
 2303              	.LBE883:
 2304              	.LBE882:
 378:MidiController.cpp ****         return;
 2305              		.loc 1 378 5 view .LVU599
 2306 0012 BCF13F0F 		cmp	ip, #63
 2307 0016 26D8     		bhi	.L110
 382:MidiController.cpp ****     msg.status = status;
 2308              		.loc 1 382 5 is_stmt 1 view .LVU600
 2309              	.LBE881:
 2310              	.LBE880:
 2311              	.LBE873:
 2312              	.LBE872:
 102:MidiController.cpp ****     if (!enabled_ || program > 127) {
 2313              		.loc 1 102 57 is_stmt 0 view .LVU601
 2314 0018 30B5     		push	{r4, r5, lr}
 2315              		.cfi_def_cfa_offset 12
 2316              		.cfi_offset 4, -12
 2317              		.cfi_offset 5, -8
 2318              		.cfi_offset 14, -4
 2319              	.LBB899:
 2320              	.LBB898:
 2321              	.LBB889:
 2322              	.LBB884:
 390:MidiController.cpp **** }
 2323              		.loc 1 390 16 view .LVU602
 2324 001a 0CF1010E 		add	lr, ip, #1
 2325              	.LBE884:
 2326              	.LBE889:
 2327              	.LBB890:
 2328              	.LBB876:
 456:MidiController.cpp **** }
 2329              		.loc 1 456 45 view .LVU603
 2330 001e 93F8ACC2 		ldrb	ip, [r3, #684]	@ zero_extendqisi2
 2331              	.LBE876:
 2332              	.LBE890:
 2333              	.LBB891:
 2334              	.LBB885:
 382:MidiController.cpp ****     msg.status = status;
ARM GAS  C:\Users\Marco\AppData\Local\Temp\ccVZoccs.s 			page 72


 2335              		.loc 1 382 38 view .LVU604
 2336 0022 93F8B525 		ldrb	r2, [r3, #1461]	@ zero_extendqisi2
 2337              	.LVL120:
 383:MidiController.cpp ****     msg.data1 = data1;
 2338              		.loc 1 383 5 is_stmt 1 view .LVU605
 2339              	.LBE885:
 2340              	.LBE891:
 2341              	.LBB892:
 2342              	.LBB877:
 456:MidiController.cpp **** }
 2343              		.loc 1 456 45 is_stmt 0 view .LVU606
 2344 0026 0CF1FF3C 		add	ip, ip, #-1
 2345              	.LBE877:
 2346              	.LBE892:
 2347              	.LBB893:
 2348              	.LBB886:
 383:MidiController.cpp ****     msg.data1 = data1;
 2349              		.loc 1 383 16 view .LVU607
 2350 002a 0F4D     		ldr	r5, .L113
 2351 002c 02EB4204 		add	r4, r2, r2, lsl #1
 389:MidiController.cpp ****     queueCount_++;
 2352              		.loc 1 389 30 view .LVU608
 2353 0030 0132     		adds	r2, r2, #1
 2354              	.LVL121:
 389:MidiController.cpp ****     queueCount_++;
 2355              		.loc 1 389 30 view .LVU609
 2356              	.LBE886:
 2357              	.LBE893:
 2358              	.LBB894:
 2359              	.LBB878:
 456:MidiController.cpp **** }
 2360              		.loc 1 456 50 view .LVU610
 2361 0032 0CF00F0C 		and	ip, ip, #15
 2362              	.LBE878:
 2363              	.LBE894:
 2364              	.LBB895:
 2365              	.LBB887:
 383:MidiController.cpp ****     msg.data1 = data1;
 2366              		.loc 1 383 16 view .LVU611
 2367 0036 00EB8400 		add	r0, r0, r4, lsl #2
 2368              	.LVL122:
 385:MidiController.cpp ****     msg.hasData2 = false;
 2369              		.loc 1 385 15 view .LVU612
 2370 003a 0024     		movs	r4, #0
 2371              	.LBE887:
 2372              	.LBE895:
 2373              	.LBB896:
 2374              	.LBB879:
 456:MidiController.cpp **** }
 2375              		.loc 1 456 33 view .LVU613
 2376 003c 6CF03F0C 		orn	ip, ip, #63
 2377              	.LBE879:
 2378              	.LBE896:
 2379              	.LBB897:
 2380              	.LBB888:
 389:MidiController.cpp ****     queueCount_++;
 2381              		.loc 1 389 35 view .LVU614
ARM GAS  C:\Users\Marco\AppData\Local\Temp\ccVZoccs.s 			page 73


 2382 0040 02F03F02 		and	r2, r2, #63
 2383              	.LVL123:
 383:MidiController.cpp ****     msg.data1 = data1;
 2384              		.loc 1 383 16 view .LVU615
 2385 0044 00F805C0 		strb	ip, [r0, r5]
 2386              	.LVL124:
 384:MidiController.cpp ****     msg.data2 = 0;
 2387              		.loc 1 384 5 is_stmt 1 view .LVU616
 384:MidiController.cpp ****     msg.data2 = 0;
 2388              		.loc 1 384 15 is_stmt 0 view .LVU617
 2389 0048 0135     		adds	r5, r5, #1
 2390 004a 4155     		strb	r1, [r0, r5]
 385:MidiController.cpp ****     msg.hasData2 = false;
 2391              		.loc 1 385 5 is_stmt 1 view .LVU618
 385:MidiController.cpp ****     msg.hasData2 = false;
 2392              		.loc 1 385 15 is_stmt 0 view .LVU619
 2393 004c 0749     		ldr	r1, .L113+4
 2394              	.LVL125:
 385:MidiController.cpp ****     msg.hasData2 = false;
 2395              		.loc 1 385 15 view .LVU620
 2396 004e 4454     		strb	r4, [r0, r1]
 386:MidiController.cpp ****     msg.timestamp = lastActivityTime_;
 2397              		.loc 1 386 5 is_stmt 1 view .LVU621
 386:MidiController.cpp ****     msg.timestamp = lastActivityTime_;
 2398              		.loc 1 386 18 is_stmt 0 view .LVU622
 2399 0050 0631     		adds	r1, r1, #6
 2400 0052 4454     		strb	r4, [r0, r1]
 387:MidiController.cpp ****     
 2401              		.loc 1 387 5 is_stmt 1 view .LVU623
 387:MidiController.cpp ****     
 2402              		.loc 1 387 19 is_stmt 0 view .LVU624
 2403 0054 0439     		subs	r1, r1, #4
 2404 0056 D3F8BC45 		ldr	r4, [r3, #1468]
 2405 005a 4450     		str	r4, [r0, r1]
 389:MidiController.cpp ****     queueCount_++;
 2406              		.loc 1 389 5 is_stmt 1 view .LVU625
 389:MidiController.cpp ****     queueCount_++;
 2407              		.loc 1 389 16 is_stmt 0 view .LVU626
 2408 005c 83F8B525 		strb	r2, [r3, #1461]
 2409              	.LVL126:
 390:MidiController.cpp **** }
 2410              		.loc 1 390 5 is_stmt 1 view .LVU627
 390:MidiController.cpp **** }
 2411              		.loc 1 390 16 is_stmt 0 view .LVU628
 2412 0060 83F8B6E5 		strb	lr, [r3, #1462]
 2413              	.LVL127:
 390:MidiController.cpp **** }
 2414              		.loc 1 390 16 view .LVU629
 2415              	.LBE888:
 2416              	.LBE897:
 2417              	.LBE898:
 2418              	.LBE899:
 109:MidiController.cpp **** 
 2419              		.loc 1 109 1 view .LVU630
 2420 0064 30BD     		pop	{r4, r5, pc}
 2421              	.LVL128:
 2422              	.L110:
ARM GAS  C:\Users\Marco\AppData\Local\Temp\ccVZoccs.s 			page 74


 2423              		.cfi_def_cfa_offset 0
 2424              		.cfi_restore 4
 2425              		.cfi_restore 5
 2426              		.cfi_restore 14
 109:MidiController.cpp **** 
 2427              		.loc 1 109 1 view .LVU631
 2428 0066 7047     		bx	lr
 2429              	.L114:
 2430              		.align	2
 2431              	.L113:
 2432 0068 B4220100 		.word	74420
 2433 006c B6220100 		.word	74422
 2434              		.cfi_endproc
 2435              	.LFE2573:
 2437              		.section	.text._ZN14MidiController13SendPitchBendEt,"ax",%progbits
 2438              		.align	1
 2439              		.p2align 2,,3
 2440              		.global	_ZN14MidiController13SendPitchBendEt
 2441              		.syntax unified
 2442              		.thumb
 2443              		.thumb_func
 2444              		.fpu fpv5-d16
 2446              	_ZN14MidiController13SendPitchBendEt:
 2447              	.LVL129:
 2448              	.LFB2574:
 111:MidiController.cpp ****     if (!enabled_) {
 2449              		.loc 1 111 52 is_stmt 1 view -0
 2450              		.cfi_startproc
 2451              		@ args = 0, pretend = 0, frame = 0
 2452              		@ frame_needed = 0, uses_anonymous_args = 0
 112:MidiController.cpp ****         return;
 2453              		.loc 1 112 5 view .LVU633
 112:MidiController.cpp ****         return;
 2454              		.loc 1 112 10 is_stmt 0 view .LVU634
 2455 0000 00F59032 		add	r2, r0, #73728
 112:MidiController.cpp ****         return;
 2456              		.loc 1 112 5 view .LVU635
 2457 0004 92F8AE32 		ldrb	r3, [r2, #686]	@ zero_extendqisi2
 2458 0008 03B9     		cbnz	r3, .L124
 2459              	.L121:
 2460 000a 7047     		bx	lr
 2461              	.L124:
 116:MidiController.cpp ****     uint8_t lsb = value & 0x7F;
 2462              		.loc 1 116 5 is_stmt 1 view .LVU636
 2463              	.LVL130:
 2464              	.LBB906:
 2465              	.LBI906:
 455:MidiController.cpp ****     return (uint8_t)messageType | ((channel - 1) & 0x0F);
 2466              		.loc 1 455 9 view .LVU637
 2467              	.LBB907:
 456:MidiController.cpp **** }
 2468              		.loc 1 456 5 view .LVU638
 456:MidiController.cpp **** }
 2469              		.loc 1 456 5 is_stmt 0 view .LVU639
 2470              	.LBE907:
 2471              	.LBE906:
 117:MidiController.cpp ****     uint8_t msb = (value >> 7) & 0x7F;
ARM GAS  C:\Users\Marco\AppData\Local\Temp\ccVZoccs.s 			page 75


 2472              		.loc 1 117 5 is_stmt 1 view .LVU640
 118:MidiController.cpp ****     QueueMessage(status, lsb, msb);
 2473              		.loc 1 118 5 view .LVU641
 119:MidiController.cpp **** }
 2474              		.loc 1 119 5 view .LVU642
 2475              	.LBB912:
 2476              	.LBI912:
 361:MidiController.cpp ****     if (IsQueueFull()) {
 2477              		.loc 1 361 6 view .LVU643
 2478              	.LBB913:
 362:MidiController.cpp ****         return; // Queue is full, drop message
 2479              		.loc 1 362 5 view .LVU644
 2480              	.LBB914:
 2481              	.LBI914:
 410:MidiController.cpp ****     return queueCount_ >= MESSAGE_QUEUE_SIZE;
 2482              		.loc 1 410 6 view .LVU645
 2483              	.LBB915:
 411:MidiController.cpp **** }
 2484              		.loc 1 411 5 view .LVU646
 411:MidiController.cpp **** }
 2485              		.loc 1 411 12 is_stmt 0 view .LVU647
 2486 000c 92F8B635 		ldrb	r3, [r2, #1462]	@ zero_extendqisi2
 2487              	.LVL131:
 411:MidiController.cpp **** }
 2488              		.loc 1 411 12 view .LVU648
 2489              	.LBE915:
 2490              	.LBE914:
 362:MidiController.cpp ****         return; // Queue is full, drop message
 2491              		.loc 1 362 5 view .LVU649
 2492 0010 3F2B     		cmp	r3, #63
 2493 0012 FAD8     		bhi	.L121
 366:MidiController.cpp ****     msg.status = status;
 2494              		.loc 1 366 5 is_stmt 1 view .LVU650
 2495              	.LBE913:
 2496              	.LBE912:
 111:MidiController.cpp ****     if (!enabled_) {
 2497              		.loc 1 111 52 is_stmt 0 view .LVU651
 2498 0014 10B5     		push	{r4, lr}
 2499              		.cfi_def_cfa_offset 8
 2500              		.cfi_offset 4, -8
 2501              		.cfi_offset 14, -4
 2502              	.LBB923:
 2503              	.LBB916:
 374:MidiController.cpp **** }
 2504              		.loc 1 374 16 view .LVU652
 2505 0016 03F1010E 		add	lr, r3, #1
 2506              	.LBE916:
 2507              	.LBE923:
 2508              	.LBB924:
 2509              	.LBB908:
 456:MidiController.cpp **** }
 2510              		.loc 1 456 45 view .LVU653
 2511 001a 92F8AC32 		ldrb	r3, [r2, #684]	@ zero_extendqisi2
 2512              	.LBE908:
 2513              	.LBE924:
 2514              	.LBB925:
 2515              	.LBB917:
ARM GAS  C:\Users\Marco\AppData\Local\Temp\ccVZoccs.s 			page 76


 366:MidiController.cpp ****     msg.status = status;
 2516              		.loc 1 366 38 view .LVU654
 2517 001e 92F8B5C5 		ldrb	ip, [r2, #1461]	@ zero_extendqisi2
 2518              	.LVL132:
 367:MidiController.cpp ****     msg.data1 = data1;
 2519              		.loc 1 367 5 is_stmt 1 view .LVU655
 2520              	.LBE917:
 2521              	.LBE925:
 2522              	.LBB926:
 2523              	.LBB909:
 456:MidiController.cpp **** }
 2524              		.loc 1 456 45 is_stmt 0 view .LVU656
 2525 0022 013B     		subs	r3, r3, #1
 2526              	.LBE909:
 2527              	.LBE926:
 2528              	.LBB927:
 2529              	.LBB918:
 367:MidiController.cpp ****     msg.data1 = data1;
 2530              		.loc 1 367 16 view .LVU657
 2531 0024 0CEB4C04 		add	r4, ip, ip, lsl #1
 373:MidiController.cpp ****     queueCount_++;
 2532              		.loc 1 373 30 view .LVU658
 2533 0028 0CF1010C 		add	ip, ip, #1
 2534              	.LVL133:
 373:MidiController.cpp ****     queueCount_++;
 2535              		.loc 1 373 30 view .LVU659
 2536              	.LBE918:
 2537              	.LBE927:
 2538              	.LBB928:
 2539              	.LBB910:
 456:MidiController.cpp **** }
 2540              		.loc 1 456 50 view .LVU660
 2541 002c 03F00F03 		and	r3, r3, #15
 2542              	.LBE910:
 2543              	.LBE928:
 2544              	.LBB929:
 2545              	.LBB919:
 367:MidiController.cpp ****     msg.data1 = data1;
 2546              		.loc 1 367 16 view .LVU661
 2547 0030 00EB8400 		add	r0, r0, r4, lsl #2
 2548              	.LVL134:
 367:MidiController.cpp ****     msg.data1 = data1;
 2549              		.loc 1 367 16 view .LVU662
 2550 0034 0C4C     		ldr	r4, .L125
 2551              	.LBE919:
 2552              	.LBE929:
 2553              	.LBB930:
 2554              	.LBB911:
 456:MidiController.cpp **** }
 2555              		.loc 1 456 33 view .LVU663
 2556 0036 63F01F03 		orn	r3, r3, #31
 2557              	.LBE911:
 2558              	.LBE930:
 2559              	.LBB931:
 2560              	.LBB920:
 373:MidiController.cpp ****     queueCount_++;
 2561              		.loc 1 373 35 view .LVU664
ARM GAS  C:\Users\Marco\AppData\Local\Temp\ccVZoccs.s 			page 77


 2562 003a 0CF03F0C 		and	ip, ip, #63
 2563              	.LVL135:
 367:MidiController.cpp ****     msg.data1 = data1;
 2564              		.loc 1 367 16 view .LVU665
 2565 003e 0355     		strb	r3, [r0, r4]
 2566              	.LVL136:
 368:MidiController.cpp ****     msg.data2 = data2;
 2567              		.loc 1 368 5 is_stmt 1 view .LVU666
 2568              	.LBE920:
 2569              	.LBE931:
 117:MidiController.cpp ****     uint8_t msb = (value >> 7) & 0x7F;
 2570              		.loc 1 117 13 is_stmt 0 view .LVU667
 2571 0040 01F07F04 		and	r4, r1, #127
 2572              	.LBB932:
 2573              	.LBB921:
 368:MidiController.cpp ****     msg.data2 = data2;
 2574              		.loc 1 368 15 view .LVU668
 2575 0044 094B     		ldr	r3, .L125+4
 2576              	.LBE921:
 2577              	.LBE932:
 118:MidiController.cpp ****     QueueMessage(status, lsb, msb);
 2578              		.loc 1 118 13 view .LVU669
 2579 0046 C1F3C611 		ubfx	r1, r1, #7, #7
 2580              	.LVL137:
 2581              	.LBB933:
 2582              	.LBB922:
 368:MidiController.cpp ****     msg.data2 = data2;
 2583              		.loc 1 368 15 view .LVU670
 2584 004a C454     		strb	r4, [r0, r3]
 369:MidiController.cpp ****     msg.hasData2 = true;
 2585              		.loc 1 369 5 is_stmt 1 view .LVU671
 369:MidiController.cpp ****     msg.hasData2 = true;
 2586              		.loc 1 369 15 is_stmt 0 view .LVU672
 2587 004c 0133     		adds	r3, r3, #1
 2588 004e C154     		strb	r1, [r0, r3]
 370:MidiController.cpp ****     msg.timestamp = lastActivityTime_; // TODO: Get actual timestamp
 2589              		.loc 1 370 5 is_stmt 1 view .LVU673
 370:MidiController.cpp ****     msg.timestamp = lastActivityTime_; // TODO: Get actual timestamp
 2590              		.loc 1 370 18 is_stmt 0 view .LVU674
 2591 0050 0633     		adds	r3, r3, #6
 2592 0052 0121     		movs	r1, #1
 2593 0054 C154     		strb	r1, [r0, r3]
 371:MidiController.cpp ****     
 2594              		.loc 1 371 5 is_stmt 1 view .LVU675
 371:MidiController.cpp ****     
 2595              		.loc 1 371 19 is_stmt 0 view .LVU676
 2596 0056 043B     		subs	r3, r3, #4
 2597 0058 D2F8BC15 		ldr	r1, [r2, #1468]
 2598 005c C150     		str	r1, [r0, r3]
 373:MidiController.cpp ****     queueCount_++;
 2599              		.loc 1 373 5 is_stmt 1 view .LVU677
 373:MidiController.cpp ****     queueCount_++;
 2600              		.loc 1 373 16 is_stmt 0 view .LVU678
 2601 005e 82F8B5C5 		strb	ip, [r2, #1461]
 374:MidiController.cpp **** }
 2602              		.loc 1 374 5 is_stmt 1 view .LVU679
 374:MidiController.cpp **** }
ARM GAS  C:\Users\Marco\AppData\Local\Temp\ccVZoccs.s 			page 78


 2603              		.loc 1 374 16 is_stmt 0 view .LVU680
 2604 0062 82F8B6E5 		strb	lr, [r2, #1462]
 2605              	.LVL138:
 374:MidiController.cpp **** }
 2606              		.loc 1 374 16 view .LVU681
 2607              	.LBE922:
 2608              	.LBE933:
 120:MidiController.cpp **** 
 2609              		.loc 1 120 1 view .LVU682
 2610 0066 10BD     		pop	{r4, pc}
 2611              	.L126:
 2612              		.align	2
 2613              	.L125:
 2614 0068 B4220100 		.word	74420
 2615 006c B5220100 		.word	74421
 2616              		.cfi_endproc
 2617              	.LFE2574:
 2619              		.section	.text._ZN14MidiController19SendChannelPressureEh,"ax",%progbits
 2620              		.align	1
 2621              		.p2align 2,,3
 2622              		.global	_ZN14MidiController19SendChannelPressureEh
 2623              		.syntax unified
 2624              		.thumb
 2625              		.thumb_func
 2626              		.fpu fpv5-d16
 2628              	_ZN14MidiController19SendChannelPressureEh:
 2629              	.LVL139:
 2630              	.LFB2575:
 122:MidiController.cpp ****     if (!enabled_ || pressure > 127) {
 2631              		.loc 1 122 60 is_stmt 1 view -0
 2632              		.cfi_startproc
 2633              		@ args = 0, pretend = 0, frame = 0
 2634              		@ frame_needed = 0, uses_anonymous_args = 0
 123:MidiController.cpp ****         return;
 2635              		.loc 1 123 5 view .LVU684
 123:MidiController.cpp ****         return;
 2636              		.loc 1 123 10 is_stmt 0 view .LVU685
 2637 0000 00F59033 		add	r3, r0, #73728
 123:MidiController.cpp ****         return;
 2638              		.loc 1 123 5 view .LVU686
 2639 0004 93F8AE22 		ldrb	r2, [r3, #686]	@ zero_extendqisi2
 2640 0008 6AB3     		cbz	r2, .L133
 123:MidiController.cpp ****         return;
 2641              		.loc 1 123 19 discriminator 1 view .LVU687
 2642 000a 0A06     		lsls	r2, r1, #24
 2643 000c 2BD4     		bmi	.L133
 127:MidiController.cpp ****     QueueMessage(status, pressure);
 2644              		.loc 1 127 5 is_stmt 1 view .LVU688
 2645              	.LVL140:
 2646              	.LBB940:
 2647              	.LBI940:
 455:MidiController.cpp ****     return (uint8_t)messageType | ((channel - 1) & 0x0F);
 2648              		.loc 1 455 9 view .LVU689
 2649              	.LBB941:
 456:MidiController.cpp **** }
 2650              		.loc 1 456 5 view .LVU690
 456:MidiController.cpp **** }
ARM GAS  C:\Users\Marco\AppData\Local\Temp\ccVZoccs.s 			page 79


 2651              		.loc 1 456 5 is_stmt 0 view .LVU691
 2652              	.LBE941:
 2653              	.LBE940:
 128:MidiController.cpp **** }
 2654              		.loc 1 128 5 is_stmt 1 view .LVU692
 2655              	.LBB946:
 2656              	.LBI946:
 377:MidiController.cpp ****     if (IsQueueFull()) {
 2657              		.loc 1 377 6 view .LVU693
 2658              	.LBB947:
 378:MidiController.cpp ****         return;
 2659              		.loc 1 378 5 view .LVU694
 2660              	.LBB948:
 2661              	.LBI948:
 410:MidiController.cpp ****     return queueCount_ >= MESSAGE_QUEUE_SIZE;
 2662              		.loc 1 410 6 view .LVU695
 2663              	.LBB949:
 411:MidiController.cpp **** }
 2664              		.loc 1 411 5 view .LVU696
 411:MidiController.cpp **** }
 2665              		.loc 1 411 12 is_stmt 0 view .LVU697
 2666 000e 93F8B6C5 		ldrb	ip, [r3, #1462]	@ zero_extendqisi2
 2667              	.LVL141:
 411:MidiController.cpp **** }
 2668              		.loc 1 411 12 view .LVU698
 2669              	.LBE949:
 2670              	.LBE948:
 378:MidiController.cpp ****         return;
 2671              		.loc 1 378 5 view .LVU699
 2672 0012 BCF13F0F 		cmp	ip, #63
 2673 0016 26D8     		bhi	.L133
 382:MidiController.cpp ****     msg.status = status;
 2674              		.loc 1 382 5 is_stmt 1 view .LVU700
 2675              	.LBE947:
 2676              	.LBE946:
 122:MidiController.cpp ****     if (!enabled_ || pressure > 127) {
 2677              		.loc 1 122 60 is_stmt 0 view .LVU701
 2678 0018 30B5     		push	{r4, r5, lr}
 2679              		.cfi_def_cfa_offset 12
 2680              		.cfi_offset 4, -12
 2681              		.cfi_offset 5, -8
 2682              		.cfi_offset 14, -4
 2683              	.LBB955:
 2684              	.LBB950:
 390:MidiController.cpp **** }
 2685              		.loc 1 390 16 view .LVU702
 2686 001a 0CF1010E 		add	lr, ip, #1
 2687              	.LBE950:
 2688              	.LBE955:
 2689              	.LBB956:
 2690              	.LBB942:
 456:MidiController.cpp **** }
 2691              		.loc 1 456 45 view .LVU703
 2692 001e 93F8ACC2 		ldrb	ip, [r3, #684]	@ zero_extendqisi2
 2693              	.LBE942:
 2694              	.LBE956:
 2695              	.LBB957:
ARM GAS  C:\Users\Marco\AppData\Local\Temp\ccVZoccs.s 			page 80


 2696              	.LBB951:
 382:MidiController.cpp ****     msg.status = status;
 2697              		.loc 1 382 38 view .LVU704
 2698 0022 93F8B525 		ldrb	r2, [r3, #1461]	@ zero_extendqisi2
 2699              	.LVL142:
 383:MidiController.cpp ****     msg.data1 = data1;
 2700              		.loc 1 383 5 is_stmt 1 view .LVU705
 2701              	.LBE951:
 2702              	.LBE957:
 2703              	.LBB958:
 2704              	.LBB943:
 456:MidiController.cpp **** }
 2705              		.loc 1 456 45 is_stmt 0 view .LVU706
 2706 0026 0CF1FF3C 		add	ip, ip, #-1
 2707              	.LBE943:
 2708              	.LBE958:
 2709              	.LBB959:
 2710              	.LBB952:
 383:MidiController.cpp ****     msg.data1 = data1;
 2711              		.loc 1 383 16 view .LVU707
 2712 002a 0F4D     		ldr	r5, .L136
 2713 002c 02EB4204 		add	r4, r2, r2, lsl #1
 389:MidiController.cpp ****     queueCount_++;
 2714              		.loc 1 389 30 view .LVU708
 2715 0030 0132     		adds	r2, r2, #1
 2716              	.LVL143:
 389:MidiController.cpp ****     queueCount_++;
 2717              		.loc 1 389 30 view .LVU709
 2718              	.LBE952:
 2719              	.LBE959:
 2720              	.LBB960:
 2721              	.LBB944:
 456:MidiController.cpp **** }
 2722              		.loc 1 456 50 view .LVU710
 2723 0032 0CF00F0C 		and	ip, ip, #15
 2724              	.LBE944:
 2725              	.LBE960:
 2726              	.LBB961:
 2727              	.LBB953:
 383:MidiController.cpp ****     msg.data1 = data1;
 2728              		.loc 1 383 16 view .LVU711
 2729 0036 00EB8400 		add	r0, r0, r4, lsl #2
 2730              	.LVL144:
 385:MidiController.cpp ****     msg.hasData2 = false;
 2731              		.loc 1 385 15 view .LVU712
 2732 003a 0024     		movs	r4, #0
 2733              	.LBE953:
 2734              	.LBE961:
 2735              	.LBB962:
 2736              	.LBB945:
 456:MidiController.cpp **** }
 2737              		.loc 1 456 33 view .LVU713
 2738 003c 6CF02F0C 		orn	ip, ip, #47
 2739              	.LBE945:
 2740              	.LBE962:
 2741              	.LBB963:
 2742              	.LBB954:
ARM GAS  C:\Users\Marco\AppData\Local\Temp\ccVZoccs.s 			page 81


 389:MidiController.cpp ****     queueCount_++;
 2743              		.loc 1 389 35 view .LVU714
 2744 0040 02F03F02 		and	r2, r2, #63
 2745              	.LVL145:
 383:MidiController.cpp ****     msg.data1 = data1;
 2746              		.loc 1 383 16 view .LVU715
 2747 0044 00F805C0 		strb	ip, [r0, r5]
 2748              	.LVL146:
 384:MidiController.cpp ****     msg.data2 = 0;
 2749              		.loc 1 384 5 is_stmt 1 view .LVU716
 384:MidiController.cpp ****     msg.data2 = 0;
 2750              		.loc 1 384 15 is_stmt 0 view .LVU717
 2751 0048 0135     		adds	r5, r5, #1
 2752 004a 4155     		strb	r1, [r0, r5]
 385:MidiController.cpp ****     msg.hasData2 = false;
 2753              		.loc 1 385 5 is_stmt 1 view .LVU718
 385:MidiController.cpp ****     msg.hasData2 = false;
 2754              		.loc 1 385 15 is_stmt 0 view .LVU719
 2755 004c 0749     		ldr	r1, .L136+4
 2756              	.LVL147:
 385:MidiController.cpp ****     msg.hasData2 = false;
 2757              		.loc 1 385 15 view .LVU720
 2758 004e 4454     		strb	r4, [r0, r1]
 386:MidiController.cpp ****     msg.timestamp = lastActivityTime_;
 2759              		.loc 1 386 5 is_stmt 1 view .LVU721
 386:MidiController.cpp ****     msg.timestamp = lastActivityTime_;
 2760              		.loc 1 386 18 is_stmt 0 view .LVU722
 2761 0050 0631     		adds	r1, r1, #6
 2762 0052 4454     		strb	r4, [r0, r1]
 387:MidiController.cpp ****     
 2763              		.loc 1 387 5 is_stmt 1 view .LVU723
 387:MidiController.cpp ****     
 2764              		.loc 1 387 19 is_stmt 0 view .LVU724
 2765 0054 0439     		subs	r1, r1, #4
 2766 0056 D3F8BC45 		ldr	r4, [r3, #1468]
 2767 005a 4450     		str	r4, [r0, r1]
 389:MidiController.cpp ****     queueCount_++;
 2768              		.loc 1 389 5 is_stmt 1 view .LVU725
 389:MidiController.cpp ****     queueCount_++;
 2769              		.loc 1 389 16 is_stmt 0 view .LVU726
 2770 005c 83F8B525 		strb	r2, [r3, #1461]
 2771              	.LVL148:
 390:MidiController.cpp **** }
 2772              		.loc 1 390 5 is_stmt 1 view .LVU727
 390:MidiController.cpp **** }
 2773              		.loc 1 390 16 is_stmt 0 view .LVU728
 2774 0060 83F8B6E5 		strb	lr, [r3, #1462]
 2775              	.LVL149:
 390:MidiController.cpp **** }
 2776              		.loc 1 390 16 view .LVU729
 2777              	.LBE954:
 2778              	.LBE963:
 129:MidiController.cpp **** 
 2779              		.loc 1 129 1 view .LVU730
 2780 0064 30BD     		pop	{r4, r5, pc}
 2781              	.LVL150:
 2782              	.L133:
ARM GAS  C:\Users\Marco\AppData\Local\Temp\ccVZoccs.s 			page 82


 2783              		.cfi_def_cfa_offset 0
 2784              		.cfi_restore 4
 2785              		.cfi_restore 5
 2786              		.cfi_restore 14
 129:MidiController.cpp **** 
 2787              		.loc 1 129 1 view .LVU731
 2788 0066 7047     		bx	lr
 2789              	.L137:
 2790              		.align	2
 2791              	.L136:
 2792 0068 B4220100 		.word	74420
 2793 006c B6220100 		.word	74422
 2794              		.cfi_endproc
 2795              	.LFE2575:
 2797              		.section	.text._ZN14MidiController16SendPolyPressureEhh,"ax",%progbits
 2798              		.align	1
 2799              		.p2align 2,,3
 2800              		.global	_ZN14MidiController16SendPolyPressureEhh
 2801              		.syntax unified
 2802              		.thumb
 2803              		.thumb_func
 2804              		.fpu fpv5-d16
 2806              	_ZN14MidiController16SendPolyPressureEhh:
 2807              	.LVL151:
 2808              	.LFB2576:
 131:MidiController.cpp ****     if (!enabled_ || !IsValidNote(note) || pressure > 127) {
 2809              		.loc 1 131 71 is_stmt 1 view -0
 2810              		.cfi_startproc
 2811              		@ args = 0, pretend = 0, frame = 0
 2812              		@ frame_needed = 0, uses_anonymous_args = 0
 132:MidiController.cpp ****         return;
 2813              		.loc 1 132 5 view .LVU733
 132:MidiController.cpp ****         return;
 2814              		.loc 1 132 10 is_stmt 0 view .LVU734
 2815 0000 00F5903C 		add	ip, r0, #73728
 132:MidiController.cpp ****         return;
 2816              		.loc 1 132 41 view .LVU735
 2817 0004 9CF8AE32 		ldrb	r3, [ip, #686]	@ zero_extendqisi2
 2818 0008 6BB3     		cbz	r3, .L144
 2819              	.LVL152:
 2820              	.LBB972:
 2821              	.LBI972:
 463:MidiController.cpp ****     return note <= 127;
 2822              		.loc 1 463 6 is_stmt 1 view .LVU736
 2823              	.LBB973:
 464:MidiController.cpp **** }
 2824              		.loc 1 464 5 view .LVU737
 464:MidiController.cpp **** }
 2825              		.loc 1 464 5 is_stmt 0 view .LVU738
 2826              	.LBE973:
 2827              	.LBE972:
 132:MidiController.cpp ****         return;
 2828              		.loc 1 132 19 view .LVU739
 2829 000a 0B06     		lsls	r3, r1, #24
 2830 000c 2BD4     		bmi	.L144
 132:MidiController.cpp ****         return;
 2831              		.loc 1 132 41 discriminator 4 view .LVU740
ARM GAS  C:\Users\Marco\AppData\Local\Temp\ccVZoccs.s 			page 83


 2832 000e 1306     		lsls	r3, r2, #24
 2833 0010 29D4     		bmi	.L144
 136:MidiController.cpp ****     QueueMessage(status, note, pressure);
 2834              		.loc 1 136 5 is_stmt 1 view .LVU741
 2835              	.LVL153:
 2836              	.LBB974:
 2837              	.LBI974:
 455:MidiController.cpp ****     return (uint8_t)messageType | ((channel - 1) & 0x0F);
 2838              		.loc 1 455 9 view .LVU742
 2839              	.LBB975:
 456:MidiController.cpp **** }
 2840              		.loc 1 456 5 view .LVU743
 456:MidiController.cpp **** }
 2841              		.loc 1 456 5 is_stmt 0 view .LVU744
 2842              	.LBE975:
 2843              	.LBE974:
 137:MidiController.cpp **** }
 2844              		.loc 1 137 5 is_stmt 1 view .LVU745
 2845              	.LBB980:
 2846              	.LBI980:
 361:MidiController.cpp ****     if (IsQueueFull()) {
 2847              		.loc 1 361 6 view .LVU746
 2848              	.LBB981:
 362:MidiController.cpp ****         return; // Queue is full, drop message
 2849              		.loc 1 362 5 view .LVU747
 2850              	.LBB982:
 2851              	.LBI982:
 410:MidiController.cpp ****     return queueCount_ >= MESSAGE_QUEUE_SIZE;
 2852              		.loc 1 410 6 view .LVU748
 2853              	.LBB983:
 411:MidiController.cpp **** }
 2854              		.loc 1 411 5 view .LVU749
 411:MidiController.cpp **** }
 2855              		.loc 1 411 12 is_stmt 0 view .LVU750
 2856 0012 9CF8B635 		ldrb	r3, [ip, #1462]	@ zero_extendqisi2
 2857              	.LVL154:
 411:MidiController.cpp **** }
 2858              		.loc 1 411 12 view .LVU751
 2859              	.LBE983:
 2860              	.LBE982:
 362:MidiController.cpp ****         return; // Queue is full, drop message
 2861              		.loc 1 362 5 view .LVU752
 2862 0016 3F2B     		cmp	r3, #63
 2863 0018 25D8     		bhi	.L144
 366:MidiController.cpp ****     msg.status = status;
 2864              		.loc 1 366 5 is_stmt 1 view .LVU753
 2865              	.LBE981:
 2866              	.LBE980:
 131:MidiController.cpp ****     if (!enabled_ || !IsValidNote(note) || pressure > 127) {
 2867              		.loc 1 131 71 is_stmt 0 view .LVU754
 2868 001a F0B5     		push	{r4, r5, r6, r7, lr}
 2869              		.cfi_def_cfa_offset 20
 2870              		.cfi_offset 4, -20
 2871              		.cfi_offset 5, -16
 2872              		.cfi_offset 6, -12
 2873              		.cfi_offset 7, -8
 2874              		.cfi_offset 14, -4
ARM GAS  C:\Users\Marco\AppData\Local\Temp\ccVZoccs.s 			page 84


 2875              	.LBB988:
 2876              	.LBB976:
 456:MidiController.cpp **** }
 2877              		.loc 1 456 45 view .LVU755
 2878 001c 9CF8ACE2 		ldrb	lr, [ip, #684]	@ zero_extendqisi2
 2879              	.LBE976:
 2880              	.LBE988:
 2881              	.LBB989:
 2882              	.LBB984:
 374:MidiController.cpp **** }
 2883              		.loc 1 374 16 view .LVU756
 2884 0020 5C1C     		adds	r4, r3, #1
 366:MidiController.cpp ****     msg.status = status;
 2885              		.loc 1 366 38 view .LVU757
 2886 0022 9CF8B535 		ldrb	r3, [ip, #1461]	@ zero_extendqisi2
 2887              	.LVL155:
 367:MidiController.cpp ****     msg.data1 = data1;
 2888              		.loc 1 367 5 is_stmt 1 view .LVU758
 2889              	.LBE984:
 2890              	.LBE989:
 2891              	.LBB990:
 2892              	.LBB977:
 456:MidiController.cpp **** }
 2893              		.loc 1 456 45 is_stmt 0 view .LVU759
 2894 0026 0EF1FF3E 		add	lr, lr, #-1
 2895              	.LBE977:
 2896              	.LBE990:
 2897              	.LBB991:
 2898              	.LBB985:
 367:MidiController.cpp ****     msg.data1 = data1;
 2899              		.loc 1 367 16 view .LVU760
 2900 002a 0F4E     		ldr	r6, .L147
 2901 002c 03EB4307 		add	r7, r3, r3, lsl #1
 368:MidiController.cpp ****     msg.data2 = data2;
 2902              		.loc 1 368 15 view .LVU761
 2903 0030 0E4D     		ldr	r5, .L147+4
 2904              	.LBE985:
 2905              	.LBE991:
 2906              	.LBB992:
 2907              	.LBB978:
 456:MidiController.cpp **** }
 2908              		.loc 1 456 50 view .LVU762
 2909 0032 0EF00F0E 		and	lr, lr, #15
 2910              	.LBE978:
 2911              	.LBE992:
 2912              	.LBB993:
 2913              	.LBB986:
 373:MidiController.cpp ****     queueCount_++;
 2914              		.loc 1 373 30 view .LVU763
 2915 0036 0133     		adds	r3, r3, #1
 2916              	.LVL156:
 367:MidiController.cpp ****     msg.data1 = data1;
 2917              		.loc 1 367 16 view .LVU764
 2918 0038 00EB8700 		add	r0, r0, r7, lsl #2
 2919              	.LVL157:
 367:MidiController.cpp ****     msg.data1 = data1;
 2920              		.loc 1 367 16 view .LVU765
ARM GAS  C:\Users\Marco\AppData\Local\Temp\ccVZoccs.s 			page 85


 2921              	.LBE986:
 2922              	.LBE993:
 2923              	.LBB994:
 2924              	.LBB979:
 456:MidiController.cpp **** }
 2925              		.loc 1 456 33 view .LVU766
 2926 003c 6EF05F0E 		orn	lr, lr, #95
 2927              	.LBE979:
 2928              	.LBE994:
 2929              	.LBB995:
 2930              	.LBB987:
 373:MidiController.cpp ****     queueCount_++;
 2931              		.loc 1 373 35 view .LVU767
 2932 0040 03F03F03 		and	r3, r3, #63
 2933              	.LVL158:
 367:MidiController.cpp ****     msg.data1 = data1;
 2934              		.loc 1 367 16 view .LVU768
 2935 0044 00F806E0 		strb	lr, [r0, r6]
 2936              	.LVL159:
 368:MidiController.cpp ****     msg.data2 = data2;
 2937              		.loc 1 368 5 is_stmt 1 view .LVU769
 368:MidiController.cpp ****     msg.data2 = data2;
 2938              		.loc 1 368 15 is_stmt 0 view .LVU770
 2939 0048 4155     		strb	r1, [r0, r5]
 369:MidiController.cpp ****     msg.hasData2 = true;
 2940              		.loc 1 369 5 is_stmt 1 view .LVU771
 369:MidiController.cpp ****     msg.hasData2 = true;
 2941              		.loc 1 369 15 is_stmt 0 view .LVU772
 2942 004a 0949     		ldr	r1, .L147+8
 2943              	.LVL160:
 369:MidiController.cpp ****     msg.hasData2 = true;
 2944              		.loc 1 369 15 view .LVU773
 2945 004c 4254     		strb	r2, [r0, r1]
 370:MidiController.cpp ****     msg.timestamp = lastActivityTime_; // TODO: Get actual timestamp
 2946              		.loc 1 370 5 is_stmt 1 view .LVU774
 370:MidiController.cpp ****     msg.timestamp = lastActivityTime_; // TODO: Get actual timestamp
 2947              		.loc 1 370 18 is_stmt 0 view .LVU775
 2948 004e 0121     		movs	r1, #1
 2949 0050 084A     		ldr	r2, .L147+12
 2950              	.LVL161:
 370:MidiController.cpp ****     msg.timestamp = lastActivityTime_; // TODO: Get actual timestamp
 2951              		.loc 1 370 18 view .LVU776
 2952 0052 8154     		strb	r1, [r0, r2]
 371:MidiController.cpp ****     
 2953              		.loc 1 371 5 is_stmt 1 view .LVU777
 371:MidiController.cpp ****     
 2954              		.loc 1 371 19 is_stmt 0 view .LVU778
 2955 0054 043A     		subs	r2, r2, #4
 2956 0056 DCF8BC15 		ldr	r1, [ip, #1468]
 2957 005a 8150     		str	r1, [r0, r2]
 373:MidiController.cpp ****     queueCount_++;
 2958              		.loc 1 373 5 is_stmt 1 view .LVU779
 373:MidiController.cpp ****     queueCount_++;
 2959              		.loc 1 373 16 is_stmt 0 view .LVU780
 2960 005c 8CF8B535 		strb	r3, [ip, #1461]
 2961              	.LVL162:
 374:MidiController.cpp **** }
ARM GAS  C:\Users\Marco\AppData\Local\Temp\ccVZoccs.s 			page 86


 2962              		.loc 1 374 5 is_stmt 1 view .LVU781
 374:MidiController.cpp **** }
 2963              		.loc 1 374 16 is_stmt 0 view .LVU782
 2964 0060 8CF8B645 		strb	r4, [ip, #1462]
 2965              	.LVL163:
 374:MidiController.cpp **** }
 2966              		.loc 1 374 16 view .LVU783
 2967              	.LBE987:
 2968              	.LBE995:
 138:MidiController.cpp **** 
 2969              		.loc 1 138 1 view .LVU784
 2970 0064 F0BD     		pop	{r4, r5, r6, r7, pc}
 2971              	.LVL164:
 2972              	.L144:
 2973              		.cfi_def_cfa_offset 0
 2974              		.cfi_restore 4
 2975              		.cfi_restore 5
 2976              		.cfi_restore 6
 2977              		.cfi_restore 7
 2978              		.cfi_restore 14
 138:MidiController.cpp **** 
 2979              		.loc 1 138 1 view .LVU785
 2980 0066 7047     		bx	lr
 2981              	.L148:
 2982              		.align	2
 2983              	.L147:
 2984 0068 B4220100 		.word	74420
 2985 006c B5220100 		.word	74421
 2986 0070 B6220100 		.word	74422
 2987 0074 BC220100 		.word	74428
 2988              		.cfi_endproc
 2989              	.LFE2576:
 2991              		.section	.text._ZN14MidiController10SetChannelEh,"ax",%progbits
 2992              		.align	1
 2993              		.p2align 2,,3
 2994              		.global	_ZN14MidiController10SetChannelEh
 2995              		.syntax unified
 2996              		.thumb
 2997              		.thumb_func
 2998              		.fpu fpv5-d16
 3000              	_ZN14MidiController10SetChannelEh:
 3001              	.LVL165:
 3002              	.LFB2577:
 141:MidiController.cpp ****     if (IsValidChannel(channel)) {
 3003              		.loc 1 141 50 is_stmt 1 view -0
 3004              		.cfi_startproc
 3005              		@ args = 0, pretend = 0, frame = 0
 3006              		@ frame_needed = 0, uses_anonymous_args = 0
 3007              		@ link register save eliminated.
 142:MidiController.cpp ****         midiChannel_ = channel;
 3008              		.loc 1 142 5 view .LVU787
 3009              	.LBB996:
 3010              	.LBI996:
 459:MidiController.cpp ****     return channel >= 1 && channel <= 16;
 3011              		.loc 1 459 6 view .LVU788
 3012              	.LBB997:
 460:MidiController.cpp **** }
ARM GAS  C:\Users\Marco\AppData\Local\Temp\ccVZoccs.s 			page 87


 3013              		.loc 1 460 5 view .LVU789
 460:MidiController.cpp **** }
 3014              		.loc 1 460 5 is_stmt 0 view .LVU790
 3015              	.LBE997:
 3016              	.LBE996:
 142:MidiController.cpp ****         midiChannel_ = channel;
 3017              		.loc 1 142 5 view .LVU791
 3018 0000 4B1E     		subs	r3, r1, #1
 3019 0002 0F2B     		cmp	r3, #15
 3020 0004 03D8     		bhi	.L149
 143:MidiController.cpp ****     }
 3021              		.loc 1 143 9 is_stmt 1 view .LVU792
 143:MidiController.cpp ****     }
 3022              		.loc 1 143 22 is_stmt 0 view .LVU793
 3023 0006 00F59030 		add	r0, r0, #73728
 3024              	.LVL166:
 143:MidiController.cpp ****     }
 3025              		.loc 1 143 22 view .LVU794
 3026 000a 80F8AC12 		strb	r1, [r0, #684]
 3027              	.LVL167:
 3028              	.L149:
 145:MidiController.cpp **** 
 3029              		.loc 1 145 1 view .LVU795
 3030 000e 7047     		bx	lr
 3031              		.cfi_endproc
 3032              	.LFE2577:
 3034              		.section	.text._ZN14MidiController13SetOutputModeE14MidiOutputMode,"ax",%progbits
 3035              		.align	1
 3036              		.p2align 2,,3
 3037              		.global	_ZN14MidiController13SetOutputModeE14MidiOutputMode
 3038              		.syntax unified
 3039              		.thumb
 3040              		.thumb_func
 3041              		.fpu fpv5-d16
 3043              	_ZN14MidiController13SetOutputModeE14MidiOutputMode:
 3044              	.LVL168:
 3045              	.LFB2578:
 147:MidiController.cpp ****     outputMode_ = mode;
 3046              		.loc 1 147 57 is_stmt 1 view -0
 3047              		.cfi_startproc
 3048              		@ args = 0, pretend = 0, frame = 0
 3049              		@ frame_needed = 0, uses_anonymous_args = 0
 3050              		@ link register save eliminated.
 148:MidiController.cpp **** }
 3051              		.loc 1 148 5 view .LVU797
 148:MidiController.cpp **** }
 3052              		.loc 1 148 17 is_stmt 0 view .LVU798
 3053 0000 00F59030 		add	r0, r0, #73728
 3054              	.LVL169:
 148:MidiController.cpp **** }
 3055              		.loc 1 148 17 view .LVU799
 3056 0004 80F8AD12 		strb	r1, [r0, #685]
 149:MidiController.cpp **** 
 3057              		.loc 1 149 1 view .LVU800
 3058 0008 7047     		bx	lr
 3059              		.cfi_endproc
 3060              	.LFE2578:
ARM GAS  C:\Users\Marco\AppData\Local\Temp\ccVZoccs.s 			page 88


 3062 000a 00BF     		.section	.text._ZN14MidiController10SetEnabledEb,"ax",%progbits
 3063              		.align	1
 3064              		.p2align 2,,3
 3065              		.global	_ZN14MidiController10SetEnabledEb
 3066              		.syntax unified
 3067              		.thumb
 3068              		.thumb_func
 3069              		.fpu fpv5-d16
 3071              	_ZN14MidiController10SetEnabledEb:
 3072              	.LVL170:
 3073              	.LFB2579:
 151:MidiController.cpp ****     enabled_ = enabled;
 3074              		.loc 1 151 47 is_stmt 1 view -0
 3075              		.cfi_startproc
 3076              		@ args = 0, pretend = 0, frame = 0
 3077              		@ frame_needed = 0, uses_anonymous_args = 0
 3078              		@ link register save eliminated.
 152:MidiController.cpp **** }
 3079              		.loc 1 152 5 view .LVU802
 152:MidiController.cpp **** }
 3080              		.loc 1 152 14 is_stmt 0 view .LVU803
 3081 0000 00F59030 		add	r0, r0, #73728
 3082              	.LVL171:
 152:MidiController.cpp **** }
 3083              		.loc 1 152 14 view .LVU804
 3084 0004 80F8AE12 		strb	r1, [r0, #686]
 153:MidiController.cpp **** 
 3085              		.loc 1 153 1 view .LVU805
 3086 0008 7047     		bx	lr
 3087              		.cfi_endproc
 3088              	.LFE2579:
 3090 000a 00BF     		.section	.text._ZN14MidiController18HasPendingMessagesEv,"ax",%progbits
 3091              		.align	1
 3092              		.p2align 2,,3
 3093              		.global	_ZN14MidiController18HasPendingMessagesEv
 3094              		.syntax unified
 3095              		.thumb
 3096              		.thumb_func
 3097              		.fpu fpv5-d16
 3099              	_ZN14MidiController18HasPendingMessagesEv:
 3100              	.LVL172:
 3101              	.LFB2580:
 156:MidiController.cpp ****     return queueCount_ > 0;
 3102              		.loc 1 156 43 is_stmt 1 view -0
 3103              		.cfi_startproc
 3104              		@ args = 0, pretend = 0, frame = 0
 3105              		@ frame_needed = 0, uses_anonymous_args = 0
 3106              		@ link register save eliminated.
 157:MidiController.cpp **** }
 3107              		.loc 1 157 5 view .LVU807
 157:MidiController.cpp **** }
 3108              		.loc 1 157 12 is_stmt 0 view .LVU808
 3109 0000 00F59030 		add	r0, r0, #73728
 3110              	.LVL173:
 157:MidiController.cpp **** }
 3111              		.loc 1 157 26 view .LVU809
 3112 0004 90F8B605 		ldrb	r0, [r0, #1462]	@ zero_extendqisi2
ARM GAS  C:\Users\Marco\AppData\Local\Temp\ccVZoccs.s 			page 89


 3113              	.LVL174:
 158:MidiController.cpp **** 
 3114              		.loc 1 158 1 view .LVU810
 3115 0008 0038     		subs	r0, r0, #0
 3116 000a 18BF     		it	ne
 3117 000c 0120     		movne	r0, #1
 3118 000e 7047     		bx	lr
 3119              		.cfi_endproc
 3120              	.LFE2580:
 3122              		.section	.text._ZN14MidiController17ClearMessageQueueEv,"ax",%progbits
 3123              		.align	1
 3124              		.p2align 2,,3
 3125              		.global	_ZN14MidiController17ClearMessageQueueEv
 3126              		.syntax unified
 3127              		.thumb
 3128              		.thumb_func
 3129              		.fpu fpv5-d16
 3131              	_ZN14MidiController17ClearMessageQueueEv:
 3132              	.LVL175:
 3133              	.LFB2582:
 165:MidiController.cpp ****     queueHead_ = 0;
 3134              		.loc 1 165 42 is_stmt 1 view -0
 3135              		.cfi_startproc
 3136              		@ args = 0, pretend = 0, frame = 0
 3137              		@ frame_needed = 0, uses_anonymous_args = 0
 3138              		@ link register save eliminated.
 166:MidiController.cpp ****     queueTail_ = 0;
 3139              		.loc 1 166 5 view .LVU812
 167:MidiController.cpp ****     queueCount_ = 0;
 3140              		.loc 1 167 5 view .LVU813
 168:MidiController.cpp **** }
 3141              		.loc 1 168 5 view .LVU814
 166:MidiController.cpp ****     queueTail_ = 0;
 3142              		.loc 1 166 16 is_stmt 0 view .LVU815
 3143 0000 0023     		movs	r3, #0
 3144 0002 00F59030 		add	r0, r0, #73728
 3145              	.LVL176:
 166:MidiController.cpp ****     queueTail_ = 0;
 3146              		.loc 1 166 16 view .LVU816
 3147 0006 A0F8B435 		strh	r3, [r0, #1460]	@ movhi
 168:MidiController.cpp **** }
 3148              		.loc 1 168 17 view .LVU817
 3149 000a 80F8B635 		strb	r3, [r0, #1462]
 169:MidiController.cpp **** 
 3150              		.loc 1 169 1 view .LVU818
 3151 000e 7047     		bx	lr
 3152              		.cfi_endproc
 3153              	.LFE2582:
 3155              		.section	.text._ZN14MidiController17GetCurrentChannelEv,"ax",%progbits
 3156              		.align	1
 3157              		.p2align 2,,3
 3158              		.global	_ZN14MidiController17GetCurrentChannelEv
 3159              		.syntax unified
 3160              		.thumb
 3161              		.thumb_func
 3162              		.fpu fpv5-d16
 3164              	_ZN14MidiController17GetCurrentChannelEv:
ARM GAS  C:\Users\Marco\AppData\Local\Temp\ccVZoccs.s 			page 90


 3165              	.LVL177:
 3166              	.LFB2583:
 172:MidiController.cpp ****     return midiChannel_;
 3167              		.loc 1 172 45 is_stmt 1 view -0
 3168              		.cfi_startproc
 3169              		@ args = 0, pretend = 0, frame = 0
 3170              		@ frame_needed = 0, uses_anonymous_args = 0
 3171              		@ link register save eliminated.
 173:MidiController.cpp **** }
 3172              		.loc 1 173 5 view .LVU820
 173:MidiController.cpp **** }
 3173              		.loc 1 173 12 is_stmt 0 view .LVU821
 3174 0000 00F59030 		add	r0, r0, #73728
 3175              	.LVL178:
 174:MidiController.cpp **** 
 3176              		.loc 1 174 1 view .LVU822
 3177 0004 90F8AC02 		ldrb	r0, [r0, #684]	@ zero_extendqisi2
 3178              	.LVL179:
 174:MidiController.cpp **** 
 3179              		.loc 1 174 1 view .LVU823
 3180 0008 7047     		bx	lr
 3181              		.cfi_endproc
 3182              	.LFE2583:
 3184 000a 00BF     		.section	.text._ZN14MidiController13GetOutputModeEv,"ax",%progbits
 3185              		.align	1
 3186              		.p2align 2,,3
 3187              		.global	_ZN14MidiController13GetOutputModeEv
 3188              		.syntax unified
 3189              		.thumb
 3190              		.thumb_func
 3191              		.fpu fpv5-d16
 3193              	_ZN14MidiController13GetOutputModeEv:
 3194              	.LVL180:
 3195              	.LFB2584:
 176:MidiController.cpp ****     return outputMode_;
 3196              		.loc 1 176 48 is_stmt 1 view -0
 3197              		.cfi_startproc
 3198              		@ args = 0, pretend = 0, frame = 0
 3199              		@ frame_needed = 0, uses_anonymous_args = 0
 3200              		@ link register save eliminated.
 177:MidiController.cpp **** }
 3201              		.loc 1 177 5 view .LVU825
 177:MidiController.cpp **** }
 3202              		.loc 1 177 12 is_stmt 0 view .LVU826
 3203 0000 00F59030 		add	r0, r0, #73728
 3204              	.LVL181:
 178:MidiController.cpp **** 
 3205              		.loc 1 178 1 view .LVU827
 3206 0004 90F8AD02 		ldrb	r0, [r0, #685]	@ zero_extendqisi2
 3207              	.LVL182:
 178:MidiController.cpp **** 
 3208              		.loc 1 178 1 view .LVU828
 3209 0008 7047     		bx	lr
 3210              		.cfi_endproc
 3211              	.LFE2584:
 3213 000a 00BF     		.section	.text._ZN14MidiController9IsEnabledEv,"ax",%progbits
 3214              		.align	1
ARM GAS  C:\Users\Marco\AppData\Local\Temp\ccVZoccs.s 			page 91


 3215              		.p2align 2,,3
 3216              		.global	_ZN14MidiController9IsEnabledEv
 3217              		.syntax unified
 3218              		.thumb
 3219              		.thumb_func
 3220              		.fpu fpv5-d16
 3222              	_ZN14MidiController9IsEnabledEv:
 3223              	.LVL183:
 3224              	.LFB2585:
 180:MidiController.cpp ****     return enabled_;
 3225              		.loc 1 180 34 is_stmt 1 view -0
 3226              		.cfi_startproc
 3227              		@ args = 0, pretend = 0, frame = 0
 3228              		@ frame_needed = 0, uses_anonymous_args = 0
 3229              		@ link register save eliminated.
 181:MidiController.cpp **** }
 3230              		.loc 1 181 5 view .LVU830
 181:MidiController.cpp **** }
 3231              		.loc 1 181 12 is_stmt 0 view .LVU831
 3232 0000 00F59030 		add	r0, r0, #73728
 3233              	.LVL184:
 182:MidiController.cpp **** 
 3234              		.loc 1 182 1 view .LVU832
 3235 0004 90F8AE02 		ldrb	r0, [r0, #686]	@ zero_extendqisi2
 3236              	.LVL185:
 182:MidiController.cpp **** 
 3237              		.loc 1 182 1 view .LVU833
 3238 0008 7047     		bx	lr
 3239              		.cfi_endproc
 3240              	.LFE2585:
 3242 000a 00BF     		.section	.text._ZN14MidiController15GetMessagesSentEv,"ax",%progbits
 3243              		.align	1
 3244              		.p2align 2,,3
 3245              		.global	_ZN14MidiController15GetMessagesSentEv
 3246              		.syntax unified
 3247              		.thumb
 3248              		.thumb_func
 3249              		.fpu fpv5-d16
 3251              	_ZN14MidiController15GetMessagesSentEv:
 3252              	.LVL186:
 3253              	.LFB2586:
 184:MidiController.cpp ****     return messagesSent_;
 3254              		.loc 1 184 44 is_stmt 1 view -0
 3255              		.cfi_startproc
 3256              		@ args = 0, pretend = 0, frame = 0
 3257              		@ frame_needed = 0, uses_anonymous_args = 0
 3258              		@ link register save eliminated.
 185:MidiController.cpp **** }
 3259              		.loc 1 185 5 view .LVU835
 185:MidiController.cpp **** }
 3260              		.loc 1 185 12 is_stmt 0 view .LVU836
 3261 0000 00F59030 		add	r0, r0, #73728
 3262              	.LVL187:
 186:MidiController.cpp **** 
 3263              		.loc 1 186 1 view .LVU837
 3264 0004 D0F8B805 		ldr	r0, [r0, #1464]
 3265              	.LVL188:
ARM GAS  C:\Users\Marco\AppData\Local\Temp\ccVZoccs.s 			page 92


 186:MidiController.cpp **** 
 3266              		.loc 1 186 1 view .LVU838
 3267 0008 7047     		bx	lr
 3268              		.cfi_endproc
 3269              	.LFE2586:
 3271 000a 00BF     		.section	.text._ZN14MidiController19GetLastActivityTimeEv,"ax",%progbits
 3272              		.align	1
 3273              		.p2align 2,,3
 3274              		.global	_ZN14MidiController19GetLastActivityTimeEv
 3275              		.syntax unified
 3276              		.thumb
 3277              		.thumb_func
 3278              		.fpu fpv5-d16
 3280              	_ZN14MidiController19GetLastActivityTimeEv:
 3281              	.LVL189:
 3282              	.LFB2587:
 188:MidiController.cpp ****     return lastActivityTime_;
 3283              		.loc 1 188 48 is_stmt 1 view -0
 3284              		.cfi_startproc
 3285              		@ args = 0, pretend = 0, frame = 0
 3286              		@ frame_needed = 0, uses_anonymous_args = 0
 3287              		@ link register save eliminated.
 189:MidiController.cpp **** }
 3288              		.loc 1 189 5 view .LVU840
 189:MidiController.cpp **** }
 3289              		.loc 1 189 12 is_stmt 0 view .LVU841
 3290 0000 00F59030 		add	r0, r0, #73728
 3291              	.LVL190:
 190:MidiController.cpp **** 
 3292              		.loc 1 190 1 view .LVU842
 3293 0004 D0F8BC05 		ldr	r0, [r0, #1468]
 3294              	.LVL191:
 190:MidiController.cpp **** 
 3295              		.loc 1 190 1 view .LVU843
 3296 0008 7047     		bx	lr
 3297              		.cfi_endproc
 3298              	.LFE2587:
 3300 000a 00BF     		.section	.text._ZN14MidiController8SelfTestEv,"ax",%progbits
 3301              		.align	1
 3302              		.p2align 2,,3
 3303              		.global	_ZN14MidiController8SelfTestEv
 3304              		.syntax unified
 3305              		.thumb
 3306              		.thumb_func
 3307              		.fpu fpv5-d16
 3309              	_ZN14MidiController8SelfTestEv:
 3310              	.LVL192:
 3311              	.LFB2588:
 192:MidiController.cpp ****     // Perform basic self-test
 3312              		.loc 1 192 33 is_stmt 1 view -0
 3313              		.cfi_startproc
 3314              		@ args = 0, pretend = 0, frame = 0
 3315              		@ frame_needed = 0, uses_anonymous_args = 0
 3316              		@ link register save eliminated.
 194:MidiController.cpp ****     bool uartOk = true;
 3317              		.loc 1 194 5 view .LVU845
 195:MidiController.cpp ****     
ARM GAS  C:\Users\Marco\AppData\Local\Temp\ccVZoccs.s 			page 93


 3318              		.loc 1 195 5 view .LVU846
 198:MidiController.cpp ****     
 3319              		.loc 1 198 5 view .LVU847
 201:MidiController.cpp ****     
 3320              		.loc 1 201 5 view .LVU848
 3321              	.LBB998:
 3322              	.LBI998:
 459:MidiController.cpp ****     return channel >= 1 && channel <= 16;
 3323              		.loc 1 459 6 view .LVU849
 3324              	.LBB999:
 460:MidiController.cpp **** }
 3325              		.loc 1 460 5 view .LVU850
 460:MidiController.cpp **** }
 3326              		.loc 1 460 5 is_stmt 0 view .LVU851
 3327              	.LBE999:
 3328              	.LBE998:
 203:MidiController.cpp **** }
 3329              		.loc 1 203 5 is_stmt 1 view .LVU852
 201:MidiController.cpp ****     
 3330              		.loc 1 201 36 is_stmt 0 view .LVU853
 3331 0000 00F59030 		add	r0, r0, #73728
 3332              	.LVL193:
 3333              	.LBB1002:
 3334              	.LBB1000:
 460:MidiController.cpp **** }
 3335              		.loc 1 460 25 view .LVU854
 3336 0004 90F8AC32 		ldrb	r3, [r0, #684]	@ zero_extendqisi2
 3337              	.LBE1000:
 3338              	.LBE1002:
 198:MidiController.cpp ****     
 3339              		.loc 1 198 10 view .LVU855
 3340 0008 90F8B605 		ldrb	r0, [r0, #1462]	@ zero_extendqisi2
 3341              	.LVL194:
 3342              	.LBB1003:
 3343              	.LBB1001:
 460:MidiController.cpp **** }
 3344              		.loc 1 460 39 view .LVU856
 3345 000c 013B     		subs	r3, r3, #1
 3346              	.LBE1001:
 3347              	.LBE1003:
 204:MidiController.cpp **** 
 3348              		.loc 1 204 1 view .LVU857
 3349 000e 0F2B     		cmp	r3, #15
 3350 0010 98BF     		it	ls
 3351 0012 4028     		cmpls	r0, #64
 3352 0014 94BF     		ite	ls
 3353 0016 0120     		movls	r0, #1
 3354 0018 0020     		movhi	r0, #0
 3355 001a 7047     		bx	lr
 3356              		.cfi_endproc
 3357              	.LFE2588:
 3359              		.section	.text._ZN14MidiController9SendSysExEPhj,"ax",%progbits
 3360              		.align	1
 3361              		.p2align 2,,3
 3362              		.global	_ZN14MidiController9SendSysExEPhj
 3363              		.syntax unified
 3364              		.thumb
ARM GAS  C:\Users\Marco\AppData\Local\Temp\ccVZoccs.s 			page 94


 3365              		.thumb_func
 3366              		.fpu fpv5-d16
 3368              	_ZN14MidiController9SendSysExEPhj:
 3369              	.LVL195:
 3370              	.LFB2589:
 207:MidiController.cpp ****     if (!enabled_ || length < 1) return;
 3371              		.loc 1 207 62 is_stmt 1 view -0
 3372              		.cfi_startproc
 3373              		@ args = 0, pretend = 0, frame = 0
 3374              		@ frame_needed = 0, uses_anonymous_args = 0
 208:MidiController.cpp ****     
 3375              		.loc 1 208 5 view .LVU859
 207:MidiController.cpp ****     if (!enabled_ || length < 1) return;
 3376              		.loc 1 207 62 is_stmt 0 view .LVU860
 3377 0000 2DE9F041 		push	{r4, r5, r6, r7, r8, lr}
 3378              		.cfi_def_cfa_offset 24
 3379              		.cfi_offset 4, -24
 3380              		.cfi_offset 5, -20
 3381              		.cfi_offset 6, -16
 3382              		.cfi_offset 7, -12
 3383              		.cfi_offset 8, -8
 3384              		.cfi_offset 14, -4
 208:MidiController.cpp ****     
 3385              		.loc 1 208 10 view .LVU861
 3386 0004 00F59037 		add	r7, r0, #73728
 208:MidiController.cpp ****     
 3387              		.loc 1 208 19 view .LVU862
 3388 0008 97F8AE32 		ldrb	r3, [r7, #686]	@ zero_extendqisi2
 3389 000c 012B     		cmp	r3, #1
 3390 000e 01D1     		bne	.L161
 3391 0010 1446     		mov	r4, r2
 3392 0012 0AB9     		cbnz	r2, .L172
 3393              	.L161:
 232:MidiController.cpp **** 
 3394              		.loc 1 232 1 view .LVU863
 3395 0014 BDE8F081 		pop	{r4, r5, r6, r7, r8, pc}
 3396              	.L172:
 211:MidiController.cpp ****     sysexMsg[0] = 0xF0; // SysEx start
 3397              		.loc 1 211 5 is_stmt 1 view .LVU864
 211:MidiController.cpp ****     sysexMsg[0] = 0xF0; // SysEx start
 3398              		.loc 1 211 44 is_stmt 0 view .LVU865
 3399 0018 02F10208 		add	r8, r2, #2
 3400 001c 0D46     		mov	r5, r1
 3401 001e 0646     		mov	r6, r0
 211:MidiController.cpp ****     sysexMsg[0] = 0xF0; // SysEx start
 3402              		.loc 1 211 47 view .LVU866
 3403 0020 4046     		mov	r0, r8
 3404              	.LVL196:
 211:MidiController.cpp ****     sysexMsg[0] = 0xF0; // SysEx start
 3405              		.loc 1 211 47 view .LVU867
 3406 0022 FFF7FEFF 		bl	_Znaj
 3407              	.LVL197:
 3408              	.LBB1004:
 214:MidiController.cpp ****     }
 3409              		.loc 1 214 25 view .LVU868
 3410 0026 002C     		cmp	r4, #0
 3411              	.LBE1004:
ARM GAS  C:\Users\Marco\AppData\Local\Temp\ccVZoccs.s 			page 95


 212:MidiController.cpp ****     for (size_t i = 0; i < length; i++) {
 3412              		.loc 1 212 17 view .LVU869
 3413 0028 4FF0F003 		mov	r3, #240
 3414              	.LBB1005:
 214:MidiController.cpp ****     }
 3415              		.loc 1 214 25 view .LVU870
 3416 002c 2946     		mov	r1, r5
 3417              	.LBE1005:
 211:MidiController.cpp ****     sysexMsg[0] = 0xF0; // SysEx start
 3418              		.loc 1 211 47 view .LVU871
 3419 002e 0546     		mov	r5, r0
 3420              	.LVL198:
 212:MidiController.cpp ****     for (size_t i = 0; i < length; i++) {
 3421              		.loc 1 212 5 is_stmt 1 view .LVU872
 3422              	.LBB1006:
 214:MidiController.cpp ****     }
 3423              		.loc 1 214 25 is_stmt 0 view .LVU873
 3424 0030 14BF     		ite	ne
 3425 0032 2246     		movne	r2, r4
 3426 0034 0122     		moveq	r2, #1
 3427              	.LBE1006:
 212:MidiController.cpp ****     for (size_t i = 0; i < length; i++) {
 3428              		.loc 1 212 17 view .LVU874
 3429 0036 00F8013B 		strb	r3, [r0], #1
 3430              	.LVL199:
 213:MidiController.cpp ****         sysexMsg[i + 1] = data[i];
 3431              		.loc 1 213 5 is_stmt 1 view .LVU875
 3432              	.LBB1007:
 213:MidiController.cpp ****         sysexMsg[i + 1] = data[i];
 3433              		.loc 1 213 26 view .LVU876
 214:MidiController.cpp ****     }
 3434              		.loc 1 214 25 is_stmt 0 view .LVU877
 3435 003a FFF7FEFF 		bl	memcpy
 3436              	.LVL200:
 214:MidiController.cpp ****     }
 3437              		.loc 1 214 25 view .LVU878
 3438              	.LBE1007:
 216:MidiController.cpp ****     
 3439              		.loc 1 216 5 is_stmt 1 view .LVU879
 216:MidiController.cpp ****     
 3440              		.loc 1 216 26 is_stmt 0 view .LVU880
 3441 003e 2C44     		add	r4, r4, r5
 3442              	.LVL201:
 216:MidiController.cpp ****     
 3443              		.loc 1 216 26 view .LVU881
 3444 0040 F723     		movs	r3, #247
 3445 0042 6370     		strb	r3, [r4, #1]
 218:MidiController.cpp ****         if (usbConnected_) {
 3446              		.loc 1 218 5 is_stmt 1 view .LVU882
 218:MidiController.cpp ****         if (usbConnected_) {
 3447              		.loc 1 218 9 is_stmt 0 view .LVU883
 3448 0044 97F8AD32 		ldrb	r3, [r7, #685]	@ zero_extendqisi2
 218:MidiController.cpp ****         if (usbConnected_) {
 3449              		.loc 1 218 5 view .LVU884
 3450 0048 13F0FD0F 		tst	r3, #253
 3451 004c 0BD1     		bne	.L163
 219:MidiController.cpp ****             SendViaUSB(sysexMsg, length + 2);
ARM GAS  C:\Users\Marco\AppData\Local\Temp\ccVZoccs.s 			page 96


 3452              		.loc 1 219 9 is_stmt 1 view .LVU885
 3453 004e 97F8AF22 		ldrb	r2, [r7, #687]	@ zero_extendqisi2
 3454 0052 42B1     		cbz	r2, .L163
 220:MidiController.cpp ****         }
 3455              		.loc 1 220 13 view .LVU886
 3456              	.LVL202:
 3457              	.LBB1008:
 3458              	.LBI1008:
 414:MidiController.cpp ****     usbMidi_.SendMessage(data, length);
 3459              		.loc 1 414 6 view .LVU887
 3460              	.LBB1009:
 415:MidiController.cpp ****     // Note: SendMessage returns void, no error checking available
 3461              		.loc 1 415 5 view .LVU888
 3462              	.LBB1010:
 3463              	.LBI1010:
 208:../DaisyExamples/libDaisy/src/hid/midi.h ****     {
 3464              		.loc 2 208 10 view .LVU889
 3465              	.LBB1011:
 3466              		.loc 2 210 22 is_stmt 0 view .LVU890
 3467 0054 49F26C10 		movw	r0, #37228
 3468 0058 4246     		mov	r2, r8
 3469 005a 2946     		mov	r1, r5
 3470 005c 3044     		add	r0, r0, r6
 3471 005e FFF7FEFF 		bl	_ZN5daisy16MidiUsbTransport2TxEPhj
 3472              	.LVL203:
 3473              		.loc 2 210 22 view .LVU891
 3474              	.LBE1011:
 3475              	.LBE1010:
 3476              	.LBE1009:
 3477              	.LBE1008:
 224:MidiController.cpp ****         if (uartConnected_) {
 3478              		.loc 1 224 9 view .LVU892
 3479 0062 97F8AD32 		ldrb	r3, [r7, #685]	@ zero_extendqisi2
 3480              	.LVL204:
 3481              	.L163:
 224:MidiController.cpp ****         if (uartConnected_) {
 3482              		.loc 1 224 5 is_stmt 1 view .LVU893
 3483 0066 013B     		subs	r3, r3, #1
 3484 0068 012B     		cmp	r3, #1
 3485 006a 09D9     		bls	.L173
 3486              	.L164:
 230:MidiController.cpp ****     messagesSent_++;
 3487              		.loc 1 230 5 view .LVU894
 230:MidiController.cpp ****     messagesSent_++;
 3488              		.loc 1 230 14 is_stmt 0 view .LVU895
 3489 006c 2846     		mov	r0, r5
 3490 006e FFF7FEFF 		bl	_ZdaPv
 3491              	.LVL205:
 231:MidiController.cpp **** }
 3492              		.loc 1 231 5 is_stmt 1 view .LVU896
 231:MidiController.cpp **** }
 3493              		.loc 1 231 18 is_stmt 0 view .LVU897
 3494 0072 D7F8B835 		ldr	r3, [r7, #1464]
 3495 0076 0133     		adds	r3, r3, #1
 3496 0078 C7F8B835 		str	r3, [r7, #1464]
 232:MidiController.cpp **** 
 3497              		.loc 1 232 1 view .LVU898
ARM GAS  C:\Users\Marco\AppData\Local\Temp\ccVZoccs.s 			page 97


 3498 007c BDE8F081 		pop	{r4, r5, r6, r7, r8, pc}
 3499              	.LVL206:
 3500              	.L173:
 225:MidiController.cpp ****             SendViaUART(sysexMsg, length + 2);
 3501              		.loc 1 225 9 is_stmt 1 view .LVU899
 3502 0080 97F8B032 		ldrb	r3, [r7, #688]	@ zero_extendqisi2
 3503 0084 002B     		cmp	r3, #0
 3504 0086 F1D0     		beq	.L164
 226:MidiController.cpp ****         }
 3505              		.loc 1 226 13 view .LVU900
 3506              	.LVL207:
 3507              	.LBB1012:
 3508              	.LBI1012:
 419:MidiController.cpp ****     uartMidi_.SendMessage(data, length);
 3509              		.loc 1 419 6 view .LVU901
 3510              	.LBB1013:
 420:MidiController.cpp **** }
 3511              		.loc 1 420 5 view .LVU902
 3512              	.LBB1014:
 3513              	.LBI1014:
 208:../DaisyExamples/libDaisy/src/hid/midi.h ****     {
 3514              		.loc 2 208 10 view .LVU903
 3515              	.LBB1015:
 3516              	.LBI1015:
 106:../DaisyExamples/libDaisy/src/hid/midi.h **** 
 3517              		.loc 2 106 17 view .LVU904
 3518              	.LBB1016:
 106:../DaisyExamples/libDaisy/src/hid/midi.h **** 
 3519              		.loc 2 106 50 view .LVU905
 106:../DaisyExamples/libDaisy/src/hid/midi.h **** 
 3520              		.loc 2 106 62 is_stmt 0 view .LVU906
 3521 0088 4246     		mov	r2, r8
 3522 008a 2946     		mov	r1, r5
 3523 008c 06F11800 		add	r0, r6, #24
 3524 0090 FFF7FEFF 		bl	_ZN5daisy11UartHandler6PollTxEPhj
 3525              	.LVL208:
 106:../DaisyExamples/libDaisy/src/hid/midi.h **** 
 3526              		.loc 2 106 62 view .LVU907
 3527              	.LBE1016:
 3528              	.LBE1015:
 3529              	.LBE1014:
 421:MidiController.cpp **** 
 3530              		.loc 1 421 1 view .LVU908
 3531 0094 EAE7     		b	.L164
 3532              	.LBE1013:
 3533              	.LBE1012:
 3534              		.cfi_endproc
 3535              	.LFE2589:
 3537 0096 00BF     		.section	.text._ZN14MidiController7SendMTCEhh,"ax",%progbits
 3538              		.align	1
 3539              		.p2align 2,,3
 3540              		.global	_ZN14MidiController7SendMTCEhh
 3541              		.syntax unified
 3542              		.thumb
 3543              		.thumb_func
 3544              		.fpu fpv5-d16
 3546              	_ZN14MidiController7SendMTCEhh:
ARM GAS  C:\Users\Marco\AppData\Local\Temp\ccVZoccs.s 			page 98


 3547              	.LVL209:
 3548              	.LFB2590:
 234:MidiController.cpp ****     // MIDI Time Code Quarter Frame
 3549              		.loc 1 234 64 is_stmt 1 view -0
 3550              		.cfi_startproc
 3551              		@ args = 0, pretend = 0, frame = 0
 3552              		@ frame_needed = 0, uses_anonymous_args = 0
 3553              		@ link register save eliminated.
 236:MidiController.cpp ****     uint8_t dataByte = (frameType << 4) | (value & 0x0F);
 3554              		.loc 1 236 5 view .LVU910
 237:MidiController.cpp ****     SendMidiMessage(mtcByte, dataByte);
 3555              		.loc 1 237 5 view .LVU911
 3556              	.LBB1017:
 3557              	.LBB1018:
 314:MidiController.cpp ****     
 3558              		.loc 1 314 10 is_stmt 0 view .LVU912
 3559 0000 00F59033 		add	r3, r0, #73728
 3560              	.LBE1018:
 3561              	.LBE1017:
 234:MidiController.cpp ****     // MIDI Time Code Quarter Frame
 3562              		.loc 1 234 64 view .LVU913
 3563 0004 8C46     		mov	ip, r1
 3564              	.LVL210:
 238:MidiController.cpp **** }
 3565              		.loc 1 238 5 is_stmt 1 view .LVU914
 3566              	.LBB1022:
 3567              	.LBI1017:
 313:MidiController.cpp ****     if (!enabled_) return;
 3568              		.loc 1 313 6 view .LVU915
 3569              	.LBB1019:
 314:MidiController.cpp ****     
 3570              		.loc 1 314 5 view .LVU916
 3571 0006 93F8AE32 		ldrb	r3, [r3, #686]	@ zero_extendqisi2
 3572 000a 3BB1     		cbz	r3, .L174
 3573              	.LBE1019:
 3574              	.LBE1022:
 237:MidiController.cpp ****     SendMidiMessage(mtcByte, dataByte);
 3575              		.loc 1 237 50 is_stmt 0 view .LVU917
 3576 000c 02F00F02 		and	r2, r2, #15
 3577              	.LVL211:
 3578              	.LBB1023:
 3579              	.LBB1020:
 237:MidiController.cpp ****     SendMidiMessage(mtcByte, dataByte);
 3580              		.loc 1 237 50 view .LVU918
 3581 0010 F121     		movs	r1, #241
 3582              	.LVL212:
 237:MidiController.cpp ****     SendMidiMessage(mtcByte, dataByte);
 3583              		.loc 1 237 50 view .LVU919
 3584              	.LBE1020:
 3585              	.LBE1023:
 237:MidiController.cpp ****     SendMidiMessage(mtcByte, dataByte);
 3586              		.loc 1 237 41 view .LVU920
 3587 0012 42EA0C12 		orr	r2, r2, ip, lsl #4
 3588              	.LBB1024:
 3589              	.LBB1021:
 3590 0016 D2B2     		uxtb	r2, r2
 3591 0018 FFF7FEBF 		b	_ZN14MidiController15SendMidiMessageEhh.part.0
ARM GAS  C:\Users\Marco\AppData\Local\Temp\ccVZoccs.s 			page 99


 3592              	.LVL213:
 3593              	.L174:
 237:MidiController.cpp ****     SendMidiMessage(mtcByte, dataByte);
 3594              		.loc 1 237 41 view .LVU921
 3595              	.LBE1021:
 3596              	.LBE1024:
 239:MidiController.cpp **** 
 3597              		.loc 1 239 1 view .LVU922
 3598 001c 7047     		bx	lr
 3599              		.cfi_endproc
 3600              	.LFE2590:
 3602 001e 00BF     		.section	.text._ZN14MidiController16SendSongPositionEt,"ax",%progbits
 3603              		.align	1
 3604              		.p2align 2,,3
 3605              		.global	_ZN14MidiController16SendSongPositionEt
 3606              		.syntax unified
 3607              		.thumb
 3608              		.thumb_func
 3609              		.fpu fpv5-d16
 3611              	_ZN14MidiController16SendSongPositionEt:
 3612              	.LVL214:
 3613              	.LFB2591:
 241:MidiController.cpp ****     uint8_t lsb = position & 0x7F;
 3614              		.loc 1 241 58 is_stmt 1 view -0
 3615              		.cfi_startproc
 3616              		@ args = 0, pretend = 0, frame = 8
 3617              		@ frame_needed = 0, uses_anonymous_args = 0
 242:MidiController.cpp ****     uint8_t msb = (position >> 7) & 0x7F;
 3618              		.loc 1 242 5 view .LVU924
 241:MidiController.cpp ****     uint8_t lsb = position & 0x7F;
 3619              		.loc 1 241 58 is_stmt 0 view .LVU925
 3620 0000 30B5     		push	{r4, r5, lr}
 3621              		.cfi_def_cfa_offset 12
 3622              		.cfi_offset 4, -12
 3623              		.cfi_offset 5, -8
 3624              		.cfi_offset 14, -4
 244:MidiController.cpp ****     
 3625              		.loc 1 244 13 view .LVU926
 3626 0002 F223     		movs	r3, #242
 241:MidiController.cpp ****     uint8_t lsb = position & 0x7F;
 3627              		.loc 1 241 58 view .LVU927
 3628 0004 83B0     		sub	sp, sp, #12
 3629              		.cfi_def_cfa_offset 24
 246:MidiController.cpp ****         if (usbConnected_) {
 3630              		.loc 1 246 9 view .LVU928
 3631 0006 00F59035 		add	r5, r0, #73728
 242:MidiController.cpp ****     uint8_t msb = (position >> 7) & 0x7F;
 3632              		.loc 1 242 13 view .LVU929
 3633 000a 01F07F02 		and	r2, r1, #127
 244:MidiController.cpp ****     
 3634              		.loc 1 244 13 view .LVU930
 3635 000e 8DF80430 		strb	r3, [sp, #4]
 243:MidiController.cpp ****     uint8_t bytes[3] = {0xF2, lsb, msb};
 3636              		.loc 1 243 13 view .LVU931
 3637 0012 C1F3C611 		ubfx	r1, r1, #7, #7
 3638              	.LVL215:
 246:MidiController.cpp ****         if (usbConnected_) {
ARM GAS  C:\Users\Marco\AppData\Local\Temp\ccVZoccs.s 			page 100


 3639              		.loc 1 246 9 view .LVU932
 3640 0016 95F8AD32 		ldrb	r3, [r5, #685]	@ zero_extendqisi2
 241:MidiController.cpp ****     uint8_t lsb = position & 0x7F;
 3641              		.loc 1 241 58 view .LVU933
 3642 001a 0446     		mov	r4, r0
 243:MidiController.cpp ****     uint8_t bytes[3] = {0xF2, lsb, msb};
 3643              		.loc 1 243 5 is_stmt 1 view .LVU934
 244:MidiController.cpp ****     
 3644              		.loc 1 244 5 view .LVU935
 244:MidiController.cpp ****     
 3645              		.loc 1 244 39 is_stmt 0 view .LVU936
 3646 001c 8DF80520 		strb	r2, [sp, #5]
 246:MidiController.cpp ****         if (usbConnected_) {
 3647              		.loc 1 246 5 view .LVU937
 3648 0020 13F0FD0F 		tst	r3, #253
 244:MidiController.cpp ****     
 3649              		.loc 1 244 39 view .LVU938
 3650 0024 8DF80610 		strb	r1, [sp, #6]
 246:MidiController.cpp ****         if (usbConnected_) {
 3651              		.loc 1 246 5 is_stmt 1 view .LVU939
 3652 0028 02D1     		bne	.L177
 247:MidiController.cpp ****             SendViaUSB(bytes, 3);
 3653              		.loc 1 247 9 view .LVU940
 3654 002a 95F8AF22 		ldrb	r2, [r5, #687]	@ zero_extendqisi2
 3655 002e 82B9     		cbnz	r2, .L186
 3656              	.LVL216:
 3657              	.L177:
 252:MidiController.cpp ****         if (uartConnected_) {
 3658              		.loc 1 252 5 view .LVU941
 3659 0030 013B     		subs	r3, r3, #1
 3660 0032 012B     		cmp	r3, #1
 3661 0034 01D9     		bls	.L187
 3662              	.L176:
 257:MidiController.cpp **** 
 3663              		.loc 1 257 1 is_stmt 0 view .LVU942
 3664 0036 03B0     		add	sp, sp, #12
 3665              		.cfi_remember_state
 3666              		.cfi_def_cfa_offset 12
 3667              		@ sp needed
 3668 0038 30BD     		pop	{r4, r5, pc}
 3669              	.LVL217:
 3670              	.L187:
 3671              		.cfi_restore_state
 253:MidiController.cpp ****             SendViaUART(bytes, 3);
 3672              		.loc 1 253 9 is_stmt 1 view .LVU943
 3673 003a 95F8B032 		ldrb	r3, [r5, #688]	@ zero_extendqisi2
 3674 003e 002B     		cmp	r3, #0
 3675 0040 F9D0     		beq	.L176
 254:MidiController.cpp ****         }
 3676              		.loc 1 254 13 view .LVU944
 3677              	.LVL218:
 3678              	.LBB1025:
 3679              	.LBI1025:
 419:MidiController.cpp ****     uartMidi_.SendMessage(data, length);
 3680              		.loc 1 419 6 view .LVU945
 3681              	.LBB1026:
 420:MidiController.cpp **** }
ARM GAS  C:\Users\Marco\AppData\Local\Temp\ccVZoccs.s 			page 101


 3682              		.loc 1 420 5 view .LVU946
 3683              	.LBB1027:
 3684              	.LBI1027:
 208:../DaisyExamples/libDaisy/src/hid/midi.h ****     {
 3685              		.loc 2 208 10 view .LVU947
 3686              	.LBB1028:
 3687              	.LBI1028:
 106:../DaisyExamples/libDaisy/src/hid/midi.h **** 
 3688              		.loc 2 106 17 view .LVU948
 3689              	.LBB1029:
 106:../DaisyExamples/libDaisy/src/hid/midi.h **** 
 3690              		.loc 2 106 50 view .LVU949
 106:../DaisyExamples/libDaisy/src/hid/midi.h **** 
 3691              		.loc 2 106 62 is_stmt 0 view .LVU950
 3692 0042 0322     		movs	r2, #3
 3693 0044 01A9     		add	r1, sp, #4
 3694              	.LVL219:
 106:../DaisyExamples/libDaisy/src/hid/midi.h **** 
 3695              		.loc 2 106 62 view .LVU951
 3696 0046 04F11800 		add	r0, r4, #24
 3697 004a FFF7FEFF 		bl	_ZN5daisy11UartHandler6PollTxEPhj
 3698              	.LVL220:
 106:../DaisyExamples/libDaisy/src/hid/midi.h **** 
 3699              		.loc 2 106 62 view .LVU952
 3700              	.LBE1029:
 3701              	.LBE1028:
 3702              	.LBE1027:
 3703              	.LBE1026:
 3704              	.LBE1025:
 257:MidiController.cpp **** 
 3705              		.loc 1 257 1 view .LVU953
 3706 004e 03B0     		add	sp, sp, #12
 3707              		.cfi_remember_state
 3708              		.cfi_def_cfa_offset 12
 3709              		@ sp needed
 3710 0050 30BD     		pop	{r4, r5, pc}
 3711              	.LVL221:
 3712              	.L186:
 3713              		.cfi_restore_state
 248:MidiController.cpp ****         }
 3714              		.loc 1 248 13 is_stmt 1 view .LVU954
 3715              	.LBB1030:
 3716              	.LBI1030:
 414:MidiController.cpp ****     usbMidi_.SendMessage(data, length);
 3717              		.loc 1 414 6 view .LVU955
 3718              	.LBB1031:
 415:MidiController.cpp ****     // Note: SendMessage returns void, no error checking available
 3719              		.loc 1 415 5 view .LVU956
 3720              	.LBB1032:
 3721              	.LBI1032:
 208:../DaisyExamples/libDaisy/src/hid/midi.h ****     {
 3722              		.loc 2 208 10 view .LVU957
 3723              	.LBB1033:
 3724              		.loc 2 210 22 is_stmt 0 view .LVU958
 3725 0052 49F26C10 		movw	r0, #37228
 3726              	.LVL222:
 3727              		.loc 2 210 22 view .LVU959
ARM GAS  C:\Users\Marco\AppData\Local\Temp\ccVZoccs.s 			page 102


 3728 0056 0322     		movs	r2, #3
 3729 0058 01A9     		add	r1, sp, #4
 3730              	.LVL223:
 3731              		.loc 2 210 22 view .LVU960
 3732 005a 2044     		add	r0, r0, r4
 3733 005c FFF7FEFF 		bl	_ZN5daisy16MidiUsbTransport2TxEPhj
 3734              	.LVL224:
 3735              		.loc 2 210 22 view .LVU961
 3736              	.LBE1033:
 3737              	.LBE1032:
 3738              	.LBE1031:
 3739              	.LBE1030:
 252:MidiController.cpp ****         if (uartConnected_) {
 3740              		.loc 1 252 9 view .LVU962
 3741 0060 95F8AD32 		ldrb	r3, [r5, #685]	@ zero_extendqisi2
 3742              	.LBB1035:
 3743              	.LBB1034:
 417:MidiController.cpp **** 
 3744              		.loc 1 417 1 view .LVU963
 3745 0064 E4E7     		b	.L177
 3746              	.LBE1034:
 3747              	.LBE1035:
 3748              		.cfi_endproc
 3749              	.LFE2591:
 3751 0066 00BF     		.section	.text._ZN14MidiController9SendClockEv,"ax",%progbits
 3752              		.align	1
 3753              		.p2align 2,,3
 3754              		.global	_ZN14MidiController9SendClockEv
 3755              		.syntax unified
 3756              		.thumb
 3757              		.thumb_func
 3758              		.fpu fpv5-d16
 3760              	_ZN14MidiController9SendClockEv:
 3761              	.LVL225:
 3762              	.LFB2592:
 259:MidiController.cpp ****     SendMidiMessage(0xF8); // MIDI Clock
 3763              		.loc 1 259 34 is_stmt 1 view -0
 3764              		.cfi_startproc
 3765              		@ args = 0, pretend = 0, frame = 8
 3766              		@ frame_needed = 0, uses_anonymous_args = 0
 260:MidiController.cpp **** }
 3767              		.loc 1 260 5 view .LVU965
 3768              	.LBB1051:
 3769              	.LBI1051:
 337:MidiController.cpp ****     if (!enabled_) return;
 3770              		.loc 1 337 6 view .LVU966
 3771              	.LBB1052:
 338:MidiController.cpp ****     
 3772              		.loc 1 338 5 view .LVU967
 3773              	.LBE1052:
 3774              	.LBE1051:
 259:MidiController.cpp ****     SendMidiMessage(0xF8); // MIDI Clock
 3775              		.loc 1 259 34 is_stmt 0 view .LVU968
 3776 0000 30B5     		push	{r4, r5, lr}
 3777              		.cfi_def_cfa_offset 12
 3778              		.cfi_offset 4, -12
 3779              		.cfi_offset 5, -8
ARM GAS  C:\Users\Marco\AppData\Local\Temp\ccVZoccs.s 			page 103


 3780              		.cfi_offset 14, -4
 3781              	.LBB1075:
 3782              	.LBB1072:
 338:MidiController.cpp ****     
 3783              		.loc 1 338 10 view .LVU969
 3784 0002 00F59034 		add	r4, r0, #73728
 3785              	.LBE1072:
 3786              	.LBE1075:
 259:MidiController.cpp ****     SendMidiMessage(0xF8); // MIDI Clock
 3787              		.loc 1 259 34 view .LVU970
 3788 0006 83B0     		sub	sp, sp, #12
 3789              		.cfi_def_cfa_offset 24
 3790              	.LBB1076:
 3791              	.LBB1073:
 338:MidiController.cpp ****     
 3792              		.loc 1 338 5 view .LVU971
 3793 0008 94F8AE32 		ldrb	r3, [r4, #686]	@ zero_extendqisi2
 3794 000c D3B1     		cbz	r3, .L188
 3795              	.LVL226:
 3796              	.LBB1053:
 3797              	.LBI1053:
 337:MidiController.cpp ****     if (!enabled_) return;
 3798              		.loc 1 337 6 is_stmt 1 view .LVU972
 3799              	.LBB1054:
 340:MidiController.cpp ****     
 3800              		.loc 1 340 5 view .LVU973
 343:MidiController.cpp ****         if (usbConnected_) {
 3801              		.loc 1 343 9 is_stmt 0 view .LVU974
 3802 000e 94F8AD32 		ldrb	r3, [r4, #685]	@ zero_extendqisi2
 340:MidiController.cpp ****     
 3803              		.loc 1 340 35 view .LVU975
 3804 0012 F822     		movs	r2, #248
 3805 0014 0546     		mov	r5, r0
 343:MidiController.cpp ****         if (usbConnected_) {
 3806              		.loc 1 343 5 view .LVU976
 3807 0016 13F0FD0F 		tst	r3, #253
 340:MidiController.cpp ****     
 3808              		.loc 1 340 35 view .LVU977
 3809 001a 8DF80420 		strb	r2, [sp, #4]
 343:MidiController.cpp ****         if (usbConnected_) {
 3810              		.loc 1 343 5 is_stmt 1 view .LVU978
 3811 001e 02D1     		bne	.L190
 344:MidiController.cpp ****             SendViaUSB(midiBytes, 1);
 3812              		.loc 1 344 9 view .LVU979
 3813 0020 94F8AF22 		ldrb	r2, [r4, #687]	@ zero_extendqisi2
 3814 0024 DAB9     		cbnz	r2, .L202
 3815              	.L190:
 350:MidiController.cpp ****         if (uartConnected_) {
 3816              		.loc 1 350 5 view .LVU980
 3817 0026 013B     		subs	r3, r3, #1
 3818 0028 012B     		cmp	r3, #1
 3819 002a 0DD9     		bls	.L203
 3820              	.LVL227:
 3821              	.L191:
 356:MidiController.cpp ****     UpdateRunningStatus(status);
 3822              		.loc 1 356 5 view .LVU981
 356:MidiController.cpp ****     UpdateRunningStatus(status);
ARM GAS  C:\Users\Marco\AppData\Local\Temp\ccVZoccs.s 			page 104


 3823              		.loc 1 356 18 is_stmt 0 view .LVU982
 3824 002c D4F8B835 		ldr	r3, [r4, #1464]
 3825              	.LBB1055:
 3826              	.LBB1056:
 3827              		.loc 1 496 20 view .LVU983
 3828 0030 F822     		movs	r2, #248
 3829              	.LBE1056:
 3830              	.LBE1055:
 356:MidiController.cpp ****     UpdateRunningStatus(status);
 3831              		.loc 1 356 18 view .LVU984
 3832 0032 0133     		adds	r3, r3, #1
 3833              	.LBB1059:
 3834              	.LBB1057:
 3835              		.loc 1 496 20 view .LVU985
 3836 0034 84F8C025 		strb	r2, [r4, #1472]
 3837              	.LBE1057:
 3838              	.LBE1059:
 356:MidiController.cpp ****     UpdateRunningStatus(status);
 3839              		.loc 1 356 18 view .LVU986
 3840 0038 C4F8B835 		str	r3, [r4, #1464]
 357:MidiController.cpp ****     lastActivityTime_ = daisy::System::GetNow();
 3841              		.loc 1 357 5 is_stmt 1 view .LVU987
 3842              	.LVL228:
 3843              	.LBB1060:
 3844              	.LBI1055:
 495:MidiController.cpp ****     runningStatus_ = status;
 3845              		.loc 1 495 6 view .LVU988
 3846              	.LBB1058:
 3847              		.loc 1 496 5 view .LVU989
 3848              		.loc 1 496 5 is_stmt 0 view .LVU990
 3849              	.LBE1058:
 3850              	.LBE1060:
 358:MidiController.cpp **** }
 3851              		.loc 1 358 5 is_stmt 1 view .LVU991
 358:MidiController.cpp **** }
 3852              		.loc 1 358 46 is_stmt 0 view .LVU992
 3853 003c FFF7FEFF 		bl	_ZN5daisy6System6GetNowEv
 3854              	.LVL229:
 358:MidiController.cpp **** }
 3855              		.loc 1 358 23 view .LVU993
 3856 0040 C4F8BC05 		str	r0, [r4, #1468]
 3857              	.LVL230:
 3858              	.L188:
 358:MidiController.cpp **** }
 3859              		.loc 1 358 23 view .LVU994
 3860              	.LBE1054:
 3861              	.LBE1053:
 3862              	.LBE1073:
 3863              	.LBE1076:
 261:MidiController.cpp **** 
 3864              		.loc 1 261 1 view .LVU995
 3865 0044 03B0     		add	sp, sp, #12
 3866              		.cfi_remember_state
 3867              		.cfi_def_cfa_offset 12
 3868              		@ sp needed
 3869 0046 30BD     		pop	{r4, r5, pc}
 3870              	.LVL231:
ARM GAS  C:\Users\Marco\AppData\Local\Temp\ccVZoccs.s 			page 105


 3871              	.L203:
 3872              		.cfi_restore_state
 3873              	.LBB1077:
 3874              	.LBB1074:
 3875              	.LBB1071:
 3876              	.LBB1070:
 351:MidiController.cpp ****             SendViaUART(midiBytes, 1);
 3877              		.loc 1 351 9 is_stmt 1 view .LVU996
 3878 0048 94F8B032 		ldrb	r3, [r4, #688]	@ zero_extendqisi2
 3879 004c 002B     		cmp	r3, #0
 3880 004e EDD0     		beq	.L191
 352:MidiController.cpp ****         }
 3881              		.loc 1 352 13 view .LVU997
 3882              	.LVL232:
 3883              	.LBB1061:
 3884              	.LBI1061:
 419:MidiController.cpp ****     uartMidi_.SendMessage(data, length);
 3885              		.loc 1 419 6 view .LVU998
 3886              	.LBB1062:
 420:MidiController.cpp **** }
 3887              		.loc 1 420 5 view .LVU999
 3888              	.LBB1063:
 3889              	.LBI1063:
 208:../DaisyExamples/libDaisy/src/hid/midi.h ****     {
 3890              		.loc 2 208 10 view .LVU1000
 3891              	.LBB1064:
 3892              	.LBI1064:
 106:../DaisyExamples/libDaisy/src/hid/midi.h **** 
 3893              		.loc 2 106 17 view .LVU1001
 3894              	.LBB1065:
 106:../DaisyExamples/libDaisy/src/hid/midi.h **** 
 3895              		.loc 2 106 50 view .LVU1002
 106:../DaisyExamples/libDaisy/src/hid/midi.h **** 
 3896              		.loc 2 106 62 is_stmt 0 view .LVU1003
 3897 0050 0122     		movs	r2, #1
 3898 0052 01A9     		add	r1, sp, #4
 3899              	.LVL233:
 106:../DaisyExamples/libDaisy/src/hid/midi.h **** 
 3900              		.loc 2 106 62 view .LVU1004
 3901 0054 05F11800 		add	r0, r5, #24
 3902 0058 FFF7FEFF 		bl	_ZN5daisy11UartHandler6PollTxEPhj
 3903              	.LVL234:
 106:../DaisyExamples/libDaisy/src/hid/midi.h **** 
 3904              		.loc 2 106 62 view .LVU1005
 3905              	.LBE1065:
 3906              	.LBE1064:
 3907              	.LBE1063:
 421:MidiController.cpp **** 
 3908              		.loc 1 421 1 view .LVU1006
 3909 005c E6E7     		b	.L191
 3910              	.LVL235:
 3911              	.L202:
 421:MidiController.cpp **** 
 3912              		.loc 1 421 1 view .LVU1007
 3913              	.LBE1062:
 3914              	.LBE1061:
 345:MidiController.cpp ****         }
ARM GAS  C:\Users\Marco\AppData\Local\Temp\ccVZoccs.s 			page 106


 3915              		.loc 1 345 13 is_stmt 1 view .LVU1008
 3916              	.LBB1066:
 3917              	.LBI1066:
 414:MidiController.cpp ****     usbMidi_.SendMessage(data, length);
 3918              		.loc 1 414 6 view .LVU1009
 3919              	.LBB1067:
 415:MidiController.cpp ****     // Note: SendMessage returns void, no error checking available
 3920              		.loc 1 415 5 view .LVU1010
 3921              	.LBB1068:
 3922              	.LBI1068:
 208:../DaisyExamples/libDaisy/src/hid/midi.h ****     {
 3923              		.loc 2 208 10 view .LVU1011
 3924              	.LBB1069:
 3925              		.loc 2 210 22 is_stmt 0 view .LVU1012
 3926 005e 49F26C10 		movw	r0, #37228
 3927              	.LVL236:
 3928              		.loc 2 210 22 view .LVU1013
 3929 0062 0122     		movs	r2, #1
 3930 0064 01A9     		add	r1, sp, #4
 3931              	.LVL237:
 3932              		.loc 2 210 22 view .LVU1014
 3933 0066 2844     		add	r0, r0, r5
 3934 0068 FFF7FEFF 		bl	_ZN5daisy16MidiUsbTransport2TxEPhj
 3935              	.LVL238:
 3936              		.loc 2 210 22 view .LVU1015
 3937              	.LBE1069:
 3938              	.LBE1068:
 3939              	.LBE1067:
 3940              	.LBE1066:
 350:MidiController.cpp ****         if (uartConnected_) {
 3941              		.loc 1 350 9 view .LVU1016
 3942 006c 94F8AD32 		ldrb	r3, [r4, #685]	@ zero_extendqisi2
 3943              	.LVL239:
 350:MidiController.cpp ****         if (uartConnected_) {
 3944              		.loc 1 350 5 is_stmt 1 view .LVU1017
 3945 0070 013B     		subs	r3, r3, #1
 3946 0072 012B     		cmp	r3, #1
 3947 0074 DAD8     		bhi	.L191
 3948 0076 E7E7     		b	.L203
 3949              	.LBE1070:
 3950              	.LBE1071:
 3951              	.LBE1074:
 3952              	.LBE1077:
 3953              		.cfi_endproc
 3954              	.LFE2592:
 3956              		.section	.text._ZN14MidiController9SendStartEv,"ax",%progbits
 3957              		.align	1
 3958              		.p2align 2,,3
 3959              		.global	_ZN14MidiController9SendStartEv
 3960              		.syntax unified
 3961              		.thumb
 3962              		.thumb_func
 3963              		.fpu fpv5-d16
 3965              	_ZN14MidiController9SendStartEv:
 3966              	.LVL240:
 3967              	.LFB2593:
 263:MidiController.cpp ****     SendMidiMessage(0xFA); // MIDI Start
ARM GAS  C:\Users\Marco\AppData\Local\Temp\ccVZoccs.s 			page 107


 3968              		.loc 1 263 34 view -0
 3969              		.cfi_startproc
 3970              		@ args = 0, pretend = 0, frame = 8
 3971              		@ frame_needed = 0, uses_anonymous_args = 0
 264:MidiController.cpp ****     clockRunning_ = true;
 3972              		.loc 1 264 5 view .LVU1019
 3973              	.LBB1093:
 3974              	.LBI1093:
 337:MidiController.cpp ****     if (!enabled_) return;
 3975              		.loc 1 337 6 view .LVU1020
 3976              	.LBB1094:
 338:MidiController.cpp ****     
 3977              		.loc 1 338 5 view .LVU1021
 3978              	.LBE1094:
 3979              	.LBE1093:
 263:MidiController.cpp ****     SendMidiMessage(0xFA); // MIDI Start
 3980              		.loc 1 263 34 is_stmt 0 view .LVU1022
 3981 0000 30B5     		push	{r4, r5, lr}
 3982              		.cfi_def_cfa_offset 12
 3983              		.cfi_offset 4, -12
 3984              		.cfi_offset 5, -8
 3985              		.cfi_offset 14, -4
 3986              	.LBB1117:
 3987              	.LBB1114:
 338:MidiController.cpp ****     
 3988              		.loc 1 338 10 view .LVU1023
 3989 0002 00F59034 		add	r4, r0, #73728
 3990              	.LBE1114:
 3991              	.LBE1117:
 263:MidiController.cpp ****     SendMidiMessage(0xFA); // MIDI Start
 3992              		.loc 1 263 34 view .LVU1024
 3993 0006 83B0     		sub	sp, sp, #12
 3994              		.cfi_def_cfa_offset 24
 3995              	.LBB1118:
 3996              	.LBB1115:
 338:MidiController.cpp ****     
 3997              		.loc 1 338 5 view .LVU1025
 3998 0008 94F8AE32 		ldrb	r3, [r4, #686]	@ zero_extendqisi2
 3999 000c D3B1     		cbz	r3, .L205
 4000              	.LVL241:
 4001              	.LBB1095:
 4002              	.LBI1095:
 337:MidiController.cpp ****     if (!enabled_) return;
 4003              		.loc 1 337 6 is_stmt 1 view .LVU1026
 4004              	.LBB1096:
 340:MidiController.cpp ****     
 4005              		.loc 1 340 5 view .LVU1027
 343:MidiController.cpp ****         if (usbConnected_) {
 4006              		.loc 1 343 9 is_stmt 0 view .LVU1028
 4007 000e 94F8AD32 		ldrb	r3, [r4, #685]	@ zero_extendqisi2
 340:MidiController.cpp ****     
 4008              		.loc 1 340 35 view .LVU1029
 4009 0012 FA22     		movs	r2, #250
 4010 0014 0546     		mov	r5, r0
 343:MidiController.cpp ****         if (usbConnected_) {
 4011              		.loc 1 343 5 view .LVU1030
 4012 0016 13F0FD0F 		tst	r3, #253
ARM GAS  C:\Users\Marco\AppData\Local\Temp\ccVZoccs.s 			page 108


 340:MidiController.cpp ****     
 4013              		.loc 1 340 35 view .LVU1031
 4014 001a 8DF80420 		strb	r2, [sp, #4]
 343:MidiController.cpp ****         if (usbConnected_) {
 4015              		.loc 1 343 5 is_stmt 1 view .LVU1032
 4016 001e 02D1     		bne	.L206
 344:MidiController.cpp ****             SendViaUSB(midiBytes, 1);
 4017              		.loc 1 344 9 view .LVU1033
 4018 0020 94F8AF22 		ldrb	r2, [r4, #687]	@ zero_extendqisi2
 4019 0024 F2B9     		cbnz	r2, .L218
 4020              	.L206:
 350:MidiController.cpp ****         if (uartConnected_) {
 4021              		.loc 1 350 5 view .LVU1034
 4022 0026 013B     		subs	r3, r3, #1
 4023 0028 012B     		cmp	r3, #1
 4024 002a 10D9     		bls	.L219
 4025              	.LVL242:
 4026              	.L207:
 356:MidiController.cpp ****     UpdateRunningStatus(status);
 4027              		.loc 1 356 5 view .LVU1035
 356:MidiController.cpp ****     UpdateRunningStatus(status);
 4028              		.loc 1 356 18 is_stmt 0 view .LVU1036
 4029 002c D4F8B835 		ldr	r3, [r4, #1464]
 4030              	.LBB1097:
 4031              	.LBB1098:
 4032              		.loc 1 496 20 view .LVU1037
 4033 0030 FA22     		movs	r2, #250
 4034              	.LBE1098:
 4035              	.LBE1097:
 356:MidiController.cpp ****     UpdateRunningStatus(status);
 4036              		.loc 1 356 18 view .LVU1038
 4037 0032 0133     		adds	r3, r3, #1
 4038              	.LBB1101:
 4039              	.LBB1099:
 4040              		.loc 1 496 20 view .LVU1039
 4041 0034 84F8C025 		strb	r2, [r4, #1472]
 4042              	.LBE1099:
 4043              	.LBE1101:
 356:MidiController.cpp ****     UpdateRunningStatus(status);
 4044              		.loc 1 356 18 view .LVU1040
 4045 0038 C4F8B835 		str	r3, [r4, #1464]
 357:MidiController.cpp ****     lastActivityTime_ = daisy::System::GetNow();
 4046              		.loc 1 357 5 is_stmt 1 view .LVU1041
 4047              	.LVL243:
 4048              	.LBB1102:
 4049              	.LBI1097:
 495:MidiController.cpp ****     runningStatus_ = status;
 4050              		.loc 1 495 6 view .LVU1042
 4051              	.LBB1100:
 4052              		.loc 1 496 5 view .LVU1043
 4053              		.loc 1 496 5 is_stmt 0 view .LVU1044
 4054              	.LBE1100:
 4055              	.LBE1102:
 358:MidiController.cpp **** }
 4056              		.loc 1 358 5 is_stmt 1 view .LVU1045
 358:MidiController.cpp **** }
 4057              		.loc 1 358 46 is_stmt 0 view .LVU1046
ARM GAS  C:\Users\Marco\AppData\Local\Temp\ccVZoccs.s 			page 109


 4058 003c FFF7FEFF 		bl	_ZN5daisy6System6GetNowEv
 4059              	.LVL244:
 358:MidiController.cpp **** }
 4060              		.loc 1 358 23 view .LVU1047
 4061 0040 C4F8BC05 		str	r0, [r4, #1468]
 4062              	.LVL245:
 4063              	.L205:
 358:MidiController.cpp **** }
 4064              		.loc 1 358 23 view .LVU1048
 4065              	.LBE1096:
 4066              	.LBE1095:
 4067              	.LBE1115:
 4068              	.LBE1118:
 265:MidiController.cpp **** }
 4069              		.loc 1 265 5 is_stmt 1 view .LVU1049
 265:MidiController.cpp **** }
 4070              		.loc 1 265 19 is_stmt 0 view .LVU1050
 4071 0044 0123     		movs	r3, #1
 4072 0046 84F84A36 		strb	r3, [r4, #1610]
 266:MidiController.cpp **** 
 4073              		.loc 1 266 1 view .LVU1051
 4074 004a 03B0     		add	sp, sp, #12
 4075              		.cfi_remember_state
 4076              		.cfi_def_cfa_offset 12
 4077              		@ sp needed
 4078 004c 30BD     		pop	{r4, r5, pc}
 4079              	.LVL246:
 4080              	.L219:
 4081              		.cfi_restore_state
 4082              	.LBB1119:
 4083              	.LBB1116:
 4084              	.LBB1113:
 4085              	.LBB1112:
 351:MidiController.cpp ****             SendViaUART(midiBytes, 1);
 4086              		.loc 1 351 9 is_stmt 1 view .LVU1052
 4087 004e 94F8B032 		ldrb	r3, [r4, #688]	@ zero_extendqisi2
 4088 0052 002B     		cmp	r3, #0
 4089 0054 EAD0     		beq	.L207
 352:MidiController.cpp ****         }
 4090              		.loc 1 352 13 view .LVU1053
 4091              	.LVL247:
 4092              	.LBB1103:
 4093              	.LBI1103:
 419:MidiController.cpp ****     uartMidi_.SendMessage(data, length);
 4094              		.loc 1 419 6 view .LVU1054
 4095              	.LBB1104:
 420:MidiController.cpp **** }
 4096              		.loc 1 420 5 view .LVU1055
 4097              	.LBB1105:
 4098              	.LBI1105:
 208:../DaisyExamples/libDaisy/src/hid/midi.h ****     {
 4099              		.loc 2 208 10 view .LVU1056
 4100              	.LBB1106:
 4101              	.LBI1106:
 106:../DaisyExamples/libDaisy/src/hid/midi.h **** 
 4102              		.loc 2 106 17 view .LVU1057
 4103              	.LBB1107:
ARM GAS  C:\Users\Marco\AppData\Local\Temp\ccVZoccs.s 			page 110


 106:../DaisyExamples/libDaisy/src/hid/midi.h **** 
 4104              		.loc 2 106 50 view .LVU1058
 106:../DaisyExamples/libDaisy/src/hid/midi.h **** 
 4105              		.loc 2 106 62 is_stmt 0 view .LVU1059
 4106 0056 0122     		movs	r2, #1
 4107 0058 01A9     		add	r1, sp, #4
 4108              	.LVL248:
 106:../DaisyExamples/libDaisy/src/hid/midi.h **** 
 4109              		.loc 2 106 62 view .LVU1060
 4110 005a 05F11800 		add	r0, r5, #24
 4111 005e FFF7FEFF 		bl	_ZN5daisy11UartHandler6PollTxEPhj
 4112              	.LVL249:
 106:../DaisyExamples/libDaisy/src/hid/midi.h **** 
 4113              		.loc 2 106 62 view .LVU1061
 4114              	.LBE1107:
 4115              	.LBE1106:
 4116              	.LBE1105:
 421:MidiController.cpp **** 
 4117              		.loc 1 421 1 view .LVU1062
 4118 0062 E3E7     		b	.L207
 4119              	.LVL250:
 4120              	.L218:
 421:MidiController.cpp **** 
 4121              		.loc 1 421 1 view .LVU1063
 4122              	.LBE1104:
 4123              	.LBE1103:
 345:MidiController.cpp ****         }
 4124              		.loc 1 345 13 is_stmt 1 view .LVU1064
 4125              	.LBB1108:
 4126              	.LBI1108:
 414:MidiController.cpp ****     usbMidi_.SendMessage(data, length);
 4127              		.loc 1 414 6 view .LVU1065
 4128              	.LBB1109:
 415:MidiController.cpp ****     // Note: SendMessage returns void, no error checking available
 4129              		.loc 1 415 5 view .LVU1066
 4130              	.LBB1110:
 4131              	.LBI1110:
 208:../DaisyExamples/libDaisy/src/hid/midi.h ****     {
 4132              		.loc 2 208 10 view .LVU1067
 4133              	.LBB1111:
 4134              		.loc 2 210 22 is_stmt 0 view .LVU1068
 4135 0064 49F26C10 		movw	r0, #37228
 4136              	.LVL251:
 4137              		.loc 2 210 22 view .LVU1069
 4138 0068 0122     		movs	r2, #1
 4139 006a 01A9     		add	r1, sp, #4
 4140              	.LVL252:
 4141              		.loc 2 210 22 view .LVU1070
 4142 006c 2844     		add	r0, r0, r5
 4143 006e FFF7FEFF 		bl	_ZN5daisy16MidiUsbTransport2TxEPhj
 4144              	.LVL253:
 4145              		.loc 2 210 22 view .LVU1071
 4146              	.LBE1111:
 4147              	.LBE1110:
 4148              	.LBE1109:
 4149              	.LBE1108:
 350:MidiController.cpp ****         if (uartConnected_) {
ARM GAS  C:\Users\Marco\AppData\Local\Temp\ccVZoccs.s 			page 111


 4150              		.loc 1 350 9 view .LVU1072
 4151 0072 94F8AD32 		ldrb	r3, [r4, #685]	@ zero_extendqisi2
 4152              	.LVL254:
 350:MidiController.cpp ****         if (uartConnected_) {
 4153              		.loc 1 350 5 is_stmt 1 view .LVU1073
 4154 0076 013B     		subs	r3, r3, #1
 4155 0078 012B     		cmp	r3, #1
 4156 007a D7D8     		bhi	.L207
 4157 007c E7E7     		b	.L219
 4158              	.LBE1112:
 4159              	.LBE1113:
 4160              	.LBE1116:
 4161              	.LBE1119:
 4162              		.cfi_endproc
 4163              	.LFE2593:
 4165 007e 00BF     		.section	.text._ZN14MidiController8SendStopEv,"ax",%progbits
 4166              		.align	1
 4167              		.p2align 2,,3
 4168              		.global	_ZN14MidiController8SendStopEv
 4169              		.syntax unified
 4170              		.thumb
 4171              		.thumb_func
 4172              		.fpu fpv5-d16
 4174              	_ZN14MidiController8SendStopEv:
 4175              	.LVL255:
 4176              	.LFB2594:
 268:MidiController.cpp ****     SendMidiMessage(0xFC); // MIDI Stop
 4177              		.loc 1 268 33 view -0
 4178              		.cfi_startproc
 4179              		@ args = 0, pretend = 0, frame = 8
 4180              		@ frame_needed = 0, uses_anonymous_args = 0
 269:MidiController.cpp ****     clockRunning_ = false;
 4181              		.loc 1 269 5 view .LVU1075
 4182              	.LBB1135:
 4183              	.LBI1135:
 337:MidiController.cpp ****     if (!enabled_) return;
 4184              		.loc 1 337 6 view .LVU1076
 4185              	.LBB1136:
 338:MidiController.cpp ****     
 4186              		.loc 1 338 5 view .LVU1077
 4187              	.LBE1136:
 4188              	.LBE1135:
 268:MidiController.cpp ****     SendMidiMessage(0xFC); // MIDI Stop
 4189              		.loc 1 268 33 is_stmt 0 view .LVU1078
 4190 0000 30B5     		push	{r4, r5, lr}
 4191              		.cfi_def_cfa_offset 12
 4192              		.cfi_offset 4, -12
 4193              		.cfi_offset 5, -8
 4194              		.cfi_offset 14, -4
 4195              	.LBB1159:
 4196              	.LBB1156:
 338:MidiController.cpp ****     
 4197              		.loc 1 338 10 view .LVU1079
 4198 0002 00F59034 		add	r4, r0, #73728
 4199              	.LBE1156:
 4200              	.LBE1159:
 268:MidiController.cpp ****     SendMidiMessage(0xFC); // MIDI Stop
ARM GAS  C:\Users\Marco\AppData\Local\Temp\ccVZoccs.s 			page 112


 4201              		.loc 1 268 33 view .LVU1080
 4202 0006 83B0     		sub	sp, sp, #12
 4203              		.cfi_def_cfa_offset 24
 4204              	.LBB1160:
 4205              	.LBB1157:
 338:MidiController.cpp ****     
 4206              		.loc 1 338 5 view .LVU1081
 4207 0008 94F8AE32 		ldrb	r3, [r4, #686]	@ zero_extendqisi2
 4208 000c D3B1     		cbz	r3, .L221
 4209              	.LVL256:
 4210              	.LBB1137:
 4211              	.LBI1137:
 337:MidiController.cpp ****     if (!enabled_) return;
 4212              		.loc 1 337 6 is_stmt 1 view .LVU1082
 4213              	.LBB1138:
 340:MidiController.cpp ****     
 4214              		.loc 1 340 5 view .LVU1083
 343:MidiController.cpp ****         if (usbConnected_) {
 4215              		.loc 1 343 9 is_stmt 0 view .LVU1084
 4216 000e 94F8AD32 		ldrb	r3, [r4, #685]	@ zero_extendqisi2
 340:MidiController.cpp ****     
 4217              		.loc 1 340 35 view .LVU1085
 4218 0012 FC22     		movs	r2, #252
 4219 0014 0546     		mov	r5, r0
 343:MidiController.cpp ****         if (usbConnected_) {
 4220              		.loc 1 343 5 view .LVU1086
 4221 0016 13F0FD0F 		tst	r3, #253
 340:MidiController.cpp ****     
 4222              		.loc 1 340 35 view .LVU1087
 4223 001a 8DF80420 		strb	r2, [sp, #4]
 343:MidiController.cpp ****         if (usbConnected_) {
 4224              		.loc 1 343 5 is_stmt 1 view .LVU1088
 4225 001e 02D1     		bne	.L222
 344:MidiController.cpp ****             SendViaUSB(midiBytes, 1);
 4226              		.loc 1 344 9 view .LVU1089
 4227 0020 94F8AF22 		ldrb	r2, [r4, #687]	@ zero_extendqisi2
 4228 0024 F2B9     		cbnz	r2, .L234
 4229              	.L222:
 350:MidiController.cpp ****         if (uartConnected_) {
 4230              		.loc 1 350 5 view .LVU1090
 4231 0026 013B     		subs	r3, r3, #1
 4232 0028 012B     		cmp	r3, #1
 4233 002a 10D9     		bls	.L235
 4234              	.LVL257:
 4235              	.L223:
 356:MidiController.cpp ****     UpdateRunningStatus(status);
 4236              		.loc 1 356 5 view .LVU1091
 356:MidiController.cpp ****     UpdateRunningStatus(status);
 4237              		.loc 1 356 18 is_stmt 0 view .LVU1092
 4238 002c D4F8B835 		ldr	r3, [r4, #1464]
 4239              	.LBB1139:
 4240              	.LBB1140:
 4241              		.loc 1 496 20 view .LVU1093
 4242 0030 FC22     		movs	r2, #252
 4243              	.LBE1140:
 4244              	.LBE1139:
 356:MidiController.cpp ****     UpdateRunningStatus(status);
ARM GAS  C:\Users\Marco\AppData\Local\Temp\ccVZoccs.s 			page 113


 4245              		.loc 1 356 18 view .LVU1094
 4246 0032 0133     		adds	r3, r3, #1
 4247              	.LBB1143:
 4248              	.LBB1141:
 4249              		.loc 1 496 20 view .LVU1095
 4250 0034 84F8C025 		strb	r2, [r4, #1472]
 4251              	.LBE1141:
 4252              	.LBE1143:
 356:MidiController.cpp ****     UpdateRunningStatus(status);
 4253              		.loc 1 356 18 view .LVU1096
 4254 0038 C4F8B835 		str	r3, [r4, #1464]
 357:MidiController.cpp ****     lastActivityTime_ = daisy::System::GetNow();
 4255              		.loc 1 357 5 is_stmt 1 view .LVU1097
 4256              	.LVL258:
 4257              	.LBB1144:
 4258              	.LBI1139:
 495:MidiController.cpp ****     runningStatus_ = status;
 4259              		.loc 1 495 6 view .LVU1098
 4260              	.LBB1142:
 4261              		.loc 1 496 5 view .LVU1099
 4262              		.loc 1 496 5 is_stmt 0 view .LVU1100
 4263              	.LBE1142:
 4264              	.LBE1144:
 358:MidiController.cpp **** }
 4265              		.loc 1 358 5 is_stmt 1 view .LVU1101
 358:MidiController.cpp **** }
 4266              		.loc 1 358 46 is_stmt 0 view .LVU1102
 4267 003c FFF7FEFF 		bl	_ZN5daisy6System6GetNowEv
 4268              	.LVL259:
 358:MidiController.cpp **** }
 4269              		.loc 1 358 23 view .LVU1103
 4270 0040 C4F8BC05 		str	r0, [r4, #1468]
 4271              	.LVL260:
 4272              	.L221:
 358:MidiController.cpp **** }
 4273              		.loc 1 358 23 view .LVU1104
 4274              	.LBE1138:
 4275              	.LBE1137:
 4276              	.LBE1157:
 4277              	.LBE1160:
 270:MidiController.cpp **** }
 4278              		.loc 1 270 5 is_stmt 1 view .LVU1105
 270:MidiController.cpp **** }
 4279              		.loc 1 270 19 is_stmt 0 view .LVU1106
 4280 0044 0023     		movs	r3, #0
 4281 0046 84F84A36 		strb	r3, [r4, #1610]
 271:MidiController.cpp **** 
 4282              		.loc 1 271 1 view .LVU1107
 4283 004a 03B0     		add	sp, sp, #12
 4284              		.cfi_remember_state
 4285              		.cfi_def_cfa_offset 12
 4286              		@ sp needed
 4287 004c 30BD     		pop	{r4, r5, pc}
 4288              	.LVL261:
 4289              	.L235:
 4290              		.cfi_restore_state
 4291              	.LBB1161:
ARM GAS  C:\Users\Marco\AppData\Local\Temp\ccVZoccs.s 			page 114


 4292              	.LBB1158:
 4293              	.LBB1155:
 4294              	.LBB1154:
 351:MidiController.cpp ****             SendViaUART(midiBytes, 1);
 4295              		.loc 1 351 9 is_stmt 1 view .LVU1108
 4296 004e 94F8B032 		ldrb	r3, [r4, #688]	@ zero_extendqisi2
 4297 0052 002B     		cmp	r3, #0
 4298 0054 EAD0     		beq	.L223
 352:MidiController.cpp ****         }
 4299              		.loc 1 352 13 view .LVU1109
 4300              	.LVL262:
 4301              	.LBB1145:
 4302              	.LBI1145:
 419:MidiController.cpp ****     uartMidi_.SendMessage(data, length);
 4303              		.loc 1 419 6 view .LVU1110
 4304              	.LBB1146:
 420:MidiController.cpp **** }
 4305              		.loc 1 420 5 view .LVU1111
 4306              	.LBB1147:
 4307              	.LBI1147:
 208:../DaisyExamples/libDaisy/src/hid/midi.h ****     {
 4308              		.loc 2 208 10 view .LVU1112
 4309              	.LBB1148:
 4310              	.LBI1148:
 106:../DaisyExamples/libDaisy/src/hid/midi.h **** 
 4311              		.loc 2 106 17 view .LVU1113
 4312              	.LBB1149:
 106:../DaisyExamples/libDaisy/src/hid/midi.h **** 
 4313              		.loc 2 106 50 view .LVU1114
 106:../DaisyExamples/libDaisy/src/hid/midi.h **** 
 4314              		.loc 2 106 62 is_stmt 0 view .LVU1115
 4315 0056 0122     		movs	r2, #1
 4316 0058 01A9     		add	r1, sp, #4
 4317              	.LVL263:
 106:../DaisyExamples/libDaisy/src/hid/midi.h **** 
 4318              		.loc 2 106 62 view .LVU1116
 4319 005a 05F11800 		add	r0, r5, #24
 4320 005e FFF7FEFF 		bl	_ZN5daisy11UartHandler6PollTxEPhj
 4321              	.LVL264:
 106:../DaisyExamples/libDaisy/src/hid/midi.h **** 
 4322              		.loc 2 106 62 view .LVU1117
 4323              	.LBE1149:
 4324              	.LBE1148:
 4325              	.LBE1147:
 421:MidiController.cpp **** 
 4326              		.loc 1 421 1 view .LVU1118
 4327 0062 E3E7     		b	.L223
 4328              	.LVL265:
 4329              	.L234:
 421:MidiController.cpp **** 
 4330              		.loc 1 421 1 view .LVU1119
 4331              	.LBE1146:
 4332              	.LBE1145:
 345:MidiController.cpp ****         }
 4333              		.loc 1 345 13 is_stmt 1 view .LVU1120
 4334              	.LBB1150:
 4335              	.LBI1150:
ARM GAS  C:\Users\Marco\AppData\Local\Temp\ccVZoccs.s 			page 115


 414:MidiController.cpp ****     usbMidi_.SendMessage(data, length);
 4336              		.loc 1 414 6 view .LVU1121
 4337              	.LBB1151:
 415:MidiController.cpp ****     // Note: SendMessage returns void, no error checking available
 4338              		.loc 1 415 5 view .LVU1122
 4339              	.LBB1152:
 4340              	.LBI1152:
 208:../DaisyExamples/libDaisy/src/hid/midi.h ****     {
 4341              		.loc 2 208 10 view .LVU1123
 4342              	.LBB1153:
 4343              		.loc 2 210 22 is_stmt 0 view .LVU1124
 4344 0064 49F26C10 		movw	r0, #37228
 4345              	.LVL266:
 4346              		.loc 2 210 22 view .LVU1125
 4347 0068 0122     		movs	r2, #1
 4348 006a 01A9     		add	r1, sp, #4
 4349              	.LVL267:
 4350              		.loc 2 210 22 view .LVU1126
 4351 006c 2844     		add	r0, r0, r5
 4352 006e FFF7FEFF 		bl	_ZN5daisy16MidiUsbTransport2TxEPhj
 4353              	.LVL268:
 4354              		.loc 2 210 22 view .LVU1127
 4355              	.LBE1153:
 4356              	.LBE1152:
 4357              	.LBE1151:
 4358              	.LBE1150:
 350:MidiController.cpp ****         if (uartConnected_) {
 4359              		.loc 1 350 9 view .LVU1128
 4360 0072 94F8AD32 		ldrb	r3, [r4, #685]	@ zero_extendqisi2
 4361              	.LVL269:
 350:MidiController.cpp ****         if (uartConnected_) {
 4362              		.loc 1 350 5 is_stmt 1 view .LVU1129
 4363 0076 013B     		subs	r3, r3, #1
 4364 0078 012B     		cmp	r3, #1
 4365 007a D7D8     		bhi	.L223
 4366 007c E7E7     		b	.L235
 4367              	.LBE1154:
 4368              	.LBE1155:
 4369              	.LBE1158:
 4370              	.LBE1161:
 4371              		.cfi_endproc
 4372              	.LFE2594:
 4374 007e 00BF     		.section	.text._ZN14MidiController12SendContinueEv,"ax",%progbits
 4375              		.align	1
 4376              		.p2align 2,,3
 4377              		.global	_ZN14MidiController12SendContinueEv
 4378              		.syntax unified
 4379              		.thumb
 4380              		.thumb_func
 4381              		.fpu fpv5-d16
 4383              	_ZN14MidiController12SendContinueEv:
 4384              	.LVL270:
 4385              	.LFB2595:
 273:MidiController.cpp ****     SendMidiMessage(0xFB); // MIDI Continue
 4386              		.loc 1 273 37 view -0
 4387              		.cfi_startproc
 4388              		@ args = 0, pretend = 0, frame = 8
ARM GAS  C:\Users\Marco\AppData\Local\Temp\ccVZoccs.s 			page 116


 4389              		@ frame_needed = 0, uses_anonymous_args = 0
 274:MidiController.cpp ****     clockRunning_ = true;
 4390              		.loc 1 274 5 view .LVU1131
 4391              	.LBB1177:
 4392              	.LBI1177:
 337:MidiController.cpp ****     if (!enabled_) return;
 4393              		.loc 1 337 6 view .LVU1132
 4394              	.LBB1178:
 338:MidiController.cpp ****     
 4395              		.loc 1 338 5 view .LVU1133
 4396              	.LBE1178:
 4397              	.LBE1177:
 273:MidiController.cpp ****     SendMidiMessage(0xFB); // MIDI Continue
 4398              		.loc 1 273 37 is_stmt 0 view .LVU1134
 4399 0000 30B5     		push	{r4, r5, lr}
 4400              		.cfi_def_cfa_offset 12
 4401              		.cfi_offset 4, -12
 4402              		.cfi_offset 5, -8
 4403              		.cfi_offset 14, -4
 4404              	.LBB1201:
 4405              	.LBB1198:
 338:MidiController.cpp ****     
 4406              		.loc 1 338 10 view .LVU1135
 4407 0002 00F59034 		add	r4, r0, #73728
 4408              	.LBE1198:
 4409              	.LBE1201:
 273:MidiController.cpp ****     SendMidiMessage(0xFB); // MIDI Continue
 4410              		.loc 1 273 37 view .LVU1136
 4411 0006 83B0     		sub	sp, sp, #12
 4412              		.cfi_def_cfa_offset 24
 4413              	.LBB1202:
 4414              	.LBB1199:
 338:MidiController.cpp ****     
 4415              		.loc 1 338 5 view .LVU1137
 4416 0008 94F8AE32 		ldrb	r3, [r4, #686]	@ zero_extendqisi2
 4417 000c D3B1     		cbz	r3, .L237
 4418              	.LVL271:
 4419              	.LBB1179:
 4420              	.LBI1179:
 337:MidiController.cpp ****     if (!enabled_) return;
 4421              		.loc 1 337 6 is_stmt 1 view .LVU1138
 4422              	.LBB1180:
 340:MidiController.cpp ****     
 4423              		.loc 1 340 5 view .LVU1139
 343:MidiController.cpp ****         if (usbConnected_) {
 4424              		.loc 1 343 9 is_stmt 0 view .LVU1140
 4425 000e 94F8AD32 		ldrb	r3, [r4, #685]	@ zero_extendqisi2
 340:MidiController.cpp ****     
 4426              		.loc 1 340 35 view .LVU1141
 4427 0012 FB22     		movs	r2, #251
 4428 0014 0546     		mov	r5, r0
 343:MidiController.cpp ****         if (usbConnected_) {
 4429              		.loc 1 343 5 view .LVU1142
 4430 0016 13F0FD0F 		tst	r3, #253
 340:MidiController.cpp ****     
 4431              		.loc 1 340 35 view .LVU1143
 4432 001a 8DF80420 		strb	r2, [sp, #4]
ARM GAS  C:\Users\Marco\AppData\Local\Temp\ccVZoccs.s 			page 117


 343:MidiController.cpp ****         if (usbConnected_) {
 4433              		.loc 1 343 5 is_stmt 1 view .LVU1144
 4434 001e 02D1     		bne	.L238
 344:MidiController.cpp ****             SendViaUSB(midiBytes, 1);
 4435              		.loc 1 344 9 view .LVU1145
 4436 0020 94F8AF22 		ldrb	r2, [r4, #687]	@ zero_extendqisi2
 4437 0024 F2B9     		cbnz	r2, .L250
 4438              	.L238:
 350:MidiController.cpp ****         if (uartConnected_) {
 4439              		.loc 1 350 5 view .LVU1146
 4440 0026 013B     		subs	r3, r3, #1
 4441 0028 012B     		cmp	r3, #1
 4442 002a 10D9     		bls	.L251
 4443              	.LVL272:
 4444              	.L239:
 356:MidiController.cpp ****     UpdateRunningStatus(status);
 4445              		.loc 1 356 5 view .LVU1147
 356:MidiController.cpp ****     UpdateRunningStatus(status);
 4446              		.loc 1 356 18 is_stmt 0 view .LVU1148
 4447 002c D4F8B835 		ldr	r3, [r4, #1464]
 4448              	.LBB1181:
 4449              	.LBB1182:
 4450              		.loc 1 496 20 view .LVU1149
 4451 0030 FB22     		movs	r2, #251
 4452              	.LBE1182:
 4453              	.LBE1181:
 356:MidiController.cpp ****     UpdateRunningStatus(status);
 4454              		.loc 1 356 18 view .LVU1150
 4455 0032 0133     		adds	r3, r3, #1
 4456              	.LBB1185:
 4457              	.LBB1183:
 4458              		.loc 1 496 20 view .LVU1151
 4459 0034 84F8C025 		strb	r2, [r4, #1472]
 4460              	.LBE1183:
 4461              	.LBE1185:
 356:MidiController.cpp ****     UpdateRunningStatus(status);
 4462              		.loc 1 356 18 view .LVU1152
 4463 0038 C4F8B835 		str	r3, [r4, #1464]
 357:MidiController.cpp ****     lastActivityTime_ = daisy::System::GetNow();
 4464              		.loc 1 357 5 is_stmt 1 view .LVU1153
 4465              	.LVL273:
 4466              	.LBB1186:
 4467              	.LBI1181:
 495:MidiController.cpp ****     runningStatus_ = status;
 4468              		.loc 1 495 6 view .LVU1154
 4469              	.LBB1184:
 4470              		.loc 1 496 5 view .LVU1155
 4471              		.loc 1 496 5 is_stmt 0 view .LVU1156
 4472              	.LBE1184:
 4473              	.LBE1186:
 358:MidiController.cpp **** }
 4474              		.loc 1 358 5 is_stmt 1 view .LVU1157
 358:MidiController.cpp **** }
 4475              		.loc 1 358 46 is_stmt 0 view .LVU1158
 4476 003c FFF7FEFF 		bl	_ZN5daisy6System6GetNowEv
 4477              	.LVL274:
 358:MidiController.cpp **** }
ARM GAS  C:\Users\Marco\AppData\Local\Temp\ccVZoccs.s 			page 118


 4478              		.loc 1 358 23 view .LVU1159
 4479 0040 C4F8BC05 		str	r0, [r4, #1468]
 4480              	.LVL275:
 4481              	.L237:
 358:MidiController.cpp **** }
 4482              		.loc 1 358 23 view .LVU1160
 4483              	.LBE1180:
 4484              	.LBE1179:
 4485              	.LBE1199:
 4486              	.LBE1202:
 275:MidiController.cpp **** }
 4487              		.loc 1 275 5 is_stmt 1 view .LVU1161
 275:MidiController.cpp **** }
 4488              		.loc 1 275 19 is_stmt 0 view .LVU1162
 4489 0044 0123     		movs	r3, #1
 4490 0046 84F84A36 		strb	r3, [r4, #1610]
 276:MidiController.cpp **** 
 4491              		.loc 1 276 1 view .LVU1163
 4492 004a 03B0     		add	sp, sp, #12
 4493              		.cfi_remember_state
 4494              		.cfi_def_cfa_offset 12
 4495              		@ sp needed
 4496 004c 30BD     		pop	{r4, r5, pc}
 4497              	.LVL276:
 4498              	.L251:
 4499              		.cfi_restore_state
 4500              	.LBB1203:
 4501              	.LBB1200:
 4502              	.LBB1197:
 4503              	.LBB1196:
 351:MidiController.cpp ****             SendViaUART(midiBytes, 1);
 4504              		.loc 1 351 9 is_stmt 1 view .LVU1164
 4505 004e 94F8B032 		ldrb	r3, [r4, #688]	@ zero_extendqisi2
 4506 0052 002B     		cmp	r3, #0
 4507 0054 EAD0     		beq	.L239
 352:MidiController.cpp ****         }
 4508              		.loc 1 352 13 view .LVU1165
 4509              	.LVL277:
 4510              	.LBB1187:
 4511              	.LBI1187:
 419:MidiController.cpp ****     uartMidi_.SendMessage(data, length);
 4512              		.loc 1 419 6 view .LVU1166
 4513              	.LBB1188:
 420:MidiController.cpp **** }
 4514              		.loc 1 420 5 view .LVU1167
 4515              	.LBB1189:
 4516              	.LBI1189:
 208:../DaisyExamples/libDaisy/src/hid/midi.h ****     {
 4517              		.loc 2 208 10 view .LVU1168
 4518              	.LBB1190:
 4519              	.LBI1190:
 106:../DaisyExamples/libDaisy/src/hid/midi.h **** 
 4520              		.loc 2 106 17 view .LVU1169
 4521              	.LBB1191:
 106:../DaisyExamples/libDaisy/src/hid/midi.h **** 
 4522              		.loc 2 106 50 view .LVU1170
 106:../DaisyExamples/libDaisy/src/hid/midi.h **** 
ARM GAS  C:\Users\Marco\AppData\Local\Temp\ccVZoccs.s 			page 119


 4523              		.loc 2 106 62 is_stmt 0 view .LVU1171
 4524 0056 0122     		movs	r2, #1
 4525 0058 01A9     		add	r1, sp, #4
 4526              	.LVL278:
 106:../DaisyExamples/libDaisy/src/hid/midi.h **** 
 4527              		.loc 2 106 62 view .LVU1172
 4528 005a 05F11800 		add	r0, r5, #24
 4529 005e FFF7FEFF 		bl	_ZN5daisy11UartHandler6PollTxEPhj
 4530              	.LVL279:
 106:../DaisyExamples/libDaisy/src/hid/midi.h **** 
 4531              		.loc 2 106 62 view .LVU1173
 4532              	.LBE1191:
 4533              	.LBE1190:
 4534              	.LBE1189:
 421:MidiController.cpp **** 
 4535              		.loc 1 421 1 view .LVU1174
 4536 0062 E3E7     		b	.L239
 4537              	.LVL280:
 4538              	.L250:
 421:MidiController.cpp **** 
 4539              		.loc 1 421 1 view .LVU1175
 4540              	.LBE1188:
 4541              	.LBE1187:
 345:MidiController.cpp ****         }
 4542              		.loc 1 345 13 is_stmt 1 view .LVU1176
 4543              	.LBB1192:
 4544              	.LBI1192:
 414:MidiController.cpp ****     usbMidi_.SendMessage(data, length);
 4545              		.loc 1 414 6 view .LVU1177
 4546              	.LBB1193:
 415:MidiController.cpp ****     // Note: SendMessage returns void, no error checking available
 4547              		.loc 1 415 5 view .LVU1178
 4548              	.LBB1194:
 4549              	.LBI1194:
 208:../DaisyExamples/libDaisy/src/hid/midi.h ****     {
 4550              		.loc 2 208 10 view .LVU1179
 4551              	.LBB1195:
 4552              		.loc 2 210 22 is_stmt 0 view .LVU1180
 4553 0064 49F26C10 		movw	r0, #37228
 4554              	.LVL281:
 4555              		.loc 2 210 22 view .LVU1181
 4556 0068 0122     		movs	r2, #1
 4557 006a 01A9     		add	r1, sp, #4
 4558              	.LVL282:
 4559              		.loc 2 210 22 view .LVU1182
 4560 006c 2844     		add	r0, r0, r5
 4561 006e FFF7FEFF 		bl	_ZN5daisy16MidiUsbTransport2TxEPhj
 4562              	.LVL283:
 4563              		.loc 2 210 22 view .LVU1183
 4564              	.LBE1195:
 4565              	.LBE1194:
 4566              	.LBE1193:
 4567              	.LBE1192:
 350:MidiController.cpp ****         if (uartConnected_) {
 4568              		.loc 1 350 9 view .LVU1184
 4569 0072 94F8AD32 		ldrb	r3, [r4, #685]	@ zero_extendqisi2
 4570              	.LVL284:
ARM GAS  C:\Users\Marco\AppData\Local\Temp\ccVZoccs.s 			page 120


 350:MidiController.cpp ****         if (uartConnected_) {
 4571              		.loc 1 350 5 is_stmt 1 view .LVU1185
 4572 0076 013B     		subs	r3, r3, #1
 4573 0078 012B     		cmp	r3, #1
 4574 007a D7D8     		bhi	.L239
 4575 007c E7E7     		b	.L251
 4576              	.LBE1196:
 4577              	.LBE1197:
 4578              	.LBE1200:
 4579              	.LBE1203:
 4580              		.cfi_endproc
 4581              	.LFE2595:
 4583 007e 00BF     		.section	.text._ZN14MidiController15SendSceneChangeEh,"ax",%progbits
 4584              		.align	1
 4585              		.p2align 2,,3
 4586              		.global	_ZN14MidiController15SendSceneChangeEh
 4587              		.syntax unified
 4588              		.thumb
 4589              		.thumb_func
 4590              		.fpu fpv5-d16
 4592              	_ZN14MidiController15SendSceneChangeEh:
 4593              	.LVL285:
 4594              	.LFB2596:
 278:MidiController.cpp ****     // Send as Program Change
 4595              		.loc 1 278 53 view -0
 4596              		.cfi_startproc
 4597              		@ args = 0, pretend = 0, frame = 0
 4598              		@ frame_needed = 0, uses_anonymous_args = 0
 280:MidiController.cpp **** }
 4599              		.loc 1 280 5 view .LVU1187
 4600              	.LBB1214:
 4601              	.LBI1214:
 102:MidiController.cpp ****     if (!enabled_ || program > 127) {
 4602              		.loc 1 102 6 view .LVU1188
 4603              	.LBB1215:
 103:MidiController.cpp ****         return;
 4604              		.loc 1 103 5 view .LVU1189
 103:MidiController.cpp ****         return;
 4605              		.loc 1 103 10 is_stmt 0 view .LVU1190
 4606 0000 00F59033 		add	r3, r0, #73728
 103:MidiController.cpp ****         return;
 4607              		.loc 1 103 5 view .LVU1191
 4608 0004 93F8AE22 		ldrb	r2, [r3, #686]	@ zero_extendqisi2
 4609 0008 6AB3     		cbz	r2, .L258
 103:MidiController.cpp ****         return;
 4610              		.loc 1 103 19 view .LVU1192
 4611 000a 0A06     		lsls	r2, r1, #24
 4612 000c 2BD4     		bmi	.L258
 4613              	.LVL286:
 4614              	.LBB1216:
 4615              	.LBI1216:
 102:MidiController.cpp ****     if (!enabled_ || program > 127) {
 4616              		.loc 1 102 6 is_stmt 1 view .LVU1193
 4617              	.LBB1217:
 107:MidiController.cpp ****     QueueMessage(status, program);
 4618              		.loc 1 107 5 view .LVU1194
 4619              	.LBB1218:
ARM GAS  C:\Users\Marco\AppData\Local\Temp\ccVZoccs.s 			page 121


 4620              	.LBI1218:
 455:MidiController.cpp ****     return (uint8_t)messageType | ((channel - 1) & 0x0F);
 4621              		.loc 1 455 9 view .LVU1195
 4622              	.LBB1219:
 456:MidiController.cpp **** }
 4623              		.loc 1 456 5 view .LVU1196
 456:MidiController.cpp **** }
 4624              		.loc 1 456 5 is_stmt 0 view .LVU1197
 4625              	.LBE1219:
 4626              	.LBE1218:
 108:MidiController.cpp **** }
 4627              		.loc 1 108 5 is_stmt 1 view .LVU1198
 4628              	.LBB1224:
 4629              	.LBI1224:
 377:MidiController.cpp ****     if (IsQueueFull()) {
 4630              		.loc 1 377 6 view .LVU1199
 4631              	.LBB1225:
 378:MidiController.cpp ****         return;
 4632              		.loc 1 378 5 view .LVU1200
 4633              	.LBB1226:
 4634              	.LBI1226:
 410:MidiController.cpp ****     return queueCount_ >= MESSAGE_QUEUE_SIZE;
 4635              		.loc 1 410 6 view .LVU1201
 4636              	.LBB1227:
 411:MidiController.cpp **** }
 4637              		.loc 1 411 5 view .LVU1202
 411:MidiController.cpp **** }
 4638              		.loc 1 411 12 is_stmt 0 view .LVU1203
 4639 000e 93F8B6C5 		ldrb	ip, [r3, #1462]	@ zero_extendqisi2
 4640              	.LVL287:
 411:MidiController.cpp **** }
 4641              		.loc 1 411 12 view .LVU1204
 4642              	.LBE1227:
 4643              	.LBE1226:
 378:MidiController.cpp ****         return;
 4644              		.loc 1 378 5 view .LVU1205
 4645 0012 BCF13F0F 		cmp	ip, #63
 4646 0016 26D8     		bhi	.L258
 382:MidiController.cpp ****     msg.status = status;
 4647              		.loc 1 382 5 is_stmt 1 view .LVU1206
 4648              	.LBE1225:
 4649              	.LBE1224:
 4650              	.LBE1217:
 4651              	.LBE1216:
 4652              	.LBE1215:
 4653              	.LBE1214:
 278:MidiController.cpp ****     // Send as Program Change
 4654              		.loc 1 278 53 is_stmt 0 view .LVU1207
 4655 0018 30B5     		push	{r4, r5, lr}
 4656              		.cfi_def_cfa_offset 12
 4657              		.cfi_offset 4, -12
 4658              		.cfi_offset 5, -8
 4659              		.cfi_offset 14, -4
 4660              	.LBB1245:
 4661              	.LBB1244:
 4662              	.LBB1243:
 4663              	.LBB1242:
ARM GAS  C:\Users\Marco\AppData\Local\Temp\ccVZoccs.s 			page 122


 4664              	.LBB1233:
 4665              	.LBB1228:
 390:MidiController.cpp **** }
 4666              		.loc 1 390 16 view .LVU1208
 4667 001a 0CF1010E 		add	lr, ip, #1
 4668              	.LBE1228:
 4669              	.LBE1233:
 4670              	.LBB1234:
 4671              	.LBB1220:
 456:MidiController.cpp **** }
 4672              		.loc 1 456 45 view .LVU1209
 4673 001e 93F8ACC2 		ldrb	ip, [r3, #684]	@ zero_extendqisi2
 4674              	.LBE1220:
 4675              	.LBE1234:
 4676              	.LBB1235:
 4677              	.LBB1229:
 382:MidiController.cpp ****     msg.status = status;
 4678              		.loc 1 382 38 view .LVU1210
 4679 0022 93F8B525 		ldrb	r2, [r3, #1461]	@ zero_extendqisi2
 4680              	.LVL288:
 383:MidiController.cpp ****     msg.data1 = data1;
 4681              		.loc 1 383 5 is_stmt 1 view .LVU1211
 4682              	.LBE1229:
 4683              	.LBE1235:
 4684              	.LBB1236:
 4685              	.LBB1221:
 456:MidiController.cpp **** }
 4686              		.loc 1 456 45 is_stmt 0 view .LVU1212
 4687 0026 0CF1FF3C 		add	ip, ip, #-1
 4688              	.LBE1221:
 4689              	.LBE1236:
 4690              	.LBB1237:
 4691              	.LBB1230:
 383:MidiController.cpp ****     msg.data1 = data1;
 4692              		.loc 1 383 16 view .LVU1213
 4693 002a 0F4D     		ldr	r5, .L261
 4694 002c 02EB4204 		add	r4, r2, r2, lsl #1
 389:MidiController.cpp ****     queueCount_++;
 4695              		.loc 1 389 30 view .LVU1214
 4696 0030 0132     		adds	r2, r2, #1
 4697              	.LVL289:
 389:MidiController.cpp ****     queueCount_++;
 4698              		.loc 1 389 30 view .LVU1215
 4699              	.LBE1230:
 4700              	.LBE1237:
 4701              	.LBB1238:
 4702              	.LBB1222:
 456:MidiController.cpp **** }
 4703              		.loc 1 456 50 view .LVU1216
 4704 0032 0CF00F0C 		and	ip, ip, #15
 4705              	.LBE1222:
 4706              	.LBE1238:
 4707              	.LBB1239:
 4708              	.LBB1231:
 383:MidiController.cpp ****     msg.data1 = data1;
 4709              		.loc 1 383 16 view .LVU1217
 4710 0036 00EB8400 		add	r0, r0, r4, lsl #2
ARM GAS  C:\Users\Marco\AppData\Local\Temp\ccVZoccs.s 			page 123


 4711              	.LVL290:
 385:MidiController.cpp ****     msg.hasData2 = false;
 4712              		.loc 1 385 15 view .LVU1218
 4713 003a 0024     		movs	r4, #0
 4714              	.LBE1231:
 4715              	.LBE1239:
 4716              	.LBB1240:
 4717              	.LBB1223:
 456:MidiController.cpp **** }
 4718              		.loc 1 456 33 view .LVU1219
 4719 003c 6CF03F0C 		orn	ip, ip, #63
 4720              	.LBE1223:
 4721              	.LBE1240:
 4722              	.LBB1241:
 4723              	.LBB1232:
 389:MidiController.cpp ****     queueCount_++;
 4724              		.loc 1 389 35 view .LVU1220
 4725 0040 02F03F02 		and	r2, r2, #63
 4726              	.LVL291:
 383:MidiController.cpp ****     msg.data1 = data1;
 4727              		.loc 1 383 16 view .LVU1221
 4728 0044 00F805C0 		strb	ip, [r0, r5]
 4729              	.LVL292:
 384:MidiController.cpp ****     msg.data2 = 0;
 4730              		.loc 1 384 5 is_stmt 1 view .LVU1222
 384:MidiController.cpp ****     msg.data2 = 0;
 4731              		.loc 1 384 15 is_stmt 0 view .LVU1223
 4732 0048 0135     		adds	r5, r5, #1
 4733 004a 4155     		strb	r1, [r0, r5]
 385:MidiController.cpp ****     msg.hasData2 = false;
 4734              		.loc 1 385 5 is_stmt 1 view .LVU1224
 385:MidiController.cpp ****     msg.hasData2 = false;
 4735              		.loc 1 385 15 is_stmt 0 view .LVU1225
 4736 004c 0749     		ldr	r1, .L261+4
 4737              	.LVL293:
 385:MidiController.cpp ****     msg.hasData2 = false;
 4738              		.loc 1 385 15 view .LVU1226
 4739 004e 4454     		strb	r4, [r0, r1]
 386:MidiController.cpp ****     msg.timestamp = lastActivityTime_;
 4740              		.loc 1 386 5 is_stmt 1 view .LVU1227
 386:MidiController.cpp ****     msg.timestamp = lastActivityTime_;
 4741              		.loc 1 386 18 is_stmt 0 view .LVU1228
 4742 0050 0631     		adds	r1, r1, #6
 4743 0052 4454     		strb	r4, [r0, r1]
 387:MidiController.cpp ****     
 4744              		.loc 1 387 5 is_stmt 1 view .LVU1229
 387:MidiController.cpp ****     
 4745              		.loc 1 387 19 is_stmt 0 view .LVU1230
 4746 0054 0439     		subs	r1, r1, #4
 4747 0056 D3F8BC45 		ldr	r4, [r3, #1468]
 4748 005a 4450     		str	r4, [r0, r1]
 389:MidiController.cpp ****     queueCount_++;
 4749              		.loc 1 389 5 is_stmt 1 view .LVU1231
 389:MidiController.cpp ****     queueCount_++;
 4750              		.loc 1 389 16 is_stmt 0 view .LVU1232
 4751 005c 83F8B525 		strb	r2, [r3, #1461]
 4752              	.LVL294:
ARM GAS  C:\Users\Marco\AppData\Local\Temp\ccVZoccs.s 			page 124


 390:MidiController.cpp **** }
 4753              		.loc 1 390 5 is_stmt 1 view .LVU1233
 390:MidiController.cpp **** }
 4754              		.loc 1 390 16 is_stmt 0 view .LVU1234
 4755 0060 83F8B6E5 		strb	lr, [r3, #1462]
 4756              	.LVL295:
 390:MidiController.cpp **** }
 4757              		.loc 1 390 16 view .LVU1235
 4758              	.LBE1232:
 4759              	.LBE1241:
 4760              	.LBE1242:
 4761              	.LBE1243:
 4762              	.LBE1244:
 4763              	.LBE1245:
 281:MidiController.cpp **** 
 4764              		.loc 1 281 1 view .LVU1236
 4765 0064 30BD     		pop	{r4, r5, pc}
 4766              	.LVL296:
 4767              	.L258:
 4768              		.cfi_def_cfa_offset 0
 4769              		.cfi_restore 4
 4770              		.cfi_restore 5
 4771              		.cfi_restore 14
 281:MidiController.cpp **** 
 4772              		.loc 1 281 1 view .LVU1237
 4773 0066 7047     		bx	lr
 4774              	.L262:
 4775              		.align	2
 4776              	.L261:
 4777 0068 B4220100 		.word	74420
 4778 006c B6220100 		.word	74422
 4779              		.cfi_endproc
 4780              	.LFE2596:
 4782              		.section	.text._ZN14MidiController14SendBankSelectEh,"ax",%progbits
 4783              		.align	1
 4784              		.p2align 2,,3
 4785              		.global	_ZN14MidiController14SendBankSelectEh
 4786              		.syntax unified
 4787              		.thumb
 4788              		.thumb_func
 4789              		.fpu fpv5-d16
 4791              	_ZN14MidiController14SendBankSelectEh:
 4792              	.LVL297:
 4793              	.LFB2597:
 283:MidiController.cpp ****     // Bank Select MSB (CC 0)
 4794              		.loc 1 283 51 is_stmt 1 view -0
 4795              		.cfi_startproc
 4796              		@ args = 0, pretend = 0, frame = 0
 4797              		@ frame_needed = 0, uses_anonymous_args = 0
 285:MidiController.cpp **** }
 4798              		.loc 1 285 5 view .LVU1239
 4799              	.LBB1258:
 4800              	.LBI1258:
  93:MidiController.cpp ****     if (!enabled_ || !IsValidController(controller)) {
 4801              		.loc 1 93 6 view .LVU1240
 4802              	.LBB1259:
  94:MidiController.cpp ****         return;
ARM GAS  C:\Users\Marco\AppData\Local\Temp\ccVZoccs.s 			page 125


 4803              		.loc 1 94 5 view .LVU1241
  94:MidiController.cpp ****         return;
 4804              		.loc 1 94 10 is_stmt 0 view .LVU1242
 4805 0000 00F59033 		add	r3, r0, #73728
  94:MidiController.cpp ****         return;
 4806              		.loc 1 94 19 view .LVU1243
 4807 0004 93F8AE22 		ldrb	r2, [r3, #686]	@ zero_extendqisi2
 4808 0008 82B3     		cbz	r2, .L269
 4809              	.LVL298:
  94:MidiController.cpp ****         return;
 4810              		.loc 1 94 19 view .LVU1244
 4811              	.LBE1259:
 4812              	.LBE1258:
 472:MidiController.cpp **** }
 4813              		.loc 1 472 5 is_stmt 1 view .LVU1245
 4814              	.LBB1290:
 4815              	.LBB1288:
 4816              	.LBB1260:
 4817              	.LBI1260:
  93:MidiController.cpp ****     if (!enabled_ || !IsValidController(controller)) {
 4818              		.loc 1 93 6 view .LVU1246
 4819              	.LBB1261:
  98:MidiController.cpp ****     QueueMessage(status, controller, value);
 4820              		.loc 1 98 5 view .LVU1247
 4821              	.LBB1262:
 4822              	.LBI1262:
 455:MidiController.cpp ****     return (uint8_t)messageType | ((channel - 1) & 0x0F);
 4823              		.loc 1 455 9 view .LVU1248
 4824              	.LBB1263:
 456:MidiController.cpp **** }
 4825              		.loc 1 456 5 view .LVU1249
 456:MidiController.cpp **** }
 4826              		.loc 1 456 5 is_stmt 0 view .LVU1250
 4827              	.LBE1263:
 4828              	.LBE1262:
  99:MidiController.cpp **** }
 4829              		.loc 1 99 5 is_stmt 1 view .LVU1251
 4830              	.LBB1268:
 4831              	.LBI1268:
 361:MidiController.cpp ****     if (IsQueueFull()) {
 4832              		.loc 1 361 6 view .LVU1252
 4833              	.LBB1269:
 362:MidiController.cpp ****         return; // Queue is full, drop message
 4834              		.loc 1 362 5 view .LVU1253
 4835              	.LBB1270:
 4836              	.LBI1270:
 410:MidiController.cpp ****     return queueCount_ >= MESSAGE_QUEUE_SIZE;
 4837              		.loc 1 410 6 view .LVU1254
 4838              	.LBB1271:
 411:MidiController.cpp **** }
 4839              		.loc 1 411 5 view .LVU1255
 411:MidiController.cpp **** }
 4840              		.loc 1 411 12 is_stmt 0 view .LVU1256
 4841 000a 93F8B6C5 		ldrb	ip, [r3, #1462]	@ zero_extendqisi2
 4842              	.LVL299:
 411:MidiController.cpp **** }
 4843              		.loc 1 411 12 view .LVU1257
ARM GAS  C:\Users\Marco\AppData\Local\Temp\ccVZoccs.s 			page 126


 4844              	.LBE1271:
 4845              	.LBE1270:
 362:MidiController.cpp ****         return; // Queue is full, drop message
 4846              		.loc 1 362 5 view .LVU1258
 4847 000e BCF13F0F 		cmp	ip, #63
 4848 0012 2BD8     		bhi	.L269
 366:MidiController.cpp ****     msg.status = status;
 4849              		.loc 1 366 5 is_stmt 1 view .LVU1259
 4850              	.LBE1269:
 4851              	.LBE1268:
 4852              	.LBE1261:
 4853              	.LBE1260:
 4854              	.LBE1288:
 4855              	.LBE1290:
 283:MidiController.cpp ****     // Bank Select MSB (CC 0)
 4856              		.loc 1 283 51 is_stmt 0 view .LVU1260
 4857 0014 10B5     		push	{r4, lr}
 4858              		.cfi_def_cfa_offset 8
 4859              		.cfi_offset 4, -8
 4860              		.cfi_offset 14, -4
 4861              	.LBB1291:
 4862              	.LBB1289:
 4863              	.LBB1287:
 4864              	.LBB1286:
 4865              	.LBB1277:
 4866              	.LBB1272:
 374:MidiController.cpp **** }
 4867              		.loc 1 374 16 view .LVU1261
 4868 0016 0CF1010E 		add	lr, ip, #1
 4869              	.LBE1272:
 4870              	.LBE1277:
 4871              	.LBB1278:
 4872              	.LBB1264:
 456:MidiController.cpp **** }
 4873              		.loc 1 456 45 view .LVU1262
 4874 001a 93F8ACC2 		ldrb	ip, [r3, #684]	@ zero_extendqisi2
 4875              	.LBE1264:
 4876              	.LBE1278:
 4877              	.LBB1279:
 4878              	.LBB1273:
 366:MidiController.cpp ****     msg.status = status;
 4879              		.loc 1 366 38 view .LVU1263
 4880 001e 93F8B525 		ldrb	r2, [r3, #1461]	@ zero_extendqisi2
 4881              	.LVL300:
 367:MidiController.cpp ****     msg.data1 = data1;
 4882              		.loc 1 367 5 is_stmt 1 view .LVU1264
 4883              	.LBE1273:
 4884              	.LBE1279:
 4885              	.LBB1280:
 4886              	.LBB1265:
 456:MidiController.cpp **** }
 4887              		.loc 1 456 45 is_stmt 0 view .LVU1265
 4888 0022 0CF1FF3C 		add	ip, ip, #-1
 4889              	.LBE1265:
 4890              	.LBE1280:
 4891              	.LBB1281:
 4892              	.LBB1274:
ARM GAS  C:\Users\Marco\AppData\Local\Temp\ccVZoccs.s 			page 127


 367:MidiController.cpp ****     msg.data1 = data1;
 4893              		.loc 1 367 16 view .LVU1266
 4894 0026 02EB4204 		add	r4, r2, r2, lsl #1
 373:MidiController.cpp ****     queueCount_++;
 4895              		.loc 1 373 30 view .LVU1267
 4896 002a 0132     		adds	r2, r2, #1
 4897              	.LVL301:
 373:MidiController.cpp ****     queueCount_++;
 4898              		.loc 1 373 30 view .LVU1268
 4899              	.LBE1274:
 4900              	.LBE1281:
 4901              	.LBB1282:
 4902              	.LBB1266:
 456:MidiController.cpp **** }
 4903              		.loc 1 456 50 view .LVU1269
 4904 002c 0CF00F0C 		and	ip, ip, #15
 4905              	.LBE1266:
 4906              	.LBE1282:
 4907              	.LBB1283:
 4908              	.LBB1275:
 367:MidiController.cpp ****     msg.data1 = data1;
 4909              		.loc 1 367 16 view .LVU1270
 4910 0030 00EB8400 		add	r0, r0, r4, lsl #2
 4911              	.LVL302:
 367:MidiController.cpp ****     msg.data1 = data1;
 4912              		.loc 1 367 16 view .LVU1271
 4913 0034 0E4C     		ldr	r4, .L272
 4914              	.LBE1275:
 4915              	.LBE1283:
 4916              	.LBB1284:
 4917              	.LBB1267:
 456:MidiController.cpp **** }
 4918              		.loc 1 456 33 view .LVU1272
 4919 0036 6CF04F0C 		orn	ip, ip, #79
 4920              	.LBE1267:
 4921              	.LBE1284:
 4922              	.LBB1285:
 4923              	.LBB1276:
 373:MidiController.cpp ****     queueCount_++;
 4924              		.loc 1 373 35 view .LVU1273
 4925 003a 02F03F02 		and	r2, r2, #63
 4926              	.LVL303:
 367:MidiController.cpp ****     msg.data1 = data1;
 4927              		.loc 1 367 16 view .LVU1274
 4928 003e 00F804C0 		strb	ip, [r0, r4]
 4929              	.LVL304:
 368:MidiController.cpp ****     msg.data2 = data2;
 4930              		.loc 1 368 5 is_stmt 1 view .LVU1275
 368:MidiController.cpp ****     msg.data2 = data2;
 4931              		.loc 1 368 15 is_stmt 0 view .LVU1276
 4932 0042 0134     		adds	r4, r4, #1
 4933 0044 4FF0000C 		mov	ip, #0
 4934 0048 00F804C0 		strb	ip, [r0, r4]
 369:MidiController.cpp ****     msg.hasData2 = true;
 4935              		.loc 1 369 5 is_stmt 1 view .LVU1277
 369:MidiController.cpp ****     msg.hasData2 = true;
 4936              		.loc 1 369 15 is_stmt 0 view .LVU1278
ARM GAS  C:\Users\Marco\AppData\Local\Temp\ccVZoccs.s 			page 128


 4937 004c 0134     		adds	r4, r4, #1
 370:MidiController.cpp ****     msg.timestamp = lastActivityTime_; // TODO: Get actual timestamp
 4938              		.loc 1 370 18 view .LVU1279
 4939 004e 4FF0010C 		mov	ip, #1
 369:MidiController.cpp ****     msg.hasData2 = true;
 4940              		.loc 1 369 15 view .LVU1280
 4941 0052 0155     		strb	r1, [r0, r4]
 370:MidiController.cpp ****     msg.timestamp = lastActivityTime_; // TODO: Get actual timestamp
 4942              		.loc 1 370 5 is_stmt 1 view .LVU1281
 370:MidiController.cpp ****     msg.timestamp = lastActivityTime_; // TODO: Get actual timestamp
 4943              		.loc 1 370 18 is_stmt 0 view .LVU1282
 4944 0054 0749     		ldr	r1, .L272+4
 4945              	.LVL305:
 370:MidiController.cpp ****     msg.timestamp = lastActivityTime_; // TODO: Get actual timestamp
 4946              		.loc 1 370 18 view .LVU1283
 4947 0056 00F801C0 		strb	ip, [r0, r1]
 371:MidiController.cpp ****     
 4948              		.loc 1 371 5 is_stmt 1 view .LVU1284
 371:MidiController.cpp ****     
 4949              		.loc 1 371 19 is_stmt 0 view .LVU1285
 4950 005a 0439     		subs	r1, r1, #4
 4951 005c D3F8BC45 		ldr	r4, [r3, #1468]
 4952              	.LVL306:
 371:MidiController.cpp ****     
 4953              		.loc 1 371 19 view .LVU1286
 4954 0060 4450     		str	r4, [r0, r1]
 373:MidiController.cpp ****     queueCount_++;
 4955              		.loc 1 373 5 is_stmt 1 view .LVU1287
 373:MidiController.cpp ****     queueCount_++;
 4956              		.loc 1 373 16 is_stmt 0 view .LVU1288
 4957 0062 83F8B525 		strb	r2, [r3, #1461]
 4958              	.LVL307:
 374:MidiController.cpp **** }
 4959              		.loc 1 374 5 is_stmt 1 view .LVU1289
 374:MidiController.cpp **** }
 4960              		.loc 1 374 16 is_stmt 0 view .LVU1290
 4961 0066 83F8B6E5 		strb	lr, [r3, #1462]
 4962              	.LVL308:
 374:MidiController.cpp **** }
 4963              		.loc 1 374 16 view .LVU1291
 4964              	.LBE1276:
 4965              	.LBE1285:
 4966              	.LBE1286:
 4967              	.LBE1287:
 4968              	.LBE1289:
 4969              	.LBE1291:
 286:MidiController.cpp **** 
 4970              		.loc 1 286 1 view .LVU1292
 4971 006a 10BD     		pop	{r4, pc}
 4972              	.LVL309:
 4973              	.L269:
 4974              		.cfi_def_cfa_offset 0
 4975              		.cfi_restore 4
 4976              		.cfi_restore 14
 286:MidiController.cpp **** 
 4977              		.loc 1 286 1 view .LVU1293
 4978 006c 7047     		bx	lr
ARM GAS  C:\Users\Marco\AppData\Local\Temp\ccVZoccs.s 			page 129


 4979              	.L273:
 4980 006e 00BF     		.align	2
 4981              	.L272:
 4982 0070 B4220100 		.word	74420
 4983 0074 BC220100 		.word	74428
 4984              		.cfi_endproc
 4985              	.LFE2597:
 4987              		.section	.text._ZN14MidiController15SendMidiMessageEhhh,"ax",%progbits
 4988              		.align	1
 4989              		.p2align 2,,3
 4990              		.global	_ZN14MidiController15SendMidiMessageEhhh
 4991              		.syntax unified
 4992              		.thumb
 4993              		.thumb_func
 4994              		.fpu fpv5-d16
 4996              	_ZN14MidiController15SendMidiMessageEhhh:
 4997              	.LVL310:
 4998              	.LFB2598:
 289:MidiController.cpp ****     if (!enabled_) return;
 4999              		.loc 1 289 84 is_stmt 1 view -0
 5000              		.cfi_startproc
 5001              		@ args = 0, pretend = 0, frame = 8
 5002              		@ frame_needed = 0, uses_anonymous_args = 0
 290:MidiController.cpp ****     
 5003              		.loc 1 290 5 view .LVU1295
 289:MidiController.cpp ****     if (!enabled_) return;
 5004              		.loc 1 289 84 is_stmt 0 view .LVU1296
 5005 0000 70B5     		push	{r4, r5, r6, lr}
 5006              		.cfi_def_cfa_offset 16
 5007              		.cfi_offset 4, -16
 5008              		.cfi_offset 5, -12
 5009              		.cfi_offset 6, -8
 5010              		.cfi_offset 14, -4
 290:MidiController.cpp ****     
 5011              		.loc 1 290 10 view .LVU1297
 5012 0002 00F59034 		add	r4, r0, #73728
 289:MidiController.cpp ****     if (!enabled_) return;
 5013              		.loc 1 289 84 view .LVU1298
 5014 0006 0D46     		mov	r5, r1
 5015 0008 82B0     		sub	sp, sp, #8
 5016              		.cfi_def_cfa_offset 24
 290:MidiController.cpp ****     
 5017              		.loc 1 290 5 view .LVU1299
 5018 000a 94F8AE12 		ldrb	r1, [r4, #686]	@ zero_extendqisi2
 5019              	.LVL311:
 290:MidiController.cpp ****     
 5020              		.loc 1 290 5 view .LVU1300
 5021 000e E1B1     		cbz	r1, .L274
 5022              	.LVL312:
 5023              	.LBB1305:
 5024              	.LBI1305:
 289:MidiController.cpp ****     if (!enabled_) return;
 5025              		.loc 1 289 6 is_stmt 1 view .LVU1301
 5026              	.LBB1306:
 292:MidiController.cpp ****     
 5027              		.loc 1 292 5 view .LVU1302
 292:MidiController.cpp ****     
ARM GAS  C:\Users\Marco\AppData\Local\Temp\ccVZoccs.s 			page 130


 5028              		.loc 1 292 49 is_stmt 0 view .LVU1303
 5029 0010 8DF80520 		strb	r2, [sp, #5]
 5030 0014 0646     		mov	r6, r0
 295:MidiController.cpp ****         if (usbConnected_) {
 5031              		.loc 1 295 9 view .LVU1304
 5032 0016 94F8AD22 		ldrb	r2, [r4, #685]	@ zero_extendqisi2
 5033              	.LVL313:
 292:MidiController.cpp ****     
 5034              		.loc 1 292 49 view .LVU1305
 5035 001a 8DF80450 		strb	r5, [sp, #4]
 295:MidiController.cpp ****         if (usbConnected_) {
 5036              		.loc 1 295 5 view .LVU1306
 5037 001e 12F0FD0F 		tst	r2, #253
 292:MidiController.cpp ****     
 5038              		.loc 1 292 49 view .LVU1307
 5039 0022 8DF80630 		strb	r3, [sp, #6]
 295:MidiController.cpp ****         if (usbConnected_) {
 5040              		.loc 1 295 5 is_stmt 1 view .LVU1308
 5041 0026 02D1     		bne	.L276
 296:MidiController.cpp ****             SendViaUSB(midiBytes, 3);
 5042              		.loc 1 296 9 view .LVU1309
 5043 0028 94F8AF32 		ldrb	r3, [r4, #687]	@ zero_extendqisi2
 5044              	.LVL314:
 296:MidiController.cpp ****             SendViaUSB(midiBytes, 3);
 5045              		.loc 1 296 9 is_stmt 0 view .LVU1310
 5046 002c D3B9     		cbnz	r3, .L288
 5047              	.L276:
 302:MidiController.cpp ****         if (uartConnected_) {
 5048              		.loc 1 302 5 is_stmt 1 view .LVU1311
 5049 002e 013A     		subs	r2, r2, #1
 5050 0030 012A     		cmp	r2, #1
 5051 0032 0CD9     		bls	.L289
 5052              	.LVL315:
 5053              	.L277:
 308:MidiController.cpp ****     UpdateRunningStatus(status);
 5054              		.loc 1 308 5 view .LVU1312
 308:MidiController.cpp ****     UpdateRunningStatus(status);
 5055              		.loc 1 308 18 is_stmt 0 view .LVU1313
 5056 0034 D4F8B835 		ldr	r3, [r4, #1464]
 5057              	.LBB1307:
 5058              	.LBB1308:
 5059              		.loc 1 496 20 view .LVU1314
 5060 0038 84F8C055 		strb	r5, [r4, #1472]
 5061              	.LBE1308:
 5062              	.LBE1307:
 308:MidiController.cpp ****     UpdateRunningStatus(status);
 5063              		.loc 1 308 18 view .LVU1315
 5064 003c 0133     		adds	r3, r3, #1
 5065 003e C4F8B835 		str	r3, [r4, #1464]
 309:MidiController.cpp ****     lastActivityTime_ = daisy::System::GetNow();
 5066              		.loc 1 309 5 is_stmt 1 view .LVU1316
 5067              	.LVL316:
 5068              	.LBB1310:
 5069              	.LBI1307:
 495:MidiController.cpp ****     runningStatus_ = status;
 5070              		.loc 1 495 6 view .LVU1317
 5071              	.LBB1309:
ARM GAS  C:\Users\Marco\AppData\Local\Temp\ccVZoccs.s 			page 131


 5072              		.loc 1 496 5 view .LVU1318
 5073              		.loc 1 496 5 is_stmt 0 view .LVU1319
 5074              	.LBE1309:
 5075              	.LBE1310:
 310:MidiController.cpp **** }
 5076              		.loc 1 310 5 is_stmt 1 view .LVU1320
 310:MidiController.cpp **** }
 5077              		.loc 1 310 46 is_stmt 0 view .LVU1321
 5078 0042 FFF7FEFF 		bl	_ZN5daisy6System6GetNowEv
 5079              	.LVL317:
 310:MidiController.cpp **** }
 5080              		.loc 1 310 23 view .LVU1322
 5081 0046 C4F8BC05 		str	r0, [r4, #1468]
 5082              	.LVL318:
 5083              	.L274:
 310:MidiController.cpp **** }
 5084              		.loc 1 310 23 view .LVU1323
 5085              	.LBE1306:
 5086              	.LBE1305:
 311:MidiController.cpp **** 
 5087              		.loc 1 311 1 view .LVU1324
 5088 004a 02B0     		add	sp, sp, #8
 5089              		.cfi_remember_state
 5090              		.cfi_def_cfa_offset 16
 5091              		@ sp needed
 5092 004c 70BD     		pop	{r4, r5, r6, pc}
 5093              	.LVL319:
 5094              	.L289:
 5095              		.cfi_restore_state
 5096              	.LBB1321:
 5097              	.LBB1320:
 303:MidiController.cpp ****             SendViaUART(midiBytes, 3);
 5098              		.loc 1 303 9 is_stmt 1 view .LVU1325
 5099 004e 94F8B032 		ldrb	r3, [r4, #688]	@ zero_extendqisi2
 5100 0052 002B     		cmp	r3, #0
 5101 0054 EED0     		beq	.L277
 304:MidiController.cpp ****         }
 5102              		.loc 1 304 13 view .LVU1326
 5103              	.LVL320:
 5104              	.LBB1311:
 5105              	.LBI1311:
 419:MidiController.cpp ****     uartMidi_.SendMessage(data, length);
 5106              		.loc 1 419 6 view .LVU1327
 5107              	.LBB1312:
 420:MidiController.cpp **** }
 5108              		.loc 1 420 5 view .LVU1328
 5109              	.LBB1313:
 5110              	.LBI1313:
 208:../DaisyExamples/libDaisy/src/hid/midi.h ****     {
 5111              		.loc 2 208 10 view .LVU1329
 5112              	.LBB1314:
 5113              	.LBI1314:
 106:../DaisyExamples/libDaisy/src/hid/midi.h **** 
 5114              		.loc 2 106 17 view .LVU1330
 5115              	.LBB1315:
 106:../DaisyExamples/libDaisy/src/hid/midi.h **** 
 5116              		.loc 2 106 50 view .LVU1331
ARM GAS  C:\Users\Marco\AppData\Local\Temp\ccVZoccs.s 			page 132


 106:../DaisyExamples/libDaisy/src/hid/midi.h **** 
 5117              		.loc 2 106 62 is_stmt 0 view .LVU1332
 5118 0056 0322     		movs	r2, #3
 5119 0058 01A9     		add	r1, sp, #4
 5120              	.LVL321:
 106:../DaisyExamples/libDaisy/src/hid/midi.h **** 
 5121              		.loc 2 106 62 view .LVU1333
 5122 005a 06F11800 		add	r0, r6, #24
 5123 005e FFF7FEFF 		bl	_ZN5daisy11UartHandler6PollTxEPhj
 5124              	.LVL322:
 106:../DaisyExamples/libDaisy/src/hid/midi.h **** 
 5125              		.loc 2 106 62 view .LVU1334
 5126              	.LBE1315:
 5127              	.LBE1314:
 5128              	.LBE1313:
 421:MidiController.cpp **** 
 5129              		.loc 1 421 1 view .LVU1335
 5130 0062 E7E7     		b	.L277
 5131              	.LVL323:
 5132              	.L288:
 421:MidiController.cpp **** 
 5133              		.loc 1 421 1 view .LVU1336
 5134              	.LBE1312:
 5135              	.LBE1311:
 297:MidiController.cpp ****         }
 5136              		.loc 1 297 13 is_stmt 1 view .LVU1337
 5137              	.LBB1316:
 5138              	.LBI1316:
 414:MidiController.cpp ****     usbMidi_.SendMessage(data, length);
 5139              		.loc 1 414 6 view .LVU1338
 5140              	.LBB1317:
 415:MidiController.cpp ****     // Note: SendMessage returns void, no error checking available
 5141              		.loc 1 415 5 view .LVU1339
 5142              	.LBB1318:
 5143              	.LBI1318:
 208:../DaisyExamples/libDaisy/src/hid/midi.h ****     {
 5144              		.loc 2 208 10 view .LVU1340
 5145              	.LBB1319:
 5146              		.loc 2 210 22 is_stmt 0 view .LVU1341
 5147 0064 49F26C10 		movw	r0, #37228
 5148              	.LVL324:
 5149              		.loc 2 210 22 view .LVU1342
 5150 0068 0322     		movs	r2, #3
 5151 006a 01A9     		add	r1, sp, #4
 5152              	.LVL325:
 5153              		.loc 2 210 22 view .LVU1343
 5154 006c 3044     		add	r0, r0, r6
 5155 006e FFF7FEFF 		bl	_ZN5daisy16MidiUsbTransport2TxEPhj
 5156              	.LVL326:
 5157              		.loc 2 210 22 view .LVU1344
 5158              	.LBE1319:
 5159              	.LBE1318:
 5160              	.LBE1317:
 5161              	.LBE1316:
 302:MidiController.cpp ****         if (uartConnected_) {
 5162              		.loc 1 302 9 view .LVU1345
 5163 0072 94F8AD22 		ldrb	r2, [r4, #685]	@ zero_extendqisi2
ARM GAS  C:\Users\Marco\AppData\Local\Temp\ccVZoccs.s 			page 133


 5164              	.LVL327:
 302:MidiController.cpp ****         if (uartConnected_) {
 5165              		.loc 1 302 5 is_stmt 1 view .LVU1346
 5166 0076 013A     		subs	r2, r2, #1
 5167 0078 012A     		cmp	r2, #1
 5168 007a DBD8     		bhi	.L277
 5169 007c E7E7     		b	.L289
 5170              	.LBE1320:
 5171              	.LBE1321:
 5172              		.cfi_endproc
 5173              	.LFE2598:
 5175 007e 00BF     		.section	.text._ZN14MidiController15SendMidiMessageEhh,"ax",%progbits
 5176              		.align	1
 5177              		.p2align 2,,3
 5178              		.global	_ZN14MidiController15SendMidiMessageEhh
 5179              		.syntax unified
 5180              		.thumb
 5181              		.thumb_func
 5182              		.fpu fpv5-d16
 5184              	_ZN14MidiController15SendMidiMessageEhh:
 5185              	.LVL328:
 5186              	.LFB2599:
 313:MidiController.cpp ****     if (!enabled_) return;
 5187              		.loc 1 313 69 view -0
 5188              		.cfi_startproc
 5189              		@ args = 0, pretend = 0, frame = 8
 5190              		@ frame_needed = 0, uses_anonymous_args = 0
 314:MidiController.cpp ****     
 5191              		.loc 1 314 5 view .LVU1348
 313:MidiController.cpp ****     if (!enabled_) return;
 5192              		.loc 1 313 69 is_stmt 0 view .LVU1349
 5193 0000 70B5     		push	{r4, r5, r6, lr}
 5194              		.cfi_def_cfa_offset 16
 5195              		.cfi_offset 4, -16
 5196              		.cfi_offset 5, -12
 5197              		.cfi_offset 6, -8
 5198              		.cfi_offset 14, -4
 314:MidiController.cpp ****     
 5199              		.loc 1 314 10 view .LVU1350
 5200 0002 00F59034 		add	r4, r0, #73728
 313:MidiController.cpp ****     if (!enabled_) return;
 5201              		.loc 1 313 69 view .LVU1351
 5202 0006 82B0     		sub	sp, sp, #8
 5203              		.cfi_def_cfa_offset 24
 314:MidiController.cpp ****     
 5204              		.loc 1 314 5 view .LVU1352
 5205 0008 94F8AE32 		ldrb	r3, [r4, #686]	@ zero_extendqisi2
 5206 000c DBB1     		cbz	r3, .L290
 5207              	.LVL329:
 5208              	.LBB1335:
 5209              	.LBI1335:
 313:MidiController.cpp ****     if (!enabled_) return;
 5210              		.loc 1 313 6 is_stmt 1 view .LVU1353
 5211              	.LBB1336:
 316:MidiController.cpp ****     
 5212              		.loc 1 316 5 view .LVU1354
 319:MidiController.cpp ****         if (usbConnected_) {
ARM GAS  C:\Users\Marco\AppData\Local\Temp\ccVZoccs.s 			page 134


 5213              		.loc 1 319 9 is_stmt 0 view .LVU1355
 5214 000e 94F8AD32 		ldrb	r3, [r4, #685]	@ zero_extendqisi2
 5215 0012 0646     		mov	r6, r0
 5216 0014 0D46     		mov	r5, r1
 316:MidiController.cpp ****     
 5217              		.loc 1 316 42 view .LVU1356
 5218 0016 8DF80410 		strb	r1, [sp, #4]
 319:MidiController.cpp ****         if (usbConnected_) {
 5219              		.loc 1 319 5 view .LVU1357
 5220 001a 13F0FD0F 		tst	r3, #253
 316:MidiController.cpp ****     
 5221              		.loc 1 316 42 view .LVU1358
 5222 001e 8DF80520 		strb	r2, [sp, #5]
 319:MidiController.cpp ****         if (usbConnected_) {
 5223              		.loc 1 319 5 is_stmt 1 view .LVU1359
 5224 0022 02D1     		bne	.L292
 320:MidiController.cpp ****             SendViaUSB(midiBytes, 2);
 5225              		.loc 1 320 9 view .LVU1360
 5226 0024 94F8AF22 		ldrb	r2, [r4, #687]	@ zero_extendqisi2
 5227              	.LVL330:
 320:MidiController.cpp ****             SendViaUSB(midiBytes, 2);
 5228              		.loc 1 320 9 is_stmt 0 view .LVU1361
 5229 0028 D2B9     		cbnz	r2, .L304
 5230              	.L292:
 326:MidiController.cpp ****         if (uartConnected_) {
 5231              		.loc 1 326 5 is_stmt 1 view .LVU1362
 5232 002a 013B     		subs	r3, r3, #1
 5233 002c 012B     		cmp	r3, #1
 5234 002e 0CD9     		bls	.L305
 5235              	.LVL331:
 5236              	.L293:
 332:MidiController.cpp ****     UpdateRunningStatus(status);
 5237              		.loc 1 332 5 view .LVU1363
 332:MidiController.cpp ****     UpdateRunningStatus(status);
 5238              		.loc 1 332 18 is_stmt 0 view .LVU1364
 5239 0030 D4F8B835 		ldr	r3, [r4, #1464]
 5240              	.LBB1337:
 5241              	.LBB1338:
 5242              		.loc 1 496 20 view .LVU1365
 5243 0034 84F8C055 		strb	r5, [r4, #1472]
 5244              	.LBE1338:
 5245              	.LBE1337:
 332:MidiController.cpp ****     UpdateRunningStatus(status);
 5246              		.loc 1 332 18 view .LVU1366
 5247 0038 0133     		adds	r3, r3, #1
 5248 003a C4F8B835 		str	r3, [r4, #1464]
 333:MidiController.cpp ****     lastActivityTime_ = daisy::System::GetNow();
 5249              		.loc 1 333 5 is_stmt 1 view .LVU1367
 5250              	.LVL332:
 5251              	.LBB1340:
 5252              	.LBI1337:
 495:MidiController.cpp ****     runningStatus_ = status;
 5253              		.loc 1 495 6 view .LVU1368
 5254              	.LBB1339:
 5255              		.loc 1 496 5 view .LVU1369
 5256              		.loc 1 496 5 is_stmt 0 view .LVU1370
 5257              	.LBE1339:
ARM GAS  C:\Users\Marco\AppData\Local\Temp\ccVZoccs.s 			page 135


 5258              	.LBE1340:
 334:MidiController.cpp **** }
 5259              		.loc 1 334 5 is_stmt 1 view .LVU1371
 334:MidiController.cpp **** }
 5260              		.loc 1 334 46 is_stmt 0 view .LVU1372
 5261 003e FFF7FEFF 		bl	_ZN5daisy6System6GetNowEv
 5262              	.LVL333:
 334:MidiController.cpp **** }
 5263              		.loc 1 334 23 view .LVU1373
 5264 0042 C4F8BC05 		str	r0, [r4, #1468]
 5265              	.LVL334:
 5266              	.L290:
 334:MidiController.cpp **** }
 5267              		.loc 1 334 23 view .LVU1374
 5268              	.LBE1336:
 5269              	.LBE1335:
 335:MidiController.cpp **** 
 5270              		.loc 1 335 1 view .LVU1375
 5271 0046 02B0     		add	sp, sp, #8
 5272              		.cfi_remember_state
 5273              		.cfi_def_cfa_offset 16
 5274              		@ sp needed
 5275 0048 70BD     		pop	{r4, r5, r6, pc}
 5276              	.LVL335:
 5277              	.L305:
 5278              		.cfi_restore_state
 5279              	.LBB1351:
 5280              	.LBB1350:
 327:MidiController.cpp ****             SendViaUART(midiBytes, 2);
 5281              		.loc 1 327 9 is_stmt 1 view .LVU1376
 5282 004a 94F8B032 		ldrb	r3, [r4, #688]	@ zero_extendqisi2
 5283 004e 002B     		cmp	r3, #0
 5284 0050 EED0     		beq	.L293
 328:MidiController.cpp ****         }
 5285              		.loc 1 328 13 view .LVU1377
 5286              	.LVL336:
 5287              	.LBB1341:
 5288              	.LBI1341:
 419:MidiController.cpp ****     uartMidi_.SendMessage(data, length);
 5289              		.loc 1 419 6 view .LVU1378
 5290              	.LBB1342:
 420:MidiController.cpp **** }
 5291              		.loc 1 420 5 view .LVU1379
 5292              	.LBB1343:
 5293              	.LBI1343:
 208:../DaisyExamples/libDaisy/src/hid/midi.h ****     {
 5294              		.loc 2 208 10 view .LVU1380
 5295              	.LBB1344:
 5296              	.LBI1344:
 106:../DaisyExamples/libDaisy/src/hid/midi.h **** 
 5297              		.loc 2 106 17 view .LVU1381
 5298              	.LBB1345:
 106:../DaisyExamples/libDaisy/src/hid/midi.h **** 
 5299              		.loc 2 106 50 view .LVU1382
 106:../DaisyExamples/libDaisy/src/hid/midi.h **** 
 5300              		.loc 2 106 62 is_stmt 0 view .LVU1383
 5301 0052 0222     		movs	r2, #2
ARM GAS  C:\Users\Marco\AppData\Local\Temp\ccVZoccs.s 			page 136


 5302 0054 01A9     		add	r1, sp, #4
 5303              	.LVL337:
 106:../DaisyExamples/libDaisy/src/hid/midi.h **** 
 5304              		.loc 2 106 62 view .LVU1384
 5305 0056 06F11800 		add	r0, r6, #24
 5306 005a FFF7FEFF 		bl	_ZN5daisy11UartHandler6PollTxEPhj
 5307              	.LVL338:
 106:../DaisyExamples/libDaisy/src/hid/midi.h **** 
 5308              		.loc 2 106 62 view .LVU1385
 5309              	.LBE1345:
 5310              	.LBE1344:
 5311              	.LBE1343:
 421:MidiController.cpp **** 
 5312              		.loc 1 421 1 view .LVU1386
 5313 005e E7E7     		b	.L293
 5314              	.LVL339:
 5315              	.L304:
 421:MidiController.cpp **** 
 5316              		.loc 1 421 1 view .LVU1387
 5317              	.LBE1342:
 5318              	.LBE1341:
 321:MidiController.cpp ****         }
 5319              		.loc 1 321 13 is_stmt 1 view .LVU1388
 5320              	.LBB1346:
 5321              	.LBI1346:
 414:MidiController.cpp ****     usbMidi_.SendMessage(data, length);
 5322              		.loc 1 414 6 view .LVU1389
 5323              	.LBB1347:
 415:MidiController.cpp ****     // Note: SendMessage returns void, no error checking available
 5324              		.loc 1 415 5 view .LVU1390
 5325              	.LBB1348:
 5326              	.LBI1348:
 208:../DaisyExamples/libDaisy/src/hid/midi.h ****     {
 5327              		.loc 2 208 10 view .LVU1391
 5328              	.LBB1349:
 5329              		.loc 2 210 22 is_stmt 0 view .LVU1392
 5330 0060 49F26C10 		movw	r0, #37228
 5331              	.LVL340:
 5332              		.loc 2 210 22 view .LVU1393
 5333 0064 0222     		movs	r2, #2
 5334 0066 01A9     		add	r1, sp, #4
 5335              	.LVL341:
 5336              		.loc 2 210 22 view .LVU1394
 5337 0068 3044     		add	r0, r0, r6
 5338 006a FFF7FEFF 		bl	_ZN5daisy16MidiUsbTransport2TxEPhj
 5339              	.LVL342:
 5340              		.loc 2 210 22 view .LVU1395
 5341              	.LBE1349:
 5342              	.LBE1348:
 5343              	.LBE1347:
 5344              	.LBE1346:
 326:MidiController.cpp ****         if (uartConnected_) {
 5345              		.loc 1 326 9 view .LVU1396
 5346 006e 94F8AD32 		ldrb	r3, [r4, #685]	@ zero_extendqisi2
 5347              	.LVL343:
 326:MidiController.cpp ****         if (uartConnected_) {
 5348              		.loc 1 326 5 is_stmt 1 view .LVU1397
ARM GAS  C:\Users\Marco\AppData\Local\Temp\ccVZoccs.s 			page 137


 5349 0072 013B     		subs	r3, r3, #1
 5350 0074 012B     		cmp	r3, #1
 5351 0076 DBD8     		bhi	.L293
 5352 0078 E7E7     		b	.L305
 5353              	.LBE1350:
 5354              	.LBE1351:
 5355              		.cfi_endproc
 5356              	.LFE2599:
 5358 007a 00BF     		.section	.text._ZN14MidiController15SendMidiMessageEh,"ax",%progbits
 5359              		.align	1
 5360              		.p2align 2,,3
 5361              		.global	_ZN14MidiController15SendMidiMessageEh
 5362              		.syntax unified
 5363              		.thumb
 5364              		.thumb_func
 5365              		.fpu fpv5-d16
 5367              	_ZN14MidiController15SendMidiMessageEh:
 5368              	.LVL344:
 5369              	.LFB2600:
 337:MidiController.cpp ****     if (!enabled_) return;
 5370              		.loc 1 337 54 view -0
 5371              		.cfi_startproc
 5372              		@ args = 0, pretend = 0, frame = 8
 5373              		@ frame_needed = 0, uses_anonymous_args = 0
 338:MidiController.cpp ****     
 5374              		.loc 1 338 5 view .LVU1399
 337:MidiController.cpp ****     if (!enabled_) return;
 5375              		.loc 1 337 54 is_stmt 0 view .LVU1400
 5376 0000 70B5     		push	{r4, r5, r6, lr}
 5377              		.cfi_def_cfa_offset 16
 5378              		.cfi_offset 4, -16
 5379              		.cfi_offset 5, -12
 5380              		.cfi_offset 6, -8
 5381              		.cfi_offset 14, -4
 338:MidiController.cpp ****     
 5382              		.loc 1 338 10 view .LVU1401
 5383 0002 00F59034 		add	r4, r0, #73728
 337:MidiController.cpp ****     if (!enabled_) return;
 5384              		.loc 1 337 54 view .LVU1402
 5385 0006 82B0     		sub	sp, sp, #8
 5386              		.cfi_def_cfa_offset 24
 338:MidiController.cpp ****     
 5387              		.loc 1 338 5 view .LVU1403
 5388 0008 94F8AE32 		ldrb	r3, [r4, #686]	@ zero_extendqisi2
 5389 000c CBB1     		cbz	r3, .L306
 5390              	.LVL345:
 5391              	.LBB1365:
 5392              	.LBI1365:
 337:MidiController.cpp ****     if (!enabled_) return;
 5393              		.loc 1 337 6 is_stmt 1 view .LVU1404
 5394              	.LBB1366:
 340:MidiController.cpp ****     
 5395              		.loc 1 340 5 view .LVU1405
 343:MidiController.cpp ****         if (usbConnected_) {
 5396              		.loc 1 343 9 is_stmt 0 view .LVU1406
 5397 000e 94F8AD32 		ldrb	r3, [r4, #685]	@ zero_extendqisi2
 5398 0012 0646     		mov	r6, r0
ARM GAS  C:\Users\Marco\AppData\Local\Temp\ccVZoccs.s 			page 138


 5399 0014 0D46     		mov	r5, r1
 340:MidiController.cpp ****     
 5400              		.loc 1 340 35 view .LVU1407
 5401 0016 8DF80410 		strb	r1, [sp, #4]
 343:MidiController.cpp ****         if (usbConnected_) {
 5402              		.loc 1 343 5 is_stmt 1 view .LVU1408
 5403 001a 13F0FD0F 		tst	r3, #253
 5404 001e 02D1     		bne	.L308
 344:MidiController.cpp ****             SendViaUSB(midiBytes, 1);
 5405              		.loc 1 344 9 view .LVU1409
 5406 0020 94F8AF22 		ldrb	r2, [r4, #687]	@ zero_extendqisi2
 5407 0024 D2B9     		cbnz	r2, .L320
 5408              	.L308:
 350:MidiController.cpp ****         if (uartConnected_) {
 5409              		.loc 1 350 5 view .LVU1410
 5410 0026 013B     		subs	r3, r3, #1
 5411 0028 012B     		cmp	r3, #1
 5412 002a 0CD9     		bls	.L321
 5413              	.LVL346:
 5414              	.L309:
 356:MidiController.cpp ****     UpdateRunningStatus(status);
 5415              		.loc 1 356 5 view .LVU1411
 356:MidiController.cpp ****     UpdateRunningStatus(status);
 5416              		.loc 1 356 18 is_stmt 0 view .LVU1412
 5417 002c D4F8B835 		ldr	r3, [r4, #1464]
 5418              	.LBB1367:
 5419              	.LBB1368:
 5420              		.loc 1 496 20 view .LVU1413
 5421 0030 84F8C055 		strb	r5, [r4, #1472]
 5422              	.LBE1368:
 5423              	.LBE1367:
 356:MidiController.cpp ****     UpdateRunningStatus(status);
 5424              		.loc 1 356 18 view .LVU1414
 5425 0034 0133     		adds	r3, r3, #1
 5426 0036 C4F8B835 		str	r3, [r4, #1464]
 357:MidiController.cpp ****     lastActivityTime_ = daisy::System::GetNow();
 5427              		.loc 1 357 5 is_stmt 1 view .LVU1415
 5428              	.LVL347:
 5429              	.LBB1370:
 5430              	.LBI1367:
 495:MidiController.cpp ****     runningStatus_ = status;
 5431              		.loc 1 495 6 view .LVU1416
 5432              	.LBB1369:
 5433              		.loc 1 496 5 view .LVU1417
 5434              		.loc 1 496 5 is_stmt 0 view .LVU1418
 5435              	.LBE1369:
 5436              	.LBE1370:
 358:MidiController.cpp **** }
 5437              		.loc 1 358 5 is_stmt 1 view .LVU1419
 358:MidiController.cpp **** }
 5438              		.loc 1 358 46 is_stmt 0 view .LVU1420
 5439 003a FFF7FEFF 		bl	_ZN5daisy6System6GetNowEv
 5440              	.LVL348:
 358:MidiController.cpp **** }
 5441              		.loc 1 358 23 view .LVU1421
 5442 003e C4F8BC05 		str	r0, [r4, #1468]
 5443              	.LVL349:
ARM GAS  C:\Users\Marco\AppData\Local\Temp\ccVZoccs.s 			page 139


 5444              	.L306:
 358:MidiController.cpp **** }
 5445              		.loc 1 358 23 view .LVU1422
 5446              	.LBE1366:
 5447              	.LBE1365:
 359:MidiController.cpp **** 
 5448              		.loc 1 359 1 view .LVU1423
 5449 0042 02B0     		add	sp, sp, #8
 5450              		.cfi_remember_state
 5451              		.cfi_def_cfa_offset 16
 5452              		@ sp needed
 5453 0044 70BD     		pop	{r4, r5, r6, pc}
 5454              	.LVL350:
 5455              	.L321:
 5456              		.cfi_restore_state
 5457              	.LBB1381:
 5458              	.LBB1380:
 351:MidiController.cpp ****             SendViaUART(midiBytes, 1);
 5459              		.loc 1 351 9 is_stmt 1 view .LVU1424
 5460 0046 94F8B032 		ldrb	r3, [r4, #688]	@ zero_extendqisi2
 5461 004a 002B     		cmp	r3, #0
 5462 004c EED0     		beq	.L309
 352:MidiController.cpp ****         }
 5463              		.loc 1 352 13 view .LVU1425
 5464              	.LVL351:
 5465              	.LBB1371:
 5466              	.LBI1371:
 419:MidiController.cpp ****     uartMidi_.SendMessage(data, length);
 5467              		.loc 1 419 6 view .LVU1426
 5468              	.LBB1372:
 420:MidiController.cpp **** }
 5469              		.loc 1 420 5 view .LVU1427
 5470              	.LBB1373:
 5471              	.LBI1373:
 208:../DaisyExamples/libDaisy/src/hid/midi.h ****     {
 5472              		.loc 2 208 10 view .LVU1428
 5473              	.LBB1374:
 5474              	.LBI1374:
 106:../DaisyExamples/libDaisy/src/hid/midi.h **** 
 5475              		.loc 2 106 17 view .LVU1429
 5476              	.LBB1375:
 106:../DaisyExamples/libDaisy/src/hid/midi.h **** 
 5477              		.loc 2 106 50 view .LVU1430
 106:../DaisyExamples/libDaisy/src/hid/midi.h **** 
 5478              		.loc 2 106 62 is_stmt 0 view .LVU1431
 5479 004e 0122     		movs	r2, #1
 5480 0050 01A9     		add	r1, sp, #4
 5481              	.LVL352:
 106:../DaisyExamples/libDaisy/src/hid/midi.h **** 
 5482              		.loc 2 106 62 view .LVU1432
 5483 0052 06F11800 		add	r0, r6, #24
 5484 0056 FFF7FEFF 		bl	_ZN5daisy11UartHandler6PollTxEPhj
 5485              	.LVL353:
 106:../DaisyExamples/libDaisy/src/hid/midi.h **** 
 5486              		.loc 2 106 62 view .LVU1433
 5487              	.LBE1375:
 5488              	.LBE1374:
ARM GAS  C:\Users\Marco\AppData\Local\Temp\ccVZoccs.s 			page 140


 5489              	.LBE1373:
 421:MidiController.cpp **** 
 5490              		.loc 1 421 1 view .LVU1434
 5491 005a E7E7     		b	.L309
 5492              	.LVL354:
 5493              	.L320:
 421:MidiController.cpp **** 
 5494              		.loc 1 421 1 view .LVU1435
 5495              	.LBE1372:
 5496              	.LBE1371:
 345:MidiController.cpp ****         }
 5497              		.loc 1 345 13 is_stmt 1 view .LVU1436
 5498              	.LBB1376:
 5499              	.LBI1376:
 414:MidiController.cpp ****     usbMidi_.SendMessage(data, length);
 5500              		.loc 1 414 6 view .LVU1437
 5501              	.LBB1377:
 415:MidiController.cpp ****     // Note: SendMessage returns void, no error checking available
 5502              		.loc 1 415 5 view .LVU1438
 5503              	.LBB1378:
 5504              	.LBI1378:
 208:../DaisyExamples/libDaisy/src/hid/midi.h ****     {
 5505              		.loc 2 208 10 view .LVU1439
 5506              	.LBB1379:
 5507              		.loc 2 210 22 is_stmt 0 view .LVU1440
 5508 005c 49F26C10 		movw	r0, #37228
 5509              	.LVL355:
 5510              		.loc 2 210 22 view .LVU1441
 5511 0060 0122     		movs	r2, #1
 5512 0062 01A9     		add	r1, sp, #4
 5513              	.LVL356:
 5514              		.loc 2 210 22 view .LVU1442
 5515 0064 3044     		add	r0, r0, r6
 5516 0066 FFF7FEFF 		bl	_ZN5daisy16MidiUsbTransport2TxEPhj
 5517              	.LVL357:
 5518              		.loc 2 210 22 view .LVU1443
 5519              	.LBE1379:
 5520              	.LBE1378:
 5521              	.LBE1377:
 5522              	.LBE1376:
 350:MidiController.cpp ****         if (uartConnected_) {
 5523              		.loc 1 350 9 view .LVU1444
 5524 006a 94F8AD32 		ldrb	r3, [r4, #685]	@ zero_extendqisi2
 5525              	.LVL358:
 350:MidiController.cpp ****         if (uartConnected_) {
 5526              		.loc 1 350 5 is_stmt 1 view .LVU1445
 5527 006e 013B     		subs	r3, r3, #1
 5528 0070 012B     		cmp	r3, #1
 5529 0072 DBD8     		bhi	.L309
 5530 0074 E7E7     		b	.L321
 5531              	.LBE1380:
 5532              	.LBE1381:
 5533              		.cfi_endproc
 5534              	.LFE2600:
 5536 0076 00BF     		.section	.text._ZN14MidiController12QueueMessageEhhh,"ax",%progbits
 5537              		.align	1
 5538              		.p2align 2,,3
ARM GAS  C:\Users\Marco\AppData\Local\Temp\ccVZoccs.s 			page 141


 5539              		.global	_ZN14MidiController12QueueMessageEhhh
 5540              		.syntax unified
 5541              		.thumb
 5542              		.thumb_func
 5543              		.fpu fpv5-d16
 5545              	_ZN14MidiController12QueueMessageEhhh:
 5546              	.LVL359:
 5547              	.LFB2601:
 361:MidiController.cpp ****     if (IsQueueFull()) {
 5548              		.loc 1 361 81 view -0
 5549              		.cfi_startproc
 5550              		@ args = 0, pretend = 0, frame = 0
 5551              		@ frame_needed = 0, uses_anonymous_args = 0
 362:MidiController.cpp ****         return; // Queue is full, drop message
 5552              		.loc 1 362 5 view .LVU1447
 5553              	.LBB1382:
 5554              	.LBI1382:
 410:MidiController.cpp ****     return queueCount_ >= MESSAGE_QUEUE_SIZE;
 5555              		.loc 1 410 6 view .LVU1448
 5556              	.LBB1383:
 411:MidiController.cpp **** }
 5557              		.loc 1 411 5 view .LVU1449
 5558              	.LBE1383:
 5559              	.LBE1382:
 361:MidiController.cpp ****     if (IsQueueFull()) {
 5560              		.loc 1 361 81 is_stmt 0 view .LVU1450
 5561 0000 F0B5     		push	{r4, r5, r6, r7, lr}
 5562              		.cfi_def_cfa_offset 20
 5563              		.cfi_offset 4, -20
 5564              		.cfi_offset 5, -16
 5565              		.cfi_offset 6, -12
 5566              		.cfi_offset 7, -8
 5567              		.cfi_offset 14, -4
 5568              	.LBB1385:
 5569              	.LBB1384:
 411:MidiController.cpp **** }
 5570              		.loc 1 411 12 view .LVU1451
 5571 0002 00F5903E 		add	lr, r0, #73728
 5572 0006 9EF8B6C5 		ldrb	ip, [lr, #1462]	@ zero_extendqisi2
 5573              	.LVL360:
 411:MidiController.cpp **** }
 5574              		.loc 1 411 12 view .LVU1452
 5575              	.LBE1384:
 5576              	.LBE1385:
 362:MidiController.cpp ****         return; // Queue is full, drop message
 5577              		.loc 1 362 5 view .LVU1453
 5578 000a BCF13F0F 		cmp	ip, #63
 5579 000e 1CD8     		bhi	.L322
 366:MidiController.cpp ****     msg.status = status;
 5580              		.loc 1 366 5 is_stmt 1 view .LVU1454
 374:MidiController.cpp **** }
 5581              		.loc 1 374 16 is_stmt 0 view .LVU1455
 5582 0010 0CF10104 		add	r4, ip, #1
 366:MidiController.cpp ****     msg.status = status;
 5583              		.loc 1 366 38 view .LVU1456
 5584 0014 9EF8B5C5 		ldrb	ip, [lr, #1461]	@ zero_extendqisi2
 5585              	.LVL361:
ARM GAS  C:\Users\Marco\AppData\Local\Temp\ccVZoccs.s 			page 142


 367:MidiController.cpp ****     msg.data1 = data1;
 5586              		.loc 1 367 5 is_stmt 1 view .LVU1457
 367:MidiController.cpp ****     msg.data1 = data1;
 5587              		.loc 1 367 16 is_stmt 0 view .LVU1458
 5588 0018 0C4E     		ldr	r6, .L325
 5589 001a 0CEB4C07 		add	r7, ip, ip, lsl #1
 368:MidiController.cpp ****     msg.data2 = data2;
 5590              		.loc 1 368 15 view .LVU1459
 5591 001e 0C4D     		ldr	r5, .L325+4
 373:MidiController.cpp ****     queueCount_++;
 5592              		.loc 1 373 30 view .LVU1460
 5593 0020 0CF1010C 		add	ip, ip, #1
 5594              	.LVL362:
 367:MidiController.cpp ****     msg.data1 = data1;
 5595              		.loc 1 367 16 view .LVU1461
 5596 0024 00EB8700 		add	r0, r0, r7, lsl #2
 5597              	.LVL363:
 373:MidiController.cpp ****     queueCount_++;
 5598              		.loc 1 373 35 view .LVU1462
 5599 0028 0CF03F0C 		and	ip, ip, #63
 5600              	.LVL364:
 367:MidiController.cpp ****     msg.data1 = data1;
 5601              		.loc 1 367 16 view .LVU1463
 5602 002c 8155     		strb	r1, [r0, r6]
 5603              	.LVL365:
 368:MidiController.cpp ****     msg.data2 = data2;
 5604              		.loc 1 368 5 is_stmt 1 view .LVU1464
 368:MidiController.cpp ****     msg.data2 = data2;
 5605              		.loc 1 368 15 is_stmt 0 view .LVU1465
 5606 002e 4255     		strb	r2, [r0, r5]
 369:MidiController.cpp ****     msg.hasData2 = true;
 5607              		.loc 1 369 5 is_stmt 1 view .LVU1466
 369:MidiController.cpp ****     msg.hasData2 = true;
 5608              		.loc 1 369 15 is_stmt 0 view .LVU1467
 5609 0030 084A     		ldr	r2, .L325+8
 5610              	.LVL366:
 369:MidiController.cpp ****     msg.hasData2 = true;
 5611              		.loc 1 369 15 view .LVU1468
 5612 0032 8354     		strb	r3, [r0, r2]
 370:MidiController.cpp ****     msg.timestamp = lastActivityTime_; // TODO: Get actual timestamp
 5613              		.loc 1 370 5 is_stmt 1 view .LVU1469
 370:MidiController.cpp ****     msg.timestamp = lastActivityTime_; // TODO: Get actual timestamp
 5614              		.loc 1 370 18 is_stmt 0 view .LVU1470
 5615 0034 0122     		movs	r2, #1
 5616 0036 084B     		ldr	r3, .L325+12
 5617              	.LVL367:
 370:MidiController.cpp ****     msg.timestamp = lastActivityTime_; // TODO: Get actual timestamp
 5618              		.loc 1 370 18 view .LVU1471
 5619 0038 C254     		strb	r2, [r0, r3]
 371:MidiController.cpp ****     
 5620              		.loc 1 371 5 is_stmt 1 view .LVU1472
 371:MidiController.cpp ****     
 5621              		.loc 1 371 19 is_stmt 0 view .LVU1473
 5622 003a 043B     		subs	r3, r3, #4
 5623 003c DEF8BC25 		ldr	r2, [lr, #1468]
 5624 0040 C250     		str	r2, [r0, r3]
 373:MidiController.cpp ****     queueCount_++;
ARM GAS  C:\Users\Marco\AppData\Local\Temp\ccVZoccs.s 			page 143


 5625              		.loc 1 373 5 is_stmt 1 view .LVU1474
 373:MidiController.cpp ****     queueCount_++;
 5626              		.loc 1 373 16 is_stmt 0 view .LVU1475
 5627 0042 8EF8B5C5 		strb	ip, [lr, #1461]
 5628              	.LVL368:
 374:MidiController.cpp **** }
 5629              		.loc 1 374 5 is_stmt 1 view .LVU1476
 374:MidiController.cpp **** }
 5630              		.loc 1 374 16 is_stmt 0 view .LVU1477
 5631 0046 8EF8B645 		strb	r4, [lr, #1462]
 5632              	.L322:
 375:MidiController.cpp **** 
 5633              		.loc 1 375 1 view .LVU1478
 5634 004a F0BD     		pop	{r4, r5, r6, r7, pc}
 5635              	.L326:
 5636              		.align	2
 5637              	.L325:
 5638 004c B4220100 		.word	74420
 5639 0050 B5220100 		.word	74421
 5640 0054 B6220100 		.word	74422
 5641 0058 BC220100 		.word	74428
 5642              		.cfi_endproc
 5643              	.LFE2601:
 5645              		.section	.text._ZN14MidiController12QueueMessageEhh,"ax",%progbits
 5646              		.align	1
 5647              		.p2align 2,,3
 5648              		.global	_ZN14MidiController12QueueMessageEhh
 5649              		.syntax unified
 5650              		.thumb
 5651              		.thumb_func
 5652              		.fpu fpv5-d16
 5654              	_ZN14MidiController12QueueMessageEhh:
 5655              	.LVL369:
 5656              	.LFB2602:
 377:MidiController.cpp ****     if (IsQueueFull()) {
 5657              		.loc 1 377 66 is_stmt 1 view -0
 5658              		.cfi_startproc
 5659              		@ args = 0, pretend = 0, frame = 0
 5660              		@ frame_needed = 0, uses_anonymous_args = 0
 378:MidiController.cpp ****         return;
 5661              		.loc 1 378 5 view .LVU1480
 5662              	.LBB1386:
 5663              	.LBI1386:
 410:MidiController.cpp ****     return queueCount_ >= MESSAGE_QUEUE_SIZE;
 5664              		.loc 1 410 6 view .LVU1481
 5665              	.LBB1387:
 411:MidiController.cpp **** }
 5666              		.loc 1 411 5 view .LVU1482
 411:MidiController.cpp **** }
 5667              		.loc 1 411 12 is_stmt 0 view .LVU1483
 5668 0000 00F5903C 		add	ip, r0, #73728
 5669 0004 9CF8B635 		ldrb	r3, [ip, #1462]	@ zero_extendqisi2
 5670              	.LVL370:
 411:MidiController.cpp **** }
 5671              		.loc 1 411 12 view .LVU1484
 5672              	.LBE1387:
 5673              	.LBE1386:
ARM GAS  C:\Users\Marco\AppData\Local\Temp\ccVZoccs.s 			page 144


 378:MidiController.cpp ****         return;
 5674              		.loc 1 378 5 view .LVU1485
 5675 0008 3F2B     		cmp	r3, #63
 5676 000a 1DD8     		bhi	.L330
 382:MidiController.cpp ****     msg.status = status;
 5677              		.loc 1 382 5 is_stmt 1 view .LVU1486
 377:MidiController.cpp ****     if (IsQueueFull()) {
 5678              		.loc 1 377 66 is_stmt 0 view .LVU1487
 5679 000c 70B5     		push	{r4, r5, r6, lr}
 5680              		.cfi_def_cfa_offset 16
 5681              		.cfi_offset 4, -16
 5682              		.cfi_offset 5, -12
 5683              		.cfi_offset 6, -8
 5684              		.cfi_offset 14, -4
 390:MidiController.cpp **** }
 5685              		.loc 1 390 16 view .LVU1488
 5686 000e 03F1010E 		add	lr, r3, #1
 382:MidiController.cpp ****     msg.status = status;
 5687              		.loc 1 382 38 view .LVU1489
 5688 0012 9CF8B535 		ldrb	r3, [ip, #1461]	@ zero_extendqisi2
 5689              	.LVL371:
 383:MidiController.cpp ****     msg.data1 = data1;
 5690              		.loc 1 383 5 is_stmt 1 view .LVU1490
 383:MidiController.cpp ****     msg.data1 = data1;
 5691              		.loc 1 383 16 is_stmt 0 view .LVU1491
 5692 0016 0D4D     		ldr	r5, .L333
 385:MidiController.cpp ****     msg.hasData2 = false;
 5693              		.loc 1 385 15 view .LVU1492
 5694 0018 0024     		movs	r4, #0
 383:MidiController.cpp ****     msg.data1 = data1;
 5695              		.loc 1 383 16 view .LVU1493
 5696 001a 03EB4306 		add	r6, r3, r3, lsl #1
 389:MidiController.cpp ****     queueCount_++;
 5697              		.loc 1 389 30 view .LVU1494
 5698 001e 0133     		adds	r3, r3, #1
 5699              	.LVL372:
 383:MidiController.cpp ****     msg.data1 = data1;
 5700              		.loc 1 383 16 view .LVU1495
 5701 0020 00EB8600 		add	r0, r0, r6, lsl #2
 5702              	.LVL373:
 389:MidiController.cpp ****     queueCount_++;
 5703              		.loc 1 389 35 view .LVU1496
 5704 0024 03F03F03 		and	r3, r3, #63
 5705              	.LVL374:
 383:MidiController.cpp ****     msg.data1 = data1;
 5706              		.loc 1 383 16 view .LVU1497
 5707 0028 4155     		strb	r1, [r0, r5]
 5708              	.LVL375:
 384:MidiController.cpp ****     msg.data2 = 0;
 5709              		.loc 1 384 5 is_stmt 1 view .LVU1498
 384:MidiController.cpp ****     msg.data2 = 0;
 5710              		.loc 1 384 15 is_stmt 0 view .LVU1499
 5711 002a 0949     		ldr	r1, .L333+4
 5712              	.LVL376:
 384:MidiController.cpp ****     msg.data2 = 0;
 5713              		.loc 1 384 15 view .LVU1500
 5714 002c 4254     		strb	r2, [r0, r1]
ARM GAS  C:\Users\Marco\AppData\Local\Temp\ccVZoccs.s 			page 145


 385:MidiController.cpp ****     msg.hasData2 = false;
 5715              		.loc 1 385 5 is_stmt 1 view .LVU1501
 385:MidiController.cpp ****     msg.hasData2 = false;
 5716              		.loc 1 385 15 is_stmt 0 view .LVU1502
 5717 002e 094A     		ldr	r2, .L333+8
 5718              	.LVL377:
 385:MidiController.cpp ****     msg.hasData2 = false;
 5719              		.loc 1 385 15 view .LVU1503
 5720 0030 8454     		strb	r4, [r0, r2]
 386:MidiController.cpp ****     msg.timestamp = lastActivityTime_;
 5721              		.loc 1 386 5 is_stmt 1 view .LVU1504
 386:MidiController.cpp ****     msg.timestamp = lastActivityTime_;
 5722              		.loc 1 386 18 is_stmt 0 view .LVU1505
 5723 0032 0632     		adds	r2, r2, #6
 5724 0034 8454     		strb	r4, [r0, r2]
 387:MidiController.cpp ****     
 5725              		.loc 1 387 5 is_stmt 1 view .LVU1506
 387:MidiController.cpp ****     
 5726              		.loc 1 387 19 is_stmt 0 view .LVU1507
 5727 0036 043A     		subs	r2, r2, #4
 5728 0038 DCF8BC15 		ldr	r1, [ip, #1468]
 5729              	.LVL378:
 387:MidiController.cpp ****     
 5730              		.loc 1 387 19 view .LVU1508
 5731 003c 8150     		str	r1, [r0, r2]
 389:MidiController.cpp ****     queueCount_++;
 5732              		.loc 1 389 5 is_stmt 1 view .LVU1509
 389:MidiController.cpp ****     queueCount_++;
 5733              		.loc 1 389 16 is_stmt 0 view .LVU1510
 5734 003e 8CF8B535 		strb	r3, [ip, #1461]
 5735              	.LVL379:
 390:MidiController.cpp **** }
 5736              		.loc 1 390 5 is_stmt 1 view .LVU1511
 390:MidiController.cpp **** }
 5737              		.loc 1 390 16 is_stmt 0 view .LVU1512
 5738 0042 8CF8B6E5 		strb	lr, [ip, #1462]
 391:MidiController.cpp **** 
 5739              		.loc 1 391 1 view .LVU1513
 5740 0046 70BD     		pop	{r4, r5, r6, pc}
 5741              	.LVL380:
 5742              	.L330:
 5743              		.cfi_def_cfa_offset 0
 5744              		.cfi_restore 4
 5745              		.cfi_restore 5
 5746              		.cfi_restore 6
 5747              		.cfi_restore 14
 391:MidiController.cpp **** 
 5748              		.loc 1 391 1 view .LVU1514
 5749 0048 7047     		bx	lr
 5750              	.L334:
 5751 004a 00BF     		.align	2
 5752              	.L333:
 5753 004c B4220100 		.word	74420
 5754 0050 B5220100 		.word	74421
 5755 0054 B6220100 		.word	74422
 5756              		.cfi_endproc
 5757              	.LFE2602:
ARM GAS  C:\Users\Marco\AppData\Local\Temp\ccVZoccs.s 			page 146


 5759              		.section	.text._ZN14MidiController19ProcessMessageQueueEv,"ax",%progbits
 5760              		.align	1
 5761              		.p2align 2,,3
 5762              		.global	_ZN14MidiController19ProcessMessageQueueEv
 5763              		.syntax unified
 5764              		.thumb
 5765              		.thumb_func
 5766              		.fpu fpv5-d16
 5768              	_ZN14MidiController19ProcessMessageQueueEv:
 5769              	.LVL381:
 5770              	.LFB2603:
 393:MidiController.cpp ****     // Process all pending messages in the queue
 5771              		.loc 1 393 44 is_stmt 1 view -0
 5772              		.cfi_startproc
 5773              		@ args = 0, pretend = 0, frame = 8
 5774              		@ frame_needed = 0, uses_anonymous_args = 0
 395:MidiController.cpp ****         MidiMessage& msg = messageQueue_[queueHead_];
 5775              		.loc 1 395 5 view .LVU1516
 395:MidiController.cpp ****         MidiMessage& msg = messageQueue_[queueHead_];
 5776              		.loc 1 395 24 view .LVU1517
 393:MidiController.cpp ****     // Process all pending messages in the queue
 5777              		.loc 1 393 44 is_stmt 0 view .LVU1518
 5778 0000 70B5     		push	{r4, r5, r6, lr}
 5779              		.cfi_def_cfa_offset 16
 5780              		.cfi_offset 4, -16
 5781              		.cfi_offset 5, -12
 5782              		.cfi_offset 6, -8
 5783              		.cfi_offset 14, -4
 395:MidiController.cpp ****         MidiMessage& msg = messageQueue_[queueHead_];
 5784              		.loc 1 395 12 view .LVU1519
 5785 0002 00F59034 		add	r4, r0, #73728
 393:MidiController.cpp ****     // Process all pending messages in the queue
 5786              		.loc 1 393 44 view .LVU1520
 5787 0006 82B0     		sub	sp, sp, #8
 5788              		.cfi_def_cfa_offset 24
 395:MidiController.cpp ****         MidiMessage& msg = messageQueue_[queueHead_];
 5789              		.loc 1 395 24 view .LVU1521
 5790 0008 94F8B635 		ldrb	r3, [r4, #1462]	@ zero_extendqisi2
 5791 000c 002B     		cmp	r3, #0
 5792 000e 58D0     		beq	.L335
 5793 0010 0546     		mov	r5, r0
 5794              	.LBB1406:
 396:MidiController.cpp ****         
 5795              		.loc 1 396 42 view .LVU1522
 5796 0012 94F8B435 		ldrb	r3, [r4, #1460]	@ zero_extendqisi2
 5797 0016 33E0     		b	.L342
 5798              	.LVL382:
 5799              	.L361:
 399:MidiController.cpp ****         } else {
 5800              		.loc 1 399 13 is_stmt 1 view .LVU1523
 5801              	.LBB1407:
 5802              	.LBI1407:
 289:MidiController.cpp ****     if (!enabled_) return;
 5803              		.loc 1 289 6 view .LVU1524
 5804              	.LBB1408:
 290:MidiController.cpp ****     
 5805              		.loc 1 290 5 view .LVU1525
ARM GAS  C:\Users\Marco\AppData\Local\Temp\ccVZoccs.s 			page 147


 5806 0018 94F8AE22 		ldrb	r2, [r4, #686]	@ zero_extendqisi2
 5807 001c 22B3     		cbz	r2, .L338
 5808              	.LBE1408:
 5809              	.LBE1407:
 399:MidiController.cpp ****         } else {
 5810              		.loc 1 399 28 is_stmt 0 view .LVU1526
 5811 001e 2F4E     		ldr	r6, .L362
 5812 0020 2F48     		ldr	r0, .L362+4
 5813 0022 304A     		ldr	r2, .L362+8
 5814              	.LBB1442:
 5815              	.LBB1436:
 5816              	.LBB1409:
 5817              	.LBB1410:
 295:MidiController.cpp ****         if (usbConnected_) {
 5818              		.loc 1 295 9 view .LVU1527
 5819 0024 94F8AD32 		ldrb	r3, [r4, #685]	@ zero_extendqisi2
 5820              	.LVL383:
 295:MidiController.cpp ****         if (usbConnected_) {
 5821              		.loc 1 295 9 view .LVU1528
 5822              	.LBE1410:
 5823              	.LBE1409:
 5824              	.LBE1436:
 5825              	.LBE1442:
 399:MidiController.cpp ****         } else {
 5826              		.loc 1 399 28 view .LVU1529
 5827 0028 8E5D     		ldrb	r6, [r1, r6]	@ zero_extendqisi2
 5828 002a 085C     		ldrb	r0, [r1, r0]	@ zero_extendqisi2
 5829              	.LBB1443:
 5830              	.LBB1437:
 5831              	.LBB1431:
 5832              	.LBB1426:
 295:MidiController.cpp ****         if (usbConnected_) {
 5833              		.loc 1 295 5 view .LVU1530
 5834 002c 13F0FD0F 		tst	r3, #253
 5835              	.LBE1426:
 5836              	.LBE1431:
 5837              	.LBE1437:
 5838              	.LBE1443:
 399:MidiController.cpp ****         } else {
 5839              		.loc 1 399 28 view .LVU1531
 5840 0030 8A5C     		ldrb	r2, [r1, r2]	@ zero_extendqisi2
 5841              	.LVL384:
 5842              	.LBB1444:
 5843              	.LBB1438:
 5844              	.LBB1432:
 5845              	.LBI1409:
 289:MidiController.cpp ****     if (!enabled_) return;
 5846              		.loc 1 289 6 is_stmt 1 view .LVU1532
 5847              	.LBB1427:
 292:MidiController.cpp ****     
 5848              		.loc 1 292 5 view .LVU1533
 292:MidiController.cpp ****     
 5849              		.loc 1 292 49 is_stmt 0 view .LVU1534
 5850 0032 8DF80460 		strb	r6, [sp, #4]
 5851 0036 8DF80500 		strb	r0, [sp, #5]
 5852 003a 8DF80620 		strb	r2, [sp, #6]
 295:MidiController.cpp ****         if (usbConnected_) {
ARM GAS  C:\Users\Marco\AppData\Local\Temp\ccVZoccs.s 			page 148


 5853              		.loc 1 295 5 is_stmt 1 view .LVU1535
 5854 003e 03D1     		bne	.L339
 296:MidiController.cpp ****             SendViaUSB(midiBytes, 3);
 5855              		.loc 1 296 9 view .LVU1536
 5856 0040 94F8AF22 		ldrb	r2, [r4, #687]	@ zero_extendqisi2
 5857 0044 002A     		cmp	r2, #0
 5858 0046 3ED1     		bne	.L359
 5859              	.L339:
 302:MidiController.cpp ****         if (uartConnected_) {
 5860              		.loc 1 302 5 view .LVU1537
 5861 0048 013B     		subs	r3, r3, #1
 5862 004a 012B     		cmp	r3, #1
 5863 004c 2ED9     		bls	.L360
 5864              	.L340:
 308:MidiController.cpp ****     UpdateRunningStatus(status);
 5865              		.loc 1 308 5 view .LVU1538
 308:MidiController.cpp ****     UpdateRunningStatus(status);
 5866              		.loc 1 308 18 is_stmt 0 view .LVU1539
 5867 004e D4F8B835 		ldr	r3, [r4, #1464]
 5868              	.LBB1411:
 5869              	.LBB1412:
 5870              		.loc 1 496 20 view .LVU1540
 5871 0052 84F8C065 		strb	r6, [r4, #1472]
 5872              	.LBE1412:
 5873              	.LBE1411:
 308:MidiController.cpp ****     UpdateRunningStatus(status);
 5874              		.loc 1 308 18 view .LVU1541
 5875 0056 0133     		adds	r3, r3, #1
 5876 0058 C4F8B835 		str	r3, [r4, #1464]
 309:MidiController.cpp ****     lastActivityTime_ = daisy::System::GetNow();
 5877              		.loc 1 309 5 is_stmt 1 view .LVU1542
 5878              	.LVL385:
 5879              	.LBB1414:
 5880              	.LBI1411:
 495:MidiController.cpp ****     runningStatus_ = status;
 5881              		.loc 1 495 6 view .LVU1543
 5882              	.LBB1413:
 5883              		.loc 1 496 5 view .LVU1544
 5884              		.loc 1 496 5 is_stmt 0 view .LVU1545
 5885              	.LBE1413:
 5886              	.LBE1414:
 310:MidiController.cpp **** }
 5887              		.loc 1 310 5 is_stmt 1 view .LVU1546
 310:MidiController.cpp **** }
 5888              		.loc 1 310 46 is_stmt 0 view .LVU1547
 5889 005c FFF7FEFF 		bl	_ZN5daisy6System6GetNowEv
 5890              	.LVL386:
 5891              	.LBE1427:
 5892              	.LBE1432:
 5893              	.LBE1438:
 5894              	.LBE1444:
 405:MidiController.cpp ****         queueCount_--;
 5895              		.loc 1 405 23 view .LVU1548
 5896 0060 94F8B435 		ldrb	r3, [r4, #1460]	@ zero_extendqisi2
 5897              	.LBB1445:
 5898              	.LBB1439:
 5899              	.LBB1433:
ARM GAS  C:\Users\Marco\AppData\Local\Temp\ccVZoccs.s 			page 149


 5900              	.LBB1428:
 310:MidiController.cpp **** }
 5901              		.loc 1 310 23 view .LVU1549
 5902 0064 C4F8BC05 		str	r0, [r4, #1468]
 5903              	.LVL387:
 5904              	.L338:
 310:MidiController.cpp **** }
 5905              		.loc 1 310 23 view .LVU1550
 5906              	.LBE1428:
 5907              	.LBE1433:
 5908              	.LBE1439:
 5909              	.LBE1445:
 405:MidiController.cpp ****         queueCount_--;
 5910              		.loc 1 405 9 is_stmt 1 view .LVU1551
 406:MidiController.cpp ****     }
 5911              		.loc 1 406 20 is_stmt 0 view .LVU1552
 5912 0068 94F8B625 		ldrb	r2, [r4, #1462]	@ zero_extendqisi2
 405:MidiController.cpp ****         queueCount_--;
 5913              		.loc 1 405 34 view .LVU1553
 5914 006c 0133     		adds	r3, r3, #1
 5915              	.LVL388:
 406:MidiController.cpp ****     }
 5916              		.loc 1 406 20 view .LVU1554
 5917 006e 013A     		subs	r2, r2, #1
 405:MidiController.cpp ****         queueCount_--;
 5918              		.loc 1 405 20 view .LVU1555
 5919 0070 03F03F03 		and	r3, r3, #63
 5920              	.LVL389:
 406:MidiController.cpp ****     }
 5921              		.loc 1 406 20 view .LVU1556
 5922 0074 D2B2     		uxtb	r2, r2
 405:MidiController.cpp ****         queueCount_--;
 5923              		.loc 1 405 20 view .LVU1557
 5924 0076 84F8B435 		strb	r3, [r4, #1460]
 406:MidiController.cpp ****     }
 5925              		.loc 1 406 9 is_stmt 1 view .LVU1558
 406:MidiController.cpp ****     }
 5926              		.loc 1 406 20 is_stmt 0 view .LVU1559
 5927 007a 84F8B625 		strb	r2, [r4, #1462]
 5928              	.LBE1406:
 395:MidiController.cpp ****         MidiMessage& msg = messageQueue_[queueHead_];
 5929              		.loc 1 395 5 is_stmt 1 view .LVU1560
 395:MidiController.cpp ****         MidiMessage& msg = messageQueue_[queueHead_];
 5930              		.loc 1 395 24 view .LVU1561
 5931 007e 02B3     		cbz	r2, .L335
 5932              	.LVL390:
 5933              	.L342:
 5934              	.LBB1454:
 396:MidiController.cpp ****         
 5935              		.loc 1 396 9 view .LVU1562
 398:MidiController.cpp ****             SendMidiMessage(msg.status, msg.data1, msg.data2);
 5936              		.loc 1 398 17 is_stmt 0 view .LVU1563
 5937 0080 03EB4301 		add	r1, r3, r3, lsl #1
 5938 0084 184A     		ldr	r2, .L362+12
 5939              	.LVL391:
 398:MidiController.cpp ****             SendMidiMessage(msg.status, msg.data1, msg.data2);
 5940              		.loc 1 398 9 is_stmt 1 view .LVU1564
ARM GAS  C:\Users\Marco\AppData\Local\Temp\ccVZoccs.s 			page 150


 398:MidiController.cpp ****             SendMidiMessage(msg.status, msg.data1, msg.data2);
 5941              		.loc 1 398 17 is_stmt 0 view .LVU1565
 5942 0086 05EB8101 		add	r1, r5, r1, lsl #2
 398:MidiController.cpp ****             SendMidiMessage(msg.status, msg.data1, msg.data2);
 5943              		.loc 1 398 9 view .LVU1566
 5944 008a 8A5C     		ldrb	r2, [r1, r2]	@ zero_extendqisi2
 5945 008c 002A     		cmp	r2, #0
 5946 008e C3D1     		bne	.L361
 401:MidiController.cpp ****         }
 5947              		.loc 1 401 13 is_stmt 1 view .LVU1567
 5948              	.LVL392:
 5949              	.LBB1446:
 5950              	.LBI1446:
 313:MidiController.cpp ****     if (!enabled_) return;
 5951              		.loc 1 313 6 view .LVU1568
 5952              	.LBB1447:
 314:MidiController.cpp ****     
 5953              		.loc 1 314 5 view .LVU1569
 5954 0090 94F8AE22 		ldrb	r2, [r4, #686]	@ zero_extendqisi2
 5955 0094 002A     		cmp	r2, #0
 5956 0096 E7D0     		beq	.L338
 5957              	.LBE1447:
 5958              	.LBE1446:
 401:MidiController.cpp ****         }
 5959              		.loc 1 401 28 is_stmt 0 view .LVU1570
 5960 0098 104B     		ldr	r3, .L362
 5961              	.LVL393:
 5962              	.LBB1450:
 5963              	.LBB1448:
 401:MidiController.cpp ****         }
 5964              		.loc 1 401 28 view .LVU1571
 5965 009a 2846     		mov	r0, r5
 5966              	.LBE1448:
 5967              	.LBE1450:
 5968 009c 104A     		ldr	r2, .L362+4
 5969              	.LBB1451:
 5970              	.LBB1449:
 5971 009e 8A5C     		ldrb	r2, [r1, r2]	@ zero_extendqisi2
 5972 00a0 C95C     		ldrb	r1, [r1, r3]	@ zero_extendqisi2
 5973 00a2 FFF7FEFF 		bl	_ZN14MidiController15SendMidiMessageEhh.part.0
 5974              	.LVL394:
 5975              	.LBE1449:
 5976              	.LBE1451:
 405:MidiController.cpp ****         queueCount_--;
 5977              		.loc 1 405 23 view .LVU1572
 5978 00a6 94F8B435 		ldrb	r3, [r4, #1460]	@ zero_extendqisi2
 5979 00aa DDE7     		b	.L338
 5980              	.LVL395:
 5981              	.L360:
 5982              	.LBB1452:
 5983              	.LBB1440:
 5984              	.LBB1434:
 5985              	.LBB1429:
 303:MidiController.cpp ****             SendViaUART(midiBytes, 3);
 5986              		.loc 1 303 9 is_stmt 1 view .LVU1573
 5987 00ac 94F8B032 		ldrb	r3, [r4, #688]	@ zero_extendqisi2
 5988 00b0 002B     		cmp	r3, #0
ARM GAS  C:\Users\Marco\AppData\Local\Temp\ccVZoccs.s 			page 151


 5989 00b2 CCD0     		beq	.L340
 304:MidiController.cpp ****         }
 5990              		.loc 1 304 13 view .LVU1574
 5991              	.LVL396:
 5992              	.LBB1415:
 5993              	.LBI1415:
 419:MidiController.cpp ****     uartMidi_.SendMessage(data, length);
 5994              		.loc 1 419 6 view .LVU1575
 5995              	.LBB1416:
 420:MidiController.cpp **** }
 5996              		.loc 1 420 5 view .LVU1576
 5997              	.LBB1417:
 5998              	.LBI1417:
 208:../DaisyExamples/libDaisy/src/hid/midi.h ****     {
 5999              		.loc 2 208 10 view .LVU1577
 6000              	.LBB1418:
 6001              	.LBI1418:
 106:../DaisyExamples/libDaisy/src/hid/midi.h **** 
 6002              		.loc 2 106 17 view .LVU1578
 6003              	.LBB1419:
 106:../DaisyExamples/libDaisy/src/hid/midi.h **** 
 6004              		.loc 2 106 50 view .LVU1579
 106:../DaisyExamples/libDaisy/src/hid/midi.h **** 
 6005              		.loc 2 106 62 is_stmt 0 view .LVU1580
 6006 00b4 0322     		movs	r2, #3
 6007 00b6 01A9     		add	r1, sp, #4
 6008              	.LVL397:
 106:../DaisyExamples/libDaisy/src/hid/midi.h **** 
 6009              		.loc 2 106 62 view .LVU1581
 6010 00b8 05F11800 		add	r0, r5, #24
 6011 00bc FFF7FEFF 		bl	_ZN5daisy11UartHandler6PollTxEPhj
 6012              	.LVL398:
 106:../DaisyExamples/libDaisy/src/hid/midi.h **** 
 6013              		.loc 2 106 62 view .LVU1582
 6014              	.LBE1419:
 6015              	.LBE1418:
 6016              	.LBE1417:
 421:MidiController.cpp **** 
 6017              		.loc 1 421 1 view .LVU1583
 6018 00c0 C5E7     		b	.L340
 6019              	.LVL399:
 6020              	.L335:
 421:MidiController.cpp **** 
 6021              		.loc 1 421 1 view .LVU1584
 6022              	.LBE1416:
 6023              	.LBE1415:
 6024              	.LBE1429:
 6025              	.LBE1434:
 6026              	.LBE1440:
 6027              	.LBE1452:
 6028              	.LBE1454:
 408:MidiController.cpp **** 
 6029              		.loc 1 408 1 view .LVU1585
 6030 00c2 02B0     		add	sp, sp, #8
 6031              		.cfi_remember_state
 6032              		.cfi_def_cfa_offset 16
 6033              		@ sp needed
ARM GAS  C:\Users\Marco\AppData\Local\Temp\ccVZoccs.s 			page 152


 6034 00c4 70BD     		pop	{r4, r5, r6, pc}
 6035              	.LVL400:
 6036              	.L359:
 6037              		.cfi_restore_state
 6038              	.LBB1455:
 6039              	.LBB1453:
 6040              	.LBB1441:
 6041              	.LBB1435:
 6042              	.LBB1430:
 297:MidiController.cpp ****         }
 6043              		.loc 1 297 13 is_stmt 1 view .LVU1586
 6044              	.LBB1420:
 6045              	.LBI1420:
 414:MidiController.cpp ****     usbMidi_.SendMessage(data, length);
 6046              		.loc 1 414 6 view .LVU1587
 6047              	.LBB1421:
 415:MidiController.cpp ****     // Note: SendMessage returns void, no error checking available
 6048              		.loc 1 415 5 view .LVU1588
 6049              	.LBB1422:
 6050              	.LBI1422:
 208:../DaisyExamples/libDaisy/src/hid/midi.h ****     {
 6051              		.loc 2 208 10 view .LVU1589
 6052              	.LBB1423:
 6053              		.loc 2 210 22 is_stmt 0 view .LVU1590
 6054 00c6 49F26C10 		movw	r0, #37228
 6055 00ca 0322     		movs	r2, #3
 6056 00cc 01A9     		add	r1, sp, #4
 6057              	.LVL401:
 6058              		.loc 2 210 22 view .LVU1591
 6059 00ce 2844     		add	r0, r0, r5
 6060 00d0 FFF7FEFF 		bl	_ZN5daisy16MidiUsbTransport2TxEPhj
 6061              	.LVL402:
 6062              		.loc 2 210 22 view .LVU1592
 6063              	.LBE1423:
 6064              	.LBE1422:
 6065              	.LBE1421:
 6066              	.LBE1420:
 302:MidiController.cpp ****         if (uartConnected_) {
 6067              		.loc 1 302 9 view .LVU1593
 6068 00d4 94F8AD32 		ldrb	r3, [r4, #685]	@ zero_extendqisi2
 6069              	.LBB1425:
 6070              	.LBB1424:
 417:MidiController.cpp **** 
 6071              		.loc 1 417 1 view .LVU1594
 6072 00d8 B6E7     		b	.L339
 6073              	.L363:
 6074 00da 00BF     		.align	2
 6075              	.L362:
 6076 00dc B4220100 		.word	74420
 6077 00e0 B5220100 		.word	74421
 6078 00e4 B6220100 		.word	74422
 6079 00e8 BC220100 		.word	74428
 6080              	.LBE1424:
 6081              	.LBE1425:
 6082              	.LBE1430:
 6083              	.LBE1435:
 6084              	.LBE1441:
ARM GAS  C:\Users\Marco\AppData\Local\Temp\ccVZoccs.s 			page 153


 6085              	.LBE1453:
 6086              	.LBE1455:
 6087              		.cfi_endproc
 6088              	.LFE2603:
 6090              		.section	.text._ZN14MidiController6UpdateEv,"ax",%progbits
 6091              		.align	1
 6092              		.p2align 2,,3
 6093              		.global	_ZN14MidiController6UpdateEv
 6094              		.syntax unified
 6095              		.thumb
 6096              		.thumb_func
 6097              		.fpu fpv5-d16
 6099              	_ZN14MidiController6UpdateEv:
 6100              	.LVL403:
 6101              	.LFB2567:
  43:MidiController.cpp ****     // Update connection status
 6102              		.loc 1 43 31 is_stmt 1 view -0
 6103              		.cfi_startproc
 6104              		@ args = 0, pretend = 0, frame = 0
 6105              		@ frame_needed = 0, uses_anonymous_args = 0
  45:MidiController.cpp ****     CheckUARTConnection();
 6106              		.loc 1 45 5 view .LVU1596
 6107              	.LBB1456:
 6108              	.LBI1456:
 437:MidiController.cpp ****     // Check if USB device is connected
 6109              		.loc 1 437 6 view .LVU1597
 6110              	.LBB1457:
 441:MidiController.cpp **** }
 6111              		.loc 1 441 5 view .LVU1598
 6112              	.LBE1457:
 6113              	.LBE1456:
  43:MidiController.cpp ****     // Update connection status
 6114              		.loc 1 43 31 is_stmt 0 view .LVU1599
 6115 0000 10B5     		push	{r4, lr}
 6116              		.cfi_def_cfa_offset 8
 6117              		.cfi_offset 4, -8
 6118              		.cfi_offset 14, -4
 6119              	.LBB1459:
 6120              	.LBB1458:
 441:MidiController.cpp **** }
 6121              		.loc 1 441 19 view .LVU1600
 6122 0002 0123     		movs	r3, #1
 6123 0004 00F59034 		add	r4, r0, #73728
 6124 0008 84F8AF32 		strb	r3, [r4, #687]
 6125              	.LVL404:
 441:MidiController.cpp **** }
 6126              		.loc 1 441 19 view .LVU1601
 6127              	.LBE1458:
 6128              	.LBE1459:
  46:MidiController.cpp ****     
 6129              		.loc 1 46 5 is_stmt 1 view .LVU1602
 6130              	.LBB1460:
 6131              	.LBI1460:
 444:MidiController.cpp ****     // Check if UART device is connected
 6132              		.loc 1 444 6 view .LVU1603
 6133              	.LBB1461:
 447:MidiController.cpp **** }
ARM GAS  C:\Users\Marco\AppData\Local\Temp\ccVZoccs.s 			page 154


 6134              		.loc 1 447 5 view .LVU1604
 447:MidiController.cpp **** }
 6135              		.loc 1 447 20 is_stmt 0 view .LVU1605
 6136 000c 84F8B032 		strb	r3, [r4, #688]
 6137              	.LVL405:
 447:MidiController.cpp **** }
 6138              		.loc 1 447 20 view .LVU1606
 6139              	.LBE1461:
 6140              	.LBE1460:
  49:MidiController.cpp ****     
 6141              		.loc 1 49 5 is_stmt 1 view .LVU1607
  49:MidiController.cpp ****     
 6142              		.loc 1 49 24 is_stmt 0 view .LVU1608
 6143 0010 FFF7FEFF 		bl	_ZN14MidiController19ProcessMessageQueueEv
 6144              	.LVL406:
  52:MidiController.cpp **** }
 6145              		.loc 1 52 5 is_stmt 1 view .LVU1609
  52:MidiController.cpp **** }
 6146              		.loc 1 52 46 is_stmt 0 view .LVU1610
 6147 0014 FFF7FEFF 		bl	_ZN5daisy6System6GetNowEv
 6148              	.LVL407:
  52:MidiController.cpp **** }
 6149              		.loc 1 52 23 view .LVU1611
 6150 0018 C4F8BC05 		str	r0, [r4, #1468]
  53:MidiController.cpp **** 
 6151              		.loc 1 53 1 view .LVU1612
 6152 001c 10BD     		pop	{r4, pc}
  53:MidiController.cpp **** 
 6153              		.loc 1 53 1 view .LVU1613
 6154              		.cfi_endproc
 6155              	.LFE2567:
 6157 001e 00BF     		.section	.text._ZN14MidiController17FlushMessageQueueEv,"ax",%progbits
 6158              		.align	1
 6159              		.p2align 2,,3
 6160              		.global	_ZN14MidiController17FlushMessageQueueEv
 6161              		.syntax unified
 6162              		.thumb
 6163              		.thumb_func
 6164              		.fpu fpv5-d16
 6166              	_ZN14MidiController17FlushMessageQueueEv:
 6167              	.LVL408:
 6168              	.LFB2581:
 160:MidiController.cpp ****     // Process all pending messages immediately
 6169              		.loc 1 160 42 is_stmt 1 view -0
 6170              		.cfi_startproc
 6171              		@ args = 0, pretend = 0, frame = 0
 6172              		@ frame_needed = 0, uses_anonymous_args = 0
 6173              		@ link register save eliminated.
 162:MidiController.cpp **** }
 6174              		.loc 1 162 5 view .LVU1615
 162:MidiController.cpp **** }
 6175              		.loc 1 162 24 is_stmt 0 view .LVU1616
 6176 0000 FFF7FEBF 		b	_ZN14MidiController19ProcessMessageQueueEv
 6177              	.LVL409:
 162:MidiController.cpp **** }
 6178              		.loc 1 162 24 view .LVU1617
 6179              		.cfi_endproc
ARM GAS  C:\Users\Marco\AppData\Local\Temp\ccVZoccs.s 			page 155


 6180              	.LFE2581:
 6182              		.section	.text._ZN14MidiController11IsQueueFullEv,"ax",%progbits
 6183              		.align	1
 6184              		.p2align 2,,3
 6185              		.global	_ZN14MidiController11IsQueueFullEv
 6186              		.syntax unified
 6187              		.thumb
 6188              		.thumb_func
 6189              		.fpu fpv5-d16
 6191              	_ZN14MidiController11IsQueueFullEv:
 6192              	.LVL410:
 6193              	.LFB2604:
 410:MidiController.cpp ****     return queueCount_ >= MESSAGE_QUEUE_SIZE;
 6194              		.loc 1 410 36 is_stmt 1 view -0
 6195              		.cfi_startproc
 6196              		@ args = 0, pretend = 0, frame = 0
 6197              		@ frame_needed = 0, uses_anonymous_args = 0
 6198              		@ link register save eliminated.
 411:MidiController.cpp **** }
 6199              		.loc 1 411 5 view .LVU1619
 411:MidiController.cpp **** }
 6200              		.loc 1 411 12 is_stmt 0 view .LVU1620
 6201 0000 00F59030 		add	r0, r0, #73728
 6202              	.LVL411:
 411:MidiController.cpp **** }
 6203              		.loc 1 411 27 view .LVU1621
 6204 0004 90F8B605 		ldrb	r0, [r0, #1462]	@ zero_extendqisi2
 6205              	.LVL412:
 412:MidiController.cpp **** 
 6206              		.loc 1 412 1 view .LVU1622
 6207 0008 3F28     		cmp	r0, #63
 6208 000a 94BF     		ite	ls
 6209 000c 0020     		movls	r0, #0
 6210 000e 0120     		movhi	r0, #1
 6211 0010 7047     		bx	lr
 6212              		.cfi_endproc
 6213              	.LFE2604:
 6215 0012 00BF     		.section	.text._ZN14MidiController10SendViaUSBEPhj,"ax",%progbits
 6216              		.align	1
 6217              		.p2align 2,,3
 6218              		.global	_ZN14MidiController10SendViaUSBEPhj
 6219              		.syntax unified
 6220              		.thumb
 6221              		.thumb_func
 6222              		.fpu fpv5-d16
 6224              	_ZN14MidiController10SendViaUSBEPhj:
 6225              	.LVL413:
 6226              	.LFB2605:
 414:MidiController.cpp ****     usbMidi_.SendMessage(data, length);
 6227              		.loc 1 414 63 is_stmt 1 view -0
 6228              		.cfi_startproc
 6229              		@ args = 0, pretend = 0, frame = 0
 6230              		@ frame_needed = 0, uses_anonymous_args = 0
 6231              		@ link register save eliminated.
 415:MidiController.cpp ****     // Note: SendMessage returns void, no error checking available
 6232              		.loc 1 415 5 view .LVU1624
 414:MidiController.cpp ****     usbMidi_.SendMessage(data, length);
ARM GAS  C:\Users\Marco\AppData\Local\Temp\ccVZoccs.s 			page 156


 6233              		.loc 1 414 63 is_stmt 0 view .LVU1625
 6234 0000 0346     		mov	r3, r0
 6235              	.LVL414:
 6236              	.LBB1462:
 6237              	.LBI1462:
 208:../DaisyExamples/libDaisy/src/hid/midi.h ****     {
 6238              		.loc 2 208 10 is_stmt 1 view .LVU1626
 6239              	.LBB1463:
 6240              		.loc 2 210 22 is_stmt 0 view .LVU1627
 6241 0002 49F26C10 		movw	r0, #37228
 6242              	.LVL415:
 6243              		.loc 2 210 22 view .LVU1628
 6244 0006 1844     		add	r0, r0, r3
 6245 0008 FFF7FEBF 		b	_ZN5daisy16MidiUsbTransport2TxEPhj
 6246              	.LVL416:
 6247              		.loc 2 210 22 view .LVU1629
 6248              	.LBE1463:
 6249              	.LBE1462:
 6250              		.cfi_endproc
 6251              	.LFE2605:
 6253              		.section	.text._ZN14MidiController11SendViaUARTEPhj,"ax",%progbits
 6254              		.align	1
 6255              		.p2align 2,,3
 6256              		.global	_ZN14MidiController11SendViaUARTEPhj
 6257              		.syntax unified
 6258              		.thumb
 6259              		.thumb_func
 6260              		.fpu fpv5-d16
 6262              	_ZN14MidiController11SendViaUARTEPhj:
 6263              	.LVL417:
 6264              	.LFB2606:
 419:MidiController.cpp ****     uartMidi_.SendMessage(data, length);
 6265              		.loc 1 419 64 is_stmt 1 view -0
 6266              		.cfi_startproc
 6267              		@ args = 0, pretend = 0, frame = 0
 6268              		@ frame_needed = 0, uses_anonymous_args = 0
 6269              		@ link register save eliminated.
 420:MidiController.cpp **** }
 6270              		.loc 1 420 5 view .LVU1631
 6271              	.LBB1464:
 6272              	.LBI1464:
 208:../DaisyExamples/libDaisy/src/hid/midi.h ****     {
 6273              		.loc 2 208 10 view .LVU1632
 6274              	.LBB1465:
 6275              	.LBI1465:
 106:../DaisyExamples/libDaisy/src/hid/midi.h **** 
 6276              		.loc 2 106 17 view .LVU1633
 6277              	.LBB1466:
 106:../DaisyExamples/libDaisy/src/hid/midi.h **** 
 6278              		.loc 2 106 50 view .LVU1634
 106:../DaisyExamples/libDaisy/src/hid/midi.h **** 
 6279              		.loc 2 106 62 is_stmt 0 view .LVU1635
 6280 0000 1830     		adds	r0, r0, #24
 6281              	.LVL418:
 106:../DaisyExamples/libDaisy/src/hid/midi.h **** 
 6282              		.loc 2 106 62 view .LVU1636
 6283 0002 FFF7FEBF 		b	_ZN5daisy11UartHandler6PollTxEPhj
ARM GAS  C:\Users\Marco\AppData\Local\Temp\ccVZoccs.s 			page 157


 6284              	.LVL419:
 106:../DaisyExamples/libDaisy/src/hid/midi.h **** 
 6285              		.loc 2 106 62 view .LVU1637
 6286              	.LBE1466:
 6287              	.LBE1465:
 6288              	.LBE1464:
 6289              		.cfi_endproc
 6290              	.LFE2606:
 6292 0006 00BF     		.section	.text._ZN14MidiController13InitializeUSBEv,"ax",%progbits
 6293              		.align	1
 6294              		.p2align 2,,3
 6295              		.global	_ZN14MidiController13InitializeUSBEv
 6296              		.syntax unified
 6297              		.thumb
 6298              		.thumb_func
 6299              		.fpu fpv5-d16
 6301              	_ZN14MidiController13InitializeUSBEv:
 6302              	.LVL420:
 6303              	.LFB2607:
 423:MidiController.cpp ****     daisy::MidiUsbHandler::Config usbConfig;
 6304              		.loc 1 423 38 is_stmt 1 view -0
 6305              		.cfi_startproc
 6306              		@ args = 0, pretend = 0, frame = 0
 6307              		@ frame_needed = 0, uses_anonymous_args = 0
 424:MidiController.cpp ****     usbConfig.transport_config.periph = daisy::MidiUsbTransport::Config::INTERNAL;
 6308              		.loc 1 424 5 view .LVU1639
 6309              	.LBB1479:
 6310              	.LBI1479:
 158:../DaisyExamples/libDaisy/src/hid/midi.h ****     {
 6311              		.loc 2 158 12 view .LVU1640
 6312              	.LBB1480:
 6313              	.LBI1480:
  43:../DaisyExamples/libDaisy/src/hid/usb_midi.h ****     };
 6314              		.loc 5 43 9 view .LVU1641
  43:../DaisyExamples/libDaisy/src/hid/usb_midi.h ****     };
 6315              		.loc 5 43 9 is_stmt 0 view .LVU1642
 6316              	.LBE1480:
 6317              	.LBE1479:
 425:MidiController.cpp ****     usbMidi_.Init(usbConfig);
 6318              		.loc 1 425 5 is_stmt 1 view .LVU1643
 426:MidiController.cpp ****     usbConnected_ = true; // Assume connected for now
 6319              		.loc 1 426 5 view .LVU1644
 423:MidiController.cpp ****     daisy::MidiUsbHandler::Config usbConfig;
 6320              		.loc 1 423 38 is_stmt 0 view .LVU1645
 6321 0000 38B5     		push	{r3, r4, r5, lr}
 6322              		.cfi_def_cfa_offset 16
 6323              		.cfi_offset 3, -16
 6324              		.cfi_offset 4, -12
 6325              		.cfi_offset 5, -8
 6326              		.cfi_offset 14, -4
 6327              	.LBB1481:
 6328              	.LBB1482:
 169:../DaisyExamples/libDaisy/src/hid/midi.h ****         parser_.Init();
 6329              		.loc 2 169 24 view .LVU1646
 6330 0002 49F26815 		movw	r5, #37224
 168:../DaisyExamples/libDaisy/src/hid/midi.h ****         transport_.Init(config_.transport_config);
 6331              		.loc 2 168 9 view .LVU1647
ARM GAS  C:\Users\Marco\AppData\Local\Temp\ccVZoccs.s 			page 158


 6332 0006 00F51043 		add	r3, r0, #36864
 6333 000a 4FF44072 		mov	r2, #768
 6334              	.LBE1482:
 6335              	.LBE1481:
 423:MidiController.cpp ****     daisy::MidiUsbHandler::Config usbConfig;
 6336              		.loc 1 423 38 view .LVU1648
 6337 000e 0446     		mov	r4, r0
 6338              	.LVL421:
 6339              	.LBB1487:
 6340              	.LBI1481:
 166:../DaisyExamples/libDaisy/src/hid/midi.h ****     {
 6341              		.loc 2 166 10 is_stmt 1 view .LVU1649
 6342              	.LBB1485:
 169:../DaisyExamples/libDaisy/src/hid/midi.h ****         parser_.Init();
 6343              		.loc 2 169 24 is_stmt 0 view .LVU1650
 6344 0010 0544     		add	r5, r5, r0
 6345              	.LVL422:
 168:../DaisyExamples/libDaisy/src/hid/midi.h ****         transport_.Init(config_.transport_config);
 6346              		.loc 2 168 9 view .LVU1651
 6347 0012 A3F86821 		strh	r2, [r3, #360]	@ movhi
 6348              	.LBE1485:
 6349              	.LBE1487:
 427:MidiController.cpp **** }
 6350              		.loc 1 427 19 view .LVU1652
 6351 0016 04F59034 		add	r4, r4, #73728
 6352              	.LBB1488:
 6353              	.LBB1486:
 169:../DaisyExamples/libDaisy/src/hid/midi.h ****         parser_.Init();
 6354              		.loc 2 169 24 view .LVU1653
 6355 001a D3F86811 		ldr	r1, [r3, #360]
 6356 001e 281D     		adds	r0, r5, #4
 6357              	.LVL423:
 169:../DaisyExamples/libDaisy/src/hid/midi.h ****         parser_.Init();
 6358              		.loc 2 169 24 view .LVU1654
 6359 0020 FFF7FEFF 		bl	_ZN5daisy16MidiUsbTransport4InitENS0_6ConfigE
 6360              	.LVL424:
 6361              	.LBB1483:
 6362              	.LBI1483:
  20:../DaisyExamples/libDaisy/src/hid/midi_parser.h **** 
  21:../DaisyExamples/libDaisy/src/hid/midi_parser.h ****     inline void Init() { Reset(); }
 6363              		.loc 6 21 17 is_stmt 1 view .LVU1655
 6364              	.LBB1484:
 6365              		.loc 6 21 26 view .LVU1656
 6366              		.loc 6 21 31 is_stmt 0 view .LVU1657
 6367 0024 05F10800 		add	r0, r5, #8
 6368 0028 FFF7FEFF 		bl	_ZN5daisy10MidiParser5ResetEv
 6369              	.LVL425:
 6370              		.loc 6 21 31 view .LVU1658
 6371              	.LBE1484:
 6372              	.LBE1483:
 6373              	.LBE1486:
 6374              	.LBE1488:
 427:MidiController.cpp **** }
 6375              		.loc 1 427 5 is_stmt 1 view .LVU1659
 427:MidiController.cpp **** }
 6376              		.loc 1 427 19 is_stmt 0 view .LVU1660
 6377 002c 0123     		movs	r3, #1
ARM GAS  C:\Users\Marco\AppData\Local\Temp\ccVZoccs.s 			page 159


 6378 002e 84F8AF32 		strb	r3, [r4, #687]
 6379              	.LVL426:
 428:MidiController.cpp **** 
 6380              		.loc 1 428 1 view .LVU1661
 6381 0032 38BD     		pop	{r3, r4, r5, pc}
 428:MidiController.cpp **** 
 6382              		.loc 1 428 1 view .LVU1662
 6383              		.cfi_endproc
 6384              	.LFE2607:
 6386              		.section	.text._ZN14MidiController14InitializeUARTEv,"ax",%progbits
 6387              		.align	1
 6388              		.p2align 2,,3
 6389              		.global	_ZN14MidiController14InitializeUARTEv
 6390              		.syntax unified
 6391              		.thumb
 6392              		.thumb_func
 6393              		.fpu fpv5-d16
 6395              	_ZN14MidiController14InitializeUARTEv:
 6396              	.LVL427:
 6397              	.LFB2611:
 430:MidiController.cpp ****     daisy::MidiUartHandler::Config uartConfig;
 6398              		.loc 1 430 39 is_stmt 1 view -0
 6399              		.cfi_startproc
 6400              		@ args = 0, pretend = 0, frame = 80
 6401              		@ frame_needed = 0, uses_anonymous_args = 0
 431:MidiController.cpp ****     // Use default UART configuration - pins D14/D15 for UART1
 6402              		.loc 1 431 5 view .LVU1664
 430:MidiController.cpp ****     daisy::MidiUartHandler::Config uartConfig;
 6403              		.loc 1 430 39 is_stmt 0 view .LVU1665
 6404 0000 2DE9F041 		push	{r4, r5, r6, r7, r8, lr}
 6405              		.cfi_def_cfa_offset 24
 6406              		.cfi_offset 4, -24
 6407              		.cfi_offset 5, -20
 6408              		.cfi_offset 6, -16
 6409              		.cfi_offset 7, -12
 6410              		.cfi_offset 8, -8
 6411              		.cfi_offset 14, -4
 6412 0004 94B0     		sub	sp, sp, #80
 6413              		.cfi_def_cfa_offset 104
 6414              	.LVL428:
 6415              	.LBB1504:
 6416              	.LBI1504:
 158:../DaisyExamples/libDaisy/src/hid/midi.h ****     {
 6417              		.loc 2 158 12 is_stmt 1 view .LVU1666
 6418              	.LBE1504:
 430:MidiController.cpp ****     daisy::MidiUartHandler::Config uartConfig;
 6419              		.loc 1 430 39 is_stmt 0 view .LVU1667
 6420 0006 0446     		mov	r4, r0
 6421              	.LBB1507:
 6422              	.LBB1505:
 158:../DaisyExamples/libDaisy/src/hid/midi.h ****     {
 6423              		.loc 2 158 12 view .LVU1668
 6424 0008 01AD     		add	r5, sp, #4
 6425              	.LVL429:
 158:../DaisyExamples/libDaisy/src/hid/midi.h ****     {
 6426              		.loc 2 158 12 view .LVU1669
 6427              	.LBE1505:
ARM GAS  C:\Users\Marco\AppData\Local\Temp\ccVZoccs.s 			page 160


 6428              	.LBE1507:
 6429              	.LBB1508:
 6430              	.LBB1509:
 169:../DaisyExamples/libDaisy/src/hid/midi.h ****         parser_.Init();
 6431              		.loc 2 169 24 view .LVU1670
 6432 000a 04F11808 		add	r8, r4, #24
 6433              	.LBE1509:
 6434              	.LBE1508:
 6435              	.LBB1527:
 6436              	.LBB1506:
 158:../DaisyExamples/libDaisy/src/hid/midi.h ****     {
 6437              		.loc 2 158 12 view .LVU1671
 6438 000e 2846     		mov	r0, r5
 6439              	.LVL430:
 158:../DaisyExamples/libDaisy/src/hid/midi.h ****     {
 6440              		.loc 2 158 12 view .LVU1672
 6441 0010 FFF7FEFF 		bl	_ZN5daisy17MidiUartTransport6ConfigC1Ev
 6442              	.LVL431:
 158:../DaisyExamples/libDaisy/src/hid/midi.h ****     {
 6443              		.loc 2 158 12 view .LVU1673
 6444              	.LBE1506:
 6445              	.LBE1527:
 433:MidiController.cpp ****     uartConnected_ = true; // Assume connected for now
 6446              		.loc 1 433 5 is_stmt 1 view .LVU1674
 433:MidiController.cpp ****     uartConnected_ = true; // Assume connected for now
 6447              		.loc 1 433 5 is_stmt 0 view .LVU1675
 6448 0014 0DF1140E 		add	lr, sp, #20
 6449              	.LBB1528:
 6450              	.LBB1525:
 168:../DaisyExamples/libDaisy/src/hid/midi.h ****         transport_.Init(config_.transport_config);
 6451              		.loc 2 168 9 view .LVU1676
 6452 0018 04F1080C 		add	ip, r4, #8
 6453              	.LVL432:
 168:../DaisyExamples/libDaisy/src/hid/midi.h ****         transport_.Init(config_.transport_config);
 6454              		.loc 2 168 9 view .LVU1677
 6455 001c 95E80F00 		ldm	r5, {r0, r1, r2, r3}
 6456 0020 8CE80F00 		stm	ip, {r0, r1, r2, r3}
 6457 0024 8EE80F00 		stm	lr, {r0, r1, r2, r3}
 6458              	.LBE1525:
 6459              	.LBI1508:
 166:../DaisyExamples/libDaisy/src/hid/midi.h ****     {
 6460              		.loc 2 166 10 is_stmt 1 view .LVU1678
 6461              	.LVL433:
 6462              	.LBB1526:
 6463              	.LBB1510:
 6464              	.LBB1511:
 6465              	.LBB1512:
 6466              	.LBB1513:
 6467              	.LBB1514:
  79:../DaisyExamples/libDaisy/src/per/uart.h ****             parity     = Parity::NONE;
 6468              		.loc 4 79 24 is_stmt 0 view .LVU1679
 6469 0028 0123     		movs	r3, #1
  80:../DaisyExamples/libDaisy/src/per/uart.h ****             wordlength = WordLength::BITS_8;
 6470              		.loc 4 80 24 view .LVU1680
 6471 002a 4FF0000E 		mov	lr, #0
 6472 002e 09AD     		add	r5, sp, #36
  79:../DaisyExamples/libDaisy/src/per/uart.h ****             parity     = Parity::NONE;
ARM GAS  C:\Users\Marco\AppData\Local\Temp\ccVZoccs.s 			page 161


 6473              		.loc 4 79 24 view .LVU1681
 6474 0030 0F93     		str	r3, [sp, #60]
  81:../DaisyExamples/libDaisy/src/per/uart.h ****             baudrate   = 31250;
 6475              		.loc 4 81 24 view .LVU1682
 6476 0032 1293     		str	r3, [sp, #72]
  82:../DaisyExamples/libDaisy/src/per/uart.h ****         }
 6477              		.loc 4 82 24 view .LVU1683
 6478 0034 47F61223 		movw	r3, #31250
 6479 0038 1393     		str	r3, [sp, #76]
  80:../DaisyExamples/libDaisy/src/per/uart.h ****             wordlength = WordLength::BITS_8;
 6480              		.loc 4 80 24 view .LVU1684
 6481 003a 0223     		movs	r3, #2
 6482 003c CDE910E3 		strd	lr, r3, [sp, #64]
 6483 0040 9CE80F00 		ldm	ip, {r0, r1, r2, r3}
 6484 0044 D4E90476 		ldrd	r7, r6, [r4, #16]
 6485              	.LVL434:
  80:../DaisyExamples/libDaisy/src/per/uart.h ****             wordlength = WordLength::BITS_8;
 6486              		.loc 4 80 24 view .LVU1685
 6487              	.LBE1514:
 6488              	.LBE1513:
 6489              	.LBE1512:
 6490              	.LBE1511:
 6491              	.LBI1510:
  62:../DaisyExamples/libDaisy/src/hid/midi.h ****     {
 6492              		.loc 2 62 17 is_stmt 1 view .LVU1686
 6493              	.LBB1522:
  64:../DaisyExamples/libDaisy/src/hid/midi.h **** 
 6494              		.loc 2 64 9 view .LVU1687
 6495              	.LBB1517:
 6496              	.LBI1512:
  76:../DaisyExamples/libDaisy/src/per/uart.h ****         {
 6497              		.loc 4 76 9 view .LVU1688
 6498              	.LBB1516:
 6499              	.LBB1515:
  79:../DaisyExamples/libDaisy/src/per/uart.h ****             parity     = Parity::NONE;
 6500              		.loc 4 79 13 view .LVU1689
  80:../DaisyExamples/libDaisy/src/per/uart.h ****             wordlength = WordLength::BITS_8;
 6501              		.loc 4 80 13 view .LVU1690
  81:../DaisyExamples/libDaisy/src/per/uart.h ****             baudrate   = 31250;
 6502              		.loc 4 81 13 view .LVU1691
  82:../DaisyExamples/libDaisy/src/per/uart.h ****         }
 6503              		.loc 4 82 13 view .LVU1692
  82:../DaisyExamples/libDaisy/src/per/uart.h ****         }
 6504              		.loc 4 82 13 is_stmt 0 view .LVU1693
 6505              	.LBE1515:
 6506              	.LBE1516:
 6507              	.LBE1517:
  67:../DaisyExamples/libDaisy/src/hid/midi.h ****         uart_config.stopbits   = UartHandler::Config::StopBits::BITS_1;
 6508              		.loc 2 67 9 is_stmt 1 view .LVU1694
  68:../DaisyExamples/libDaisy/src/hid/midi.h ****         uart_config.parity     = UartHandler::Config::Parity::NONE;
 6509              		.loc 2 68 9 view .LVU1695
  69:../DaisyExamples/libDaisy/src/hid/midi.h ****         uart_config.mode       = UartHandler::Config::Mode::TX_RX;
 6510              		.loc 2 69 9 view .LVU1696
  70:../DaisyExamples/libDaisy/src/hid/midi.h ****         uart_config.wordlength = UartHandler::Config::WordLength::BITS_8;
 6511              		.loc 2 70 9 view .LVU1697
  71:../DaisyExamples/libDaisy/src/hid/midi.h **** 
 6512              		.loc 2 71 9 view .LVU1698
ARM GAS  C:\Users\Marco\AppData\Local\Temp\ccVZoccs.s 			page 162


  74:../DaisyExamples/libDaisy/src/hid/midi.h ****         uart_config.pin_config.rx = config.rx;
 6513              		.loc 2 74 9 view .LVU1699
 6514 0048 85E80F00 		stm	r5, {r0, r1, r2, r3}
  75:../DaisyExamples/libDaisy/src/hid/midi.h ****         uart_config.pin_config.tx = config.tx;
 6515              		.loc 2 75 35 is_stmt 0 view .LVU1700
 6516 004c BDF82830 		ldrh	r3, [sp, #40]
  74:../DaisyExamples/libDaisy/src/hid/midi.h ****         uart_config.pin_config.rx = config.rx;
 6517              		.loc 2 74 35 view .LVU1701
 6518 0050 0E90     		str	r0, [sp, #56]
  75:../DaisyExamples/libDaisy/src/hid/midi.h ****         uart_config.pin_config.tx = config.tx;
 6519              		.loc 2 75 9 is_stmt 1 view .LVU1702
  75:../DaisyExamples/libDaisy/src/hid/midi.h ****         uart_config.pin_config.tx = config.tx;
 6520              		.loc 2 75 35 is_stmt 0 view .LVU1703
 6521 0052 ADF83630 		strh	r3, [sp, #54]	@ movhi
  76:../DaisyExamples/libDaisy/src/hid/midi.h **** 
 6522              		.loc 2 76 9 is_stmt 1 view .LVU1704
  79:../DaisyExamples/libDaisy/src/hid/midi.h **** 
 6523              		.loc 2 79 24 is_stmt 0 view .LVU1705
 6524 0056 C4E90776 		strd	r7, r6, [r4, #28]
  76:../DaisyExamples/libDaisy/src/hid/midi.h **** 
 6525              		.loc 2 76 35 view .LVU1706
 6526 005a BDF82A30 		ldrh	r3, [sp, #42]
 6527 005e ADF83430 		strh	r3, [sp, #52]	@ movhi
  78:../DaisyExamples/libDaisy/src/hid/midi.h ****         rx_buffer_size = config.rx_buffer_size;
 6528              		.loc 2 78 9 is_stmt 1 view .LVU1707
  79:../DaisyExamples/libDaisy/src/hid/midi.h **** 
 6529              		.loc 2 79 9 view .LVU1708
  82:../DaisyExamples/libDaisy/src/hid/midi.h **** 
 6530              		.loc 2 82 9 view .LVU1709
 6531              	.LVL435:
 6532              	.LBB1518:
 6533              	.LBI1518:
 6534              		.file 7 "c:\\program files\\daisytoolchain\\arm-none-eabi\\include\\c++\\10.2.1\\bits\\stl_algobas
   1:c:\program files\daisytoolchain\arm-none-eabi\include\c++\10.2.1\bits\stl_algobase.h **** // Core algorithmic facilities -*- C++ -*-
   2:c:\program files\daisytoolchain\arm-none-eabi\include\c++\10.2.1\bits\stl_algobase.h **** 
   3:c:\program files\daisytoolchain\arm-none-eabi\include\c++\10.2.1\bits\stl_algobase.h **** // Copyright (C) 2001-2020 Free Software Foundation, Inc.
   4:c:\program files\daisytoolchain\arm-none-eabi\include\c++\10.2.1\bits\stl_algobase.h **** //
   5:c:\program files\daisytoolchain\arm-none-eabi\include\c++\10.2.1\bits\stl_algobase.h **** // This file is part of the GNU ISO C++ Library.  This library is free
   6:c:\program files\daisytoolchain\arm-none-eabi\include\c++\10.2.1\bits\stl_algobase.h **** // software; you can redistribute it and/or modify it under the
   7:c:\program files\daisytoolchain\arm-none-eabi\include\c++\10.2.1\bits\stl_algobase.h **** // terms of the GNU General Public License as published by the
   8:c:\program files\daisytoolchain\arm-none-eabi\include\c++\10.2.1\bits\stl_algobase.h **** // Free Software Foundation; either version 3, or (at your option)
   9:c:\program files\daisytoolchain\arm-none-eabi\include\c++\10.2.1\bits\stl_algobase.h **** // any later version.
  10:c:\program files\daisytoolchain\arm-none-eabi\include\c++\10.2.1\bits\stl_algobase.h **** 
  11:c:\program files\daisytoolchain\arm-none-eabi\include\c++\10.2.1\bits\stl_algobase.h **** // This library is distributed in the hope that it will be useful,
  12:c:\program files\daisytoolchain\arm-none-eabi\include\c++\10.2.1\bits\stl_algobase.h **** // but WITHOUT ANY WARRANTY; without even the implied warranty of
  13:c:\program files\daisytoolchain\arm-none-eabi\include\c++\10.2.1\bits\stl_algobase.h **** // MERCHANTABILITY or FITNESS FOR A PARTICULAR PURPOSE.  See the
  14:c:\program files\daisytoolchain\arm-none-eabi\include\c++\10.2.1\bits\stl_algobase.h **** // GNU General Public License for more details.
  15:c:\program files\daisytoolchain\arm-none-eabi\include\c++\10.2.1\bits\stl_algobase.h **** 
  16:c:\program files\daisytoolchain\arm-none-eabi\include\c++\10.2.1\bits\stl_algobase.h **** // Under Section 7 of GPL version 3, you are granted additional
  17:c:\program files\daisytoolchain\arm-none-eabi\include\c++\10.2.1\bits\stl_algobase.h **** // permissions described in the GCC Runtime Library Exception, version
  18:c:\program files\daisytoolchain\arm-none-eabi\include\c++\10.2.1\bits\stl_algobase.h **** // 3.1, as published by the Free Software Foundation.
  19:c:\program files\daisytoolchain\arm-none-eabi\include\c++\10.2.1\bits\stl_algobase.h **** 
  20:c:\program files\daisytoolchain\arm-none-eabi\include\c++\10.2.1\bits\stl_algobase.h **** // You should have received a copy of the GNU General Public License and
  21:c:\program files\daisytoolchain\arm-none-eabi\include\c++\10.2.1\bits\stl_algobase.h **** // a copy of the GCC Runtime Library Exception along with this program;
  22:c:\program files\daisytoolchain\arm-none-eabi\include\c++\10.2.1\bits\stl_algobase.h **** // see the files COPYING3 and COPYING.RUNTIME respectively.  If not, see
  23:c:\program files\daisytoolchain\arm-none-eabi\include\c++\10.2.1\bits\stl_algobase.h **** // <http://www.gnu.org/licenses/>.
  24:c:\program files\daisytoolchain\arm-none-eabi\include\c++\10.2.1\bits\stl_algobase.h **** 
ARM GAS  C:\Users\Marco\AppData\Local\Temp\ccVZoccs.s 			page 163


  25:c:\program files\daisytoolchain\arm-none-eabi\include\c++\10.2.1\bits\stl_algobase.h **** /*
  26:c:\program files\daisytoolchain\arm-none-eabi\include\c++\10.2.1\bits\stl_algobase.h ****  *
  27:c:\program files\daisytoolchain\arm-none-eabi\include\c++\10.2.1\bits\stl_algobase.h ****  * Copyright (c) 1994
  28:c:\program files\daisytoolchain\arm-none-eabi\include\c++\10.2.1\bits\stl_algobase.h ****  * Hewlett-Packard Company
  29:c:\program files\daisytoolchain\arm-none-eabi\include\c++\10.2.1\bits\stl_algobase.h ****  *
  30:c:\program files\daisytoolchain\arm-none-eabi\include\c++\10.2.1\bits\stl_algobase.h ****  * Permission to use, copy, modify, distribute and sell this software
  31:c:\program files\daisytoolchain\arm-none-eabi\include\c++\10.2.1\bits\stl_algobase.h ****  * and its documentation for any purpose is hereby granted without fee,
  32:c:\program files\daisytoolchain\arm-none-eabi\include\c++\10.2.1\bits\stl_algobase.h ****  * provided that the above copyright notice appear in all copies and
  33:c:\program files\daisytoolchain\arm-none-eabi\include\c++\10.2.1\bits\stl_algobase.h ****  * that both that copyright notice and this permission notice appear
  34:c:\program files\daisytoolchain\arm-none-eabi\include\c++\10.2.1\bits\stl_algobase.h ****  * in supporting documentation.  Hewlett-Packard Company makes no
  35:c:\program files\daisytoolchain\arm-none-eabi\include\c++\10.2.1\bits\stl_algobase.h ****  * representations about the suitability of this software for any
  36:c:\program files\daisytoolchain\arm-none-eabi\include\c++\10.2.1\bits\stl_algobase.h ****  * purpose.  It is provided "as is" without express or implied warranty.
  37:c:\program files\daisytoolchain\arm-none-eabi\include\c++\10.2.1\bits\stl_algobase.h ****  *
  38:c:\program files\daisytoolchain\arm-none-eabi\include\c++\10.2.1\bits\stl_algobase.h ****  *
  39:c:\program files\daisytoolchain\arm-none-eabi\include\c++\10.2.1\bits\stl_algobase.h ****  * Copyright (c) 1996-1998
  40:c:\program files\daisytoolchain\arm-none-eabi\include\c++\10.2.1\bits\stl_algobase.h ****  * Silicon Graphics Computer Systems, Inc.
  41:c:\program files\daisytoolchain\arm-none-eabi\include\c++\10.2.1\bits\stl_algobase.h ****  *
  42:c:\program files\daisytoolchain\arm-none-eabi\include\c++\10.2.1\bits\stl_algobase.h ****  * Permission to use, copy, modify, distribute and sell this software
  43:c:\program files\daisytoolchain\arm-none-eabi\include\c++\10.2.1\bits\stl_algobase.h ****  * and its documentation for any purpose is hereby granted without fee,
  44:c:\program files\daisytoolchain\arm-none-eabi\include\c++\10.2.1\bits\stl_algobase.h ****  * provided that the above copyright notice appear in all copies and
  45:c:\program files\daisytoolchain\arm-none-eabi\include\c++\10.2.1\bits\stl_algobase.h ****  * that both that copyright notice and this permission notice appear
  46:c:\program files\daisytoolchain\arm-none-eabi\include\c++\10.2.1\bits\stl_algobase.h ****  * in supporting documentation.  Silicon Graphics makes no
  47:c:\program files\daisytoolchain\arm-none-eabi\include\c++\10.2.1\bits\stl_algobase.h ****  * representations about the suitability of this software for any
  48:c:\program files\daisytoolchain\arm-none-eabi\include\c++\10.2.1\bits\stl_algobase.h ****  * purpose.  It is provided "as is" without express or implied warranty.
  49:c:\program files\daisytoolchain\arm-none-eabi\include\c++\10.2.1\bits\stl_algobase.h ****  */
  50:c:\program files\daisytoolchain\arm-none-eabi\include\c++\10.2.1\bits\stl_algobase.h **** 
  51:c:\program files\daisytoolchain\arm-none-eabi\include\c++\10.2.1\bits\stl_algobase.h **** /** @file bits/stl_algobase.h
  52:c:\program files\daisytoolchain\arm-none-eabi\include\c++\10.2.1\bits\stl_algobase.h ****  *  This is an internal header file, included by other library headers.
  53:c:\program files\daisytoolchain\arm-none-eabi\include\c++\10.2.1\bits\stl_algobase.h ****  *  Do not attempt to use it directly. @headername{algorithm}
  54:c:\program files\daisytoolchain\arm-none-eabi\include\c++\10.2.1\bits\stl_algobase.h ****  */
  55:c:\program files\daisytoolchain\arm-none-eabi\include\c++\10.2.1\bits\stl_algobase.h **** 
  56:c:\program files\daisytoolchain\arm-none-eabi\include\c++\10.2.1\bits\stl_algobase.h **** #ifndef _STL_ALGOBASE_H
  57:c:\program files\daisytoolchain\arm-none-eabi\include\c++\10.2.1\bits\stl_algobase.h **** #define _STL_ALGOBASE_H 1
  58:c:\program files\daisytoolchain\arm-none-eabi\include\c++\10.2.1\bits\stl_algobase.h **** 
  59:c:\program files\daisytoolchain\arm-none-eabi\include\c++\10.2.1\bits\stl_algobase.h **** #include <bits/c++config.h>
  60:c:\program files\daisytoolchain\arm-none-eabi\include\c++\10.2.1\bits\stl_algobase.h **** #include <bits/functexcept.h>
  61:c:\program files\daisytoolchain\arm-none-eabi\include\c++\10.2.1\bits\stl_algobase.h **** #include <bits/cpp_type_traits.h>
  62:c:\program files\daisytoolchain\arm-none-eabi\include\c++\10.2.1\bits\stl_algobase.h **** #include <ext/type_traits.h>
  63:c:\program files\daisytoolchain\arm-none-eabi\include\c++\10.2.1\bits\stl_algobase.h **** #include <ext/numeric_traits.h>
  64:c:\program files\daisytoolchain\arm-none-eabi\include\c++\10.2.1\bits\stl_algobase.h **** #include <bits/stl_pair.h>
  65:c:\program files\daisytoolchain\arm-none-eabi\include\c++\10.2.1\bits\stl_algobase.h **** #include <bits/stl_iterator_base_types.h>
  66:c:\program files\daisytoolchain\arm-none-eabi\include\c++\10.2.1\bits\stl_algobase.h **** #include <bits/stl_iterator_base_funcs.h>
  67:c:\program files\daisytoolchain\arm-none-eabi\include\c++\10.2.1\bits\stl_algobase.h **** #include <bits/stl_iterator.h>
  68:c:\program files\daisytoolchain\arm-none-eabi\include\c++\10.2.1\bits\stl_algobase.h **** #include <bits/concept_check.h>
  69:c:\program files\daisytoolchain\arm-none-eabi\include\c++\10.2.1\bits\stl_algobase.h **** #include <debug/debug.h>
  70:c:\program files\daisytoolchain\arm-none-eabi\include\c++\10.2.1\bits\stl_algobase.h **** #include <bits/move.h> // For std::swap
  71:c:\program files\daisytoolchain\arm-none-eabi\include\c++\10.2.1\bits\stl_algobase.h **** #include <bits/predefined_ops.h>
  72:c:\program files\daisytoolchain\arm-none-eabi\include\c++\10.2.1\bits\stl_algobase.h **** #if __cplusplus >= 201103L
  73:c:\program files\daisytoolchain\arm-none-eabi\include\c++\10.2.1\bits\stl_algobase.h **** # include <type_traits>
  74:c:\program files\daisytoolchain\arm-none-eabi\include\c++\10.2.1\bits\stl_algobase.h **** #endif
  75:c:\program files\daisytoolchain\arm-none-eabi\include\c++\10.2.1\bits\stl_algobase.h **** #if __cplusplus > 201703L
  76:c:\program files\daisytoolchain\arm-none-eabi\include\c++\10.2.1\bits\stl_algobase.h **** # include <compare>
  77:c:\program files\daisytoolchain\arm-none-eabi\include\c++\10.2.1\bits\stl_algobase.h **** #endif
  78:c:\program files\daisytoolchain\arm-none-eabi\include\c++\10.2.1\bits\stl_algobase.h **** 
  79:c:\program files\daisytoolchain\arm-none-eabi\include\c++\10.2.1\bits\stl_algobase.h **** namespace std _GLIBCXX_VISIBILITY(default)
  80:c:\program files\daisytoolchain\arm-none-eabi\include\c++\10.2.1\bits\stl_algobase.h **** {
  81:c:\program files\daisytoolchain\arm-none-eabi\include\c++\10.2.1\bits\stl_algobase.h **** _GLIBCXX_BEGIN_NAMESPACE_VERSION
ARM GAS  C:\Users\Marco\AppData\Local\Temp\ccVZoccs.s 			page 164


  82:c:\program files\daisytoolchain\arm-none-eabi\include\c++\10.2.1\bits\stl_algobase.h **** 
  83:c:\program files\daisytoolchain\arm-none-eabi\include\c++\10.2.1\bits\stl_algobase.h ****   /*
  84:c:\program files\daisytoolchain\arm-none-eabi\include\c++\10.2.1\bits\stl_algobase.h ****    * A constexpr wrapper for __builtin_memcmp.
  85:c:\program files\daisytoolchain\arm-none-eabi\include\c++\10.2.1\bits\stl_algobase.h ****    * @param __num The number of elements of type _Tp (not bytes).
  86:c:\program files\daisytoolchain\arm-none-eabi\include\c++\10.2.1\bits\stl_algobase.h ****    */
  87:c:\program files\daisytoolchain\arm-none-eabi\include\c++\10.2.1\bits\stl_algobase.h ****   template<typename _Tp, typename _Up>
  88:c:\program files\daisytoolchain\arm-none-eabi\include\c++\10.2.1\bits\stl_algobase.h ****     _GLIBCXX14_CONSTEXPR
  89:c:\program files\daisytoolchain\arm-none-eabi\include\c++\10.2.1\bits\stl_algobase.h ****     inline int
  90:c:\program files\daisytoolchain\arm-none-eabi\include\c++\10.2.1\bits\stl_algobase.h ****     __memcmp(const _Tp* __first1, const _Up* __first2, size_t __num)
  91:c:\program files\daisytoolchain\arm-none-eabi\include\c++\10.2.1\bits\stl_algobase.h ****     {
  92:c:\program files\daisytoolchain\arm-none-eabi\include\c++\10.2.1\bits\stl_algobase.h **** #if __cplusplus >= 201103L
  93:c:\program files\daisytoolchain\arm-none-eabi\include\c++\10.2.1\bits\stl_algobase.h ****       static_assert(sizeof(_Tp) == sizeof(_Up), "can be compared with memcmp");
  94:c:\program files\daisytoolchain\arm-none-eabi\include\c++\10.2.1\bits\stl_algobase.h **** #endif
  95:c:\program files\daisytoolchain\arm-none-eabi\include\c++\10.2.1\bits\stl_algobase.h **** #ifdef __cpp_lib_is_constant_evaluated
  96:c:\program files\daisytoolchain\arm-none-eabi\include\c++\10.2.1\bits\stl_algobase.h ****       if (std::is_constant_evaluated())
  97:c:\program files\daisytoolchain\arm-none-eabi\include\c++\10.2.1\bits\stl_algobase.h **** 	{
  98:c:\program files\daisytoolchain\arm-none-eabi\include\c++\10.2.1\bits\stl_algobase.h **** 	  for(; __num > 0; ++__first1, ++__first2, --__num)
  99:c:\program files\daisytoolchain\arm-none-eabi\include\c++\10.2.1\bits\stl_algobase.h **** 	    if (*__first1 != *__first2)
 100:c:\program files\daisytoolchain\arm-none-eabi\include\c++\10.2.1\bits\stl_algobase.h **** 	      return *__first1 < *__first2 ? -1 : 1;
 101:c:\program files\daisytoolchain\arm-none-eabi\include\c++\10.2.1\bits\stl_algobase.h **** 	  return 0;
 102:c:\program files\daisytoolchain\arm-none-eabi\include\c++\10.2.1\bits\stl_algobase.h **** 	}
 103:c:\program files\daisytoolchain\arm-none-eabi\include\c++\10.2.1\bits\stl_algobase.h ****       else
 104:c:\program files\daisytoolchain\arm-none-eabi\include\c++\10.2.1\bits\stl_algobase.h **** #endif
 105:c:\program files\daisytoolchain\arm-none-eabi\include\c++\10.2.1\bits\stl_algobase.h **** 	return __builtin_memcmp(__first1, __first2, sizeof(_Tp) * __num);
 106:c:\program files\daisytoolchain\arm-none-eabi\include\c++\10.2.1\bits\stl_algobase.h ****     }
 107:c:\program files\daisytoolchain\arm-none-eabi\include\c++\10.2.1\bits\stl_algobase.h **** 
 108:c:\program files\daisytoolchain\arm-none-eabi\include\c++\10.2.1\bits\stl_algobase.h **** #if __cplusplus < 201103L
 109:c:\program files\daisytoolchain\arm-none-eabi\include\c++\10.2.1\bits\stl_algobase.h ****   // See http://gcc.gnu.org/ml/libstdc++/2004-08/msg00167.html: in a
 110:c:\program files\daisytoolchain\arm-none-eabi\include\c++\10.2.1\bits\stl_algobase.h ****   // nutshell, we are partially implementing the resolution of DR 187,
 111:c:\program files\daisytoolchain\arm-none-eabi\include\c++\10.2.1\bits\stl_algobase.h ****   // when it's safe, i.e., the value_types are equal.
 112:c:\program files\daisytoolchain\arm-none-eabi\include\c++\10.2.1\bits\stl_algobase.h ****   template<bool _BoolType>
 113:c:\program files\daisytoolchain\arm-none-eabi\include\c++\10.2.1\bits\stl_algobase.h ****     struct __iter_swap
 114:c:\program files\daisytoolchain\arm-none-eabi\include\c++\10.2.1\bits\stl_algobase.h ****     {
 115:c:\program files\daisytoolchain\arm-none-eabi\include\c++\10.2.1\bits\stl_algobase.h ****       template<typename _ForwardIterator1, typename _ForwardIterator2>
 116:c:\program files\daisytoolchain\arm-none-eabi\include\c++\10.2.1\bits\stl_algobase.h **** 	static void
 117:c:\program files\daisytoolchain\arm-none-eabi\include\c++\10.2.1\bits\stl_algobase.h **** 	iter_swap(_ForwardIterator1 __a, _ForwardIterator2 __b)
 118:c:\program files\daisytoolchain\arm-none-eabi\include\c++\10.2.1\bits\stl_algobase.h **** 	{
 119:c:\program files\daisytoolchain\arm-none-eabi\include\c++\10.2.1\bits\stl_algobase.h **** 	  typedef typename iterator_traits<_ForwardIterator1>::value_type
 120:c:\program files\daisytoolchain\arm-none-eabi\include\c++\10.2.1\bits\stl_algobase.h **** 	    _ValueType1;
 121:c:\program files\daisytoolchain\arm-none-eabi\include\c++\10.2.1\bits\stl_algobase.h **** 	  _ValueType1 __tmp = *__a;
 122:c:\program files\daisytoolchain\arm-none-eabi\include\c++\10.2.1\bits\stl_algobase.h **** 	  *__a = *__b;
 123:c:\program files\daisytoolchain\arm-none-eabi\include\c++\10.2.1\bits\stl_algobase.h **** 	  *__b = __tmp;
 124:c:\program files\daisytoolchain\arm-none-eabi\include\c++\10.2.1\bits\stl_algobase.h **** 	}
 125:c:\program files\daisytoolchain\arm-none-eabi\include\c++\10.2.1\bits\stl_algobase.h ****     };
 126:c:\program files\daisytoolchain\arm-none-eabi\include\c++\10.2.1\bits\stl_algobase.h **** 
 127:c:\program files\daisytoolchain\arm-none-eabi\include\c++\10.2.1\bits\stl_algobase.h ****   template<>
 128:c:\program files\daisytoolchain\arm-none-eabi\include\c++\10.2.1\bits\stl_algobase.h ****     struct __iter_swap<true>
 129:c:\program files\daisytoolchain\arm-none-eabi\include\c++\10.2.1\bits\stl_algobase.h ****     {
 130:c:\program files\daisytoolchain\arm-none-eabi\include\c++\10.2.1\bits\stl_algobase.h ****       template<typename _ForwardIterator1, typename _ForwardIterator2>
 131:c:\program files\daisytoolchain\arm-none-eabi\include\c++\10.2.1\bits\stl_algobase.h **** 	static void
 132:c:\program files\daisytoolchain\arm-none-eabi\include\c++\10.2.1\bits\stl_algobase.h **** 	iter_swap(_ForwardIterator1 __a, _ForwardIterator2 __b)
 133:c:\program files\daisytoolchain\arm-none-eabi\include\c++\10.2.1\bits\stl_algobase.h **** 	{
 134:c:\program files\daisytoolchain\arm-none-eabi\include\c++\10.2.1\bits\stl_algobase.h **** 	  swap(*__a, *__b);
 135:c:\program files\daisytoolchain\arm-none-eabi\include\c++\10.2.1\bits\stl_algobase.h **** 	}
 136:c:\program files\daisytoolchain\arm-none-eabi\include\c++\10.2.1\bits\stl_algobase.h ****     };
 137:c:\program files\daisytoolchain\arm-none-eabi\include\c++\10.2.1\bits\stl_algobase.h **** #endif // C++03
 138:c:\program files\daisytoolchain\arm-none-eabi\include\c++\10.2.1\bits\stl_algobase.h **** 
ARM GAS  C:\Users\Marco\AppData\Local\Temp\ccVZoccs.s 			page 165


 139:c:\program files\daisytoolchain\arm-none-eabi\include\c++\10.2.1\bits\stl_algobase.h ****   /**
 140:c:\program files\daisytoolchain\arm-none-eabi\include\c++\10.2.1\bits\stl_algobase.h ****    *  @brief Swaps the contents of two iterators.
 141:c:\program files\daisytoolchain\arm-none-eabi\include\c++\10.2.1\bits\stl_algobase.h ****    *  @ingroup mutating_algorithms
 142:c:\program files\daisytoolchain\arm-none-eabi\include\c++\10.2.1\bits\stl_algobase.h ****    *  @param  __a  An iterator.
 143:c:\program files\daisytoolchain\arm-none-eabi\include\c++\10.2.1\bits\stl_algobase.h ****    *  @param  __b  Another iterator.
 144:c:\program files\daisytoolchain\arm-none-eabi\include\c++\10.2.1\bits\stl_algobase.h ****    *  @return   Nothing.
 145:c:\program files\daisytoolchain\arm-none-eabi\include\c++\10.2.1\bits\stl_algobase.h ****    *
 146:c:\program files\daisytoolchain\arm-none-eabi\include\c++\10.2.1\bits\stl_algobase.h ****    *  This function swaps the values pointed to by two iterators, not the
 147:c:\program files\daisytoolchain\arm-none-eabi\include\c++\10.2.1\bits\stl_algobase.h ****    *  iterators themselves.
 148:c:\program files\daisytoolchain\arm-none-eabi\include\c++\10.2.1\bits\stl_algobase.h ****   */
 149:c:\program files\daisytoolchain\arm-none-eabi\include\c++\10.2.1\bits\stl_algobase.h ****   template<typename _ForwardIterator1, typename _ForwardIterator2>
 150:c:\program files\daisytoolchain\arm-none-eabi\include\c++\10.2.1\bits\stl_algobase.h ****     _GLIBCXX20_CONSTEXPR
 151:c:\program files\daisytoolchain\arm-none-eabi\include\c++\10.2.1\bits\stl_algobase.h ****     inline void
 152:c:\program files\daisytoolchain\arm-none-eabi\include\c++\10.2.1\bits\stl_algobase.h ****     iter_swap(_ForwardIterator1 __a, _ForwardIterator2 __b)
 153:c:\program files\daisytoolchain\arm-none-eabi\include\c++\10.2.1\bits\stl_algobase.h ****     {
 154:c:\program files\daisytoolchain\arm-none-eabi\include\c++\10.2.1\bits\stl_algobase.h ****       // concept requirements
 155:c:\program files\daisytoolchain\arm-none-eabi\include\c++\10.2.1\bits\stl_algobase.h ****       __glibcxx_function_requires(_Mutable_ForwardIteratorConcept<
 156:c:\program files\daisytoolchain\arm-none-eabi\include\c++\10.2.1\bits\stl_algobase.h **** 				  _ForwardIterator1>)
 157:c:\program files\daisytoolchain\arm-none-eabi\include\c++\10.2.1\bits\stl_algobase.h ****       __glibcxx_function_requires(_Mutable_ForwardIteratorConcept<
 158:c:\program files\daisytoolchain\arm-none-eabi\include\c++\10.2.1\bits\stl_algobase.h **** 				  _ForwardIterator2>)
 159:c:\program files\daisytoolchain\arm-none-eabi\include\c++\10.2.1\bits\stl_algobase.h **** 
 160:c:\program files\daisytoolchain\arm-none-eabi\include\c++\10.2.1\bits\stl_algobase.h **** #if __cplusplus < 201103L
 161:c:\program files\daisytoolchain\arm-none-eabi\include\c++\10.2.1\bits\stl_algobase.h ****       typedef typename iterator_traits<_ForwardIterator1>::value_type
 162:c:\program files\daisytoolchain\arm-none-eabi\include\c++\10.2.1\bits\stl_algobase.h **** 	_ValueType1;
 163:c:\program files\daisytoolchain\arm-none-eabi\include\c++\10.2.1\bits\stl_algobase.h ****       typedef typename iterator_traits<_ForwardIterator2>::value_type
 164:c:\program files\daisytoolchain\arm-none-eabi\include\c++\10.2.1\bits\stl_algobase.h **** 	_ValueType2;
 165:c:\program files\daisytoolchain\arm-none-eabi\include\c++\10.2.1\bits\stl_algobase.h **** 
 166:c:\program files\daisytoolchain\arm-none-eabi\include\c++\10.2.1\bits\stl_algobase.h ****       __glibcxx_function_requires(_ConvertibleConcept<_ValueType1,
 167:c:\program files\daisytoolchain\arm-none-eabi\include\c++\10.2.1\bits\stl_algobase.h **** 				  _ValueType2>)
 168:c:\program files\daisytoolchain\arm-none-eabi\include\c++\10.2.1\bits\stl_algobase.h ****       __glibcxx_function_requires(_ConvertibleConcept<_ValueType2,
 169:c:\program files\daisytoolchain\arm-none-eabi\include\c++\10.2.1\bits\stl_algobase.h **** 				  _ValueType1>)
 170:c:\program files\daisytoolchain\arm-none-eabi\include\c++\10.2.1\bits\stl_algobase.h **** 
 171:c:\program files\daisytoolchain\arm-none-eabi\include\c++\10.2.1\bits\stl_algobase.h ****       typedef typename iterator_traits<_ForwardIterator1>::reference
 172:c:\program files\daisytoolchain\arm-none-eabi\include\c++\10.2.1\bits\stl_algobase.h **** 	_ReferenceType1;
 173:c:\program files\daisytoolchain\arm-none-eabi\include\c++\10.2.1\bits\stl_algobase.h ****       typedef typename iterator_traits<_ForwardIterator2>::reference
 174:c:\program files\daisytoolchain\arm-none-eabi\include\c++\10.2.1\bits\stl_algobase.h **** 	_ReferenceType2;
 175:c:\program files\daisytoolchain\arm-none-eabi\include\c++\10.2.1\bits\stl_algobase.h ****       std::__iter_swap<__are_same<_ValueType1, _ValueType2>::__value
 176:c:\program files\daisytoolchain\arm-none-eabi\include\c++\10.2.1\bits\stl_algobase.h **** 	&& __are_same<_ValueType1&, _ReferenceType1>::__value
 177:c:\program files\daisytoolchain\arm-none-eabi\include\c++\10.2.1\bits\stl_algobase.h **** 	&& __are_same<_ValueType2&, _ReferenceType2>::__value>::
 178:c:\program files\daisytoolchain\arm-none-eabi\include\c++\10.2.1\bits\stl_algobase.h **** 	iter_swap(__a, __b);
 179:c:\program files\daisytoolchain\arm-none-eabi\include\c++\10.2.1\bits\stl_algobase.h **** #else
 180:c:\program files\daisytoolchain\arm-none-eabi\include\c++\10.2.1\bits\stl_algobase.h ****       // _GLIBCXX_RESOLVE_LIB_DEFECTS
 181:c:\program files\daisytoolchain\arm-none-eabi\include\c++\10.2.1\bits\stl_algobase.h ****       // 187. iter_swap underspecified
 182:c:\program files\daisytoolchain\arm-none-eabi\include\c++\10.2.1\bits\stl_algobase.h ****       swap(*__a, *__b);
 183:c:\program files\daisytoolchain\arm-none-eabi\include\c++\10.2.1\bits\stl_algobase.h **** #endif
 184:c:\program files\daisytoolchain\arm-none-eabi\include\c++\10.2.1\bits\stl_algobase.h ****     }
 185:c:\program files\daisytoolchain\arm-none-eabi\include\c++\10.2.1\bits\stl_algobase.h **** 
 186:c:\program files\daisytoolchain\arm-none-eabi\include\c++\10.2.1\bits\stl_algobase.h ****   /**
 187:c:\program files\daisytoolchain\arm-none-eabi\include\c++\10.2.1\bits\stl_algobase.h ****    *  @brief Swap the elements of two sequences.
 188:c:\program files\daisytoolchain\arm-none-eabi\include\c++\10.2.1\bits\stl_algobase.h ****    *  @ingroup mutating_algorithms
 189:c:\program files\daisytoolchain\arm-none-eabi\include\c++\10.2.1\bits\stl_algobase.h ****    *  @param  __first1  A forward iterator.
 190:c:\program files\daisytoolchain\arm-none-eabi\include\c++\10.2.1\bits\stl_algobase.h ****    *  @param  __last1   A forward iterator.
 191:c:\program files\daisytoolchain\arm-none-eabi\include\c++\10.2.1\bits\stl_algobase.h ****    *  @param  __first2  A forward iterator.
 192:c:\program files\daisytoolchain\arm-none-eabi\include\c++\10.2.1\bits\stl_algobase.h ****    *  @return   An iterator equal to @p first2+(last1-first1).
 193:c:\program files\daisytoolchain\arm-none-eabi\include\c++\10.2.1\bits\stl_algobase.h ****    *
 194:c:\program files\daisytoolchain\arm-none-eabi\include\c++\10.2.1\bits\stl_algobase.h ****    *  Swaps each element in the range @p [first1,last1) with the
 195:c:\program files\daisytoolchain\arm-none-eabi\include\c++\10.2.1\bits\stl_algobase.h ****    *  corresponding element in the range @p [first2,(last1-first1)).
ARM GAS  C:\Users\Marco\AppData\Local\Temp\ccVZoccs.s 			page 166


 196:c:\program files\daisytoolchain\arm-none-eabi\include\c++\10.2.1\bits\stl_algobase.h ****    *  The ranges must not overlap.
 197:c:\program files\daisytoolchain\arm-none-eabi\include\c++\10.2.1\bits\stl_algobase.h ****   */
 198:c:\program files\daisytoolchain\arm-none-eabi\include\c++\10.2.1\bits\stl_algobase.h ****   template<typename _ForwardIterator1, typename _ForwardIterator2>
 199:c:\program files\daisytoolchain\arm-none-eabi\include\c++\10.2.1\bits\stl_algobase.h ****     _GLIBCXX20_CONSTEXPR
 200:c:\program files\daisytoolchain\arm-none-eabi\include\c++\10.2.1\bits\stl_algobase.h ****     _ForwardIterator2
 201:c:\program files\daisytoolchain\arm-none-eabi\include\c++\10.2.1\bits\stl_algobase.h ****     swap_ranges(_ForwardIterator1 __first1, _ForwardIterator1 __last1,
 202:c:\program files\daisytoolchain\arm-none-eabi\include\c++\10.2.1\bits\stl_algobase.h **** 		_ForwardIterator2 __first2)
 203:c:\program files\daisytoolchain\arm-none-eabi\include\c++\10.2.1\bits\stl_algobase.h ****     {
 204:c:\program files\daisytoolchain\arm-none-eabi\include\c++\10.2.1\bits\stl_algobase.h ****       // concept requirements
 205:c:\program files\daisytoolchain\arm-none-eabi\include\c++\10.2.1\bits\stl_algobase.h ****       __glibcxx_function_requires(_Mutable_ForwardIteratorConcept<
 206:c:\program files\daisytoolchain\arm-none-eabi\include\c++\10.2.1\bits\stl_algobase.h **** 				  _ForwardIterator1>)
 207:c:\program files\daisytoolchain\arm-none-eabi\include\c++\10.2.1\bits\stl_algobase.h ****       __glibcxx_function_requires(_Mutable_ForwardIteratorConcept<
 208:c:\program files\daisytoolchain\arm-none-eabi\include\c++\10.2.1\bits\stl_algobase.h **** 				  _ForwardIterator2>)
 209:c:\program files\daisytoolchain\arm-none-eabi\include\c++\10.2.1\bits\stl_algobase.h ****       __glibcxx_requires_valid_range(__first1, __last1);
 210:c:\program files\daisytoolchain\arm-none-eabi\include\c++\10.2.1\bits\stl_algobase.h **** 
 211:c:\program files\daisytoolchain\arm-none-eabi\include\c++\10.2.1\bits\stl_algobase.h ****       for (; __first1 != __last1; ++__first1, (void)++__first2)
 212:c:\program files\daisytoolchain\arm-none-eabi\include\c++\10.2.1\bits\stl_algobase.h **** 	std::iter_swap(__first1, __first2);
 213:c:\program files\daisytoolchain\arm-none-eabi\include\c++\10.2.1\bits\stl_algobase.h ****       return __first2;
 214:c:\program files\daisytoolchain\arm-none-eabi\include\c++\10.2.1\bits\stl_algobase.h ****     }
 215:c:\program files\daisytoolchain\arm-none-eabi\include\c++\10.2.1\bits\stl_algobase.h **** 
 216:c:\program files\daisytoolchain\arm-none-eabi\include\c++\10.2.1\bits\stl_algobase.h ****   /**
 217:c:\program files\daisytoolchain\arm-none-eabi\include\c++\10.2.1\bits\stl_algobase.h ****    *  @brief This does what you think it does.
 218:c:\program files\daisytoolchain\arm-none-eabi\include\c++\10.2.1\bits\stl_algobase.h ****    *  @ingroup sorting_algorithms
 219:c:\program files\daisytoolchain\arm-none-eabi\include\c++\10.2.1\bits\stl_algobase.h ****    *  @param  __a  A thing of arbitrary type.
 220:c:\program files\daisytoolchain\arm-none-eabi\include\c++\10.2.1\bits\stl_algobase.h ****    *  @param  __b  Another thing of arbitrary type.
 221:c:\program files\daisytoolchain\arm-none-eabi\include\c++\10.2.1\bits\stl_algobase.h ****    *  @return   The lesser of the parameters.
 222:c:\program files\daisytoolchain\arm-none-eabi\include\c++\10.2.1\bits\stl_algobase.h ****    *
 223:c:\program files\daisytoolchain\arm-none-eabi\include\c++\10.2.1\bits\stl_algobase.h ****    *  This is the simple classic generic implementation.  It will work on
 224:c:\program files\daisytoolchain\arm-none-eabi\include\c++\10.2.1\bits\stl_algobase.h ****    *  temporary expressions, since they are only evaluated once, unlike a
 225:c:\program files\daisytoolchain\arm-none-eabi\include\c++\10.2.1\bits\stl_algobase.h ****    *  preprocessor macro.
 226:c:\program files\daisytoolchain\arm-none-eabi\include\c++\10.2.1\bits\stl_algobase.h ****   */
 227:c:\program files\daisytoolchain\arm-none-eabi\include\c++\10.2.1\bits\stl_algobase.h ****   template<typename _Tp>
 228:c:\program files\daisytoolchain\arm-none-eabi\include\c++\10.2.1\bits\stl_algobase.h ****     _GLIBCXX14_CONSTEXPR
 229:c:\program files\daisytoolchain\arm-none-eabi\include\c++\10.2.1\bits\stl_algobase.h ****     inline const _Tp&
 230:c:\program files\daisytoolchain\arm-none-eabi\include\c++\10.2.1\bits\stl_algobase.h ****     min(const _Tp& __a, const _Tp& __b)
 231:c:\program files\daisytoolchain\arm-none-eabi\include\c++\10.2.1\bits\stl_algobase.h ****     {
 232:c:\program files\daisytoolchain\arm-none-eabi\include\c++\10.2.1\bits\stl_algobase.h ****       // concept requirements
 233:c:\program files\daisytoolchain\arm-none-eabi\include\c++\10.2.1\bits\stl_algobase.h ****       __glibcxx_function_requires(_LessThanComparableConcept<_Tp>)
 234:c:\program files\daisytoolchain\arm-none-eabi\include\c++\10.2.1\bits\stl_algobase.h ****       //return __b < __a ? __b : __a;
 235:c:\program files\daisytoolchain\arm-none-eabi\include\c++\10.2.1\bits\stl_algobase.h ****       if (__b < __a)
 236:c:\program files\daisytoolchain\arm-none-eabi\include\c++\10.2.1\bits\stl_algobase.h **** 	return __b;
 237:c:\program files\daisytoolchain\arm-none-eabi\include\c++\10.2.1\bits\stl_algobase.h ****       return __a;
 238:c:\program files\daisytoolchain\arm-none-eabi\include\c++\10.2.1\bits\stl_algobase.h ****     }
 239:c:\program files\daisytoolchain\arm-none-eabi\include\c++\10.2.1\bits\stl_algobase.h **** 
 240:c:\program files\daisytoolchain\arm-none-eabi\include\c++\10.2.1\bits\stl_algobase.h ****   /**
 241:c:\program files\daisytoolchain\arm-none-eabi\include\c++\10.2.1\bits\stl_algobase.h ****    *  @brief This does what you think it does.
 242:c:\program files\daisytoolchain\arm-none-eabi\include\c++\10.2.1\bits\stl_algobase.h ****    *  @ingroup sorting_algorithms
 243:c:\program files\daisytoolchain\arm-none-eabi\include\c++\10.2.1\bits\stl_algobase.h ****    *  @param  __a  A thing of arbitrary type.
 244:c:\program files\daisytoolchain\arm-none-eabi\include\c++\10.2.1\bits\stl_algobase.h ****    *  @param  __b  Another thing of arbitrary type.
 245:c:\program files\daisytoolchain\arm-none-eabi\include\c++\10.2.1\bits\stl_algobase.h ****    *  @return   The greater of the parameters.
 246:c:\program files\daisytoolchain\arm-none-eabi\include\c++\10.2.1\bits\stl_algobase.h ****    *
 247:c:\program files\daisytoolchain\arm-none-eabi\include\c++\10.2.1\bits\stl_algobase.h ****    *  This is the simple classic generic implementation.  It will work on
 248:c:\program files\daisytoolchain\arm-none-eabi\include\c++\10.2.1\bits\stl_algobase.h ****    *  temporary expressions, since they are only evaluated once, unlike a
 249:c:\program files\daisytoolchain\arm-none-eabi\include\c++\10.2.1\bits\stl_algobase.h ****    *  preprocessor macro.
 250:c:\program files\daisytoolchain\arm-none-eabi\include\c++\10.2.1\bits\stl_algobase.h ****   */
 251:c:\program files\daisytoolchain\arm-none-eabi\include\c++\10.2.1\bits\stl_algobase.h ****   template<typename _Tp>
 252:c:\program files\daisytoolchain\arm-none-eabi\include\c++\10.2.1\bits\stl_algobase.h ****     _GLIBCXX14_CONSTEXPR
ARM GAS  C:\Users\Marco\AppData\Local\Temp\ccVZoccs.s 			page 167


 253:c:\program files\daisytoolchain\arm-none-eabi\include\c++\10.2.1\bits\stl_algobase.h ****     inline const _Tp&
 254:c:\program files\daisytoolchain\arm-none-eabi\include\c++\10.2.1\bits\stl_algobase.h ****     max(const _Tp& __a, const _Tp& __b)
 255:c:\program files\daisytoolchain\arm-none-eabi\include\c++\10.2.1\bits\stl_algobase.h ****     {
 256:c:\program files\daisytoolchain\arm-none-eabi\include\c++\10.2.1\bits\stl_algobase.h ****       // concept requirements
 257:c:\program files\daisytoolchain\arm-none-eabi\include\c++\10.2.1\bits\stl_algobase.h ****       __glibcxx_function_requires(_LessThanComparableConcept<_Tp>)
 258:c:\program files\daisytoolchain\arm-none-eabi\include\c++\10.2.1\bits\stl_algobase.h ****       //return  __a < __b ? __b : __a;
 259:c:\program files\daisytoolchain\arm-none-eabi\include\c++\10.2.1\bits\stl_algobase.h ****       if (__a < __b)
 260:c:\program files\daisytoolchain\arm-none-eabi\include\c++\10.2.1\bits\stl_algobase.h **** 	return __b;
 261:c:\program files\daisytoolchain\arm-none-eabi\include\c++\10.2.1\bits\stl_algobase.h ****       return __a;
 262:c:\program files\daisytoolchain\arm-none-eabi\include\c++\10.2.1\bits\stl_algobase.h ****     }
 263:c:\program files\daisytoolchain\arm-none-eabi\include\c++\10.2.1\bits\stl_algobase.h **** 
 264:c:\program files\daisytoolchain\arm-none-eabi\include\c++\10.2.1\bits\stl_algobase.h ****   /**
 265:c:\program files\daisytoolchain\arm-none-eabi\include\c++\10.2.1\bits\stl_algobase.h ****    *  @brief This does what you think it does.
 266:c:\program files\daisytoolchain\arm-none-eabi\include\c++\10.2.1\bits\stl_algobase.h ****    *  @ingroup sorting_algorithms
 267:c:\program files\daisytoolchain\arm-none-eabi\include\c++\10.2.1\bits\stl_algobase.h ****    *  @param  __a  A thing of arbitrary type.
 268:c:\program files\daisytoolchain\arm-none-eabi\include\c++\10.2.1\bits\stl_algobase.h ****    *  @param  __b  Another thing of arbitrary type.
 269:c:\program files\daisytoolchain\arm-none-eabi\include\c++\10.2.1\bits\stl_algobase.h ****    *  @param  __comp  A @link comparison_functors comparison functor@endlink.
 270:c:\program files\daisytoolchain\arm-none-eabi\include\c++\10.2.1\bits\stl_algobase.h ****    *  @return   The lesser of the parameters.
 271:c:\program files\daisytoolchain\arm-none-eabi\include\c++\10.2.1\bits\stl_algobase.h ****    *
 272:c:\program files\daisytoolchain\arm-none-eabi\include\c++\10.2.1\bits\stl_algobase.h ****    *  This will work on temporary expressions, since they are only evaluated
 273:c:\program files\daisytoolchain\arm-none-eabi\include\c++\10.2.1\bits\stl_algobase.h ****    *  once, unlike a preprocessor macro.
 274:c:\program files\daisytoolchain\arm-none-eabi\include\c++\10.2.1\bits\stl_algobase.h ****   */
 275:c:\program files\daisytoolchain\arm-none-eabi\include\c++\10.2.1\bits\stl_algobase.h ****   template<typename _Tp, typename _Compare>
 276:c:\program files\daisytoolchain\arm-none-eabi\include\c++\10.2.1\bits\stl_algobase.h ****     _GLIBCXX14_CONSTEXPR
 277:c:\program files\daisytoolchain\arm-none-eabi\include\c++\10.2.1\bits\stl_algobase.h ****     inline const _Tp&
 278:c:\program files\daisytoolchain\arm-none-eabi\include\c++\10.2.1\bits\stl_algobase.h ****     min(const _Tp& __a, const _Tp& __b, _Compare __comp)
 279:c:\program files\daisytoolchain\arm-none-eabi\include\c++\10.2.1\bits\stl_algobase.h ****     {
 280:c:\program files\daisytoolchain\arm-none-eabi\include\c++\10.2.1\bits\stl_algobase.h ****       //return __comp(__b, __a) ? __b : __a;
 281:c:\program files\daisytoolchain\arm-none-eabi\include\c++\10.2.1\bits\stl_algobase.h ****       if (__comp(__b, __a))
 282:c:\program files\daisytoolchain\arm-none-eabi\include\c++\10.2.1\bits\stl_algobase.h **** 	return __b;
 283:c:\program files\daisytoolchain\arm-none-eabi\include\c++\10.2.1\bits\stl_algobase.h ****       return __a;
 284:c:\program files\daisytoolchain\arm-none-eabi\include\c++\10.2.1\bits\stl_algobase.h ****     }
 285:c:\program files\daisytoolchain\arm-none-eabi\include\c++\10.2.1\bits\stl_algobase.h **** 
 286:c:\program files\daisytoolchain\arm-none-eabi\include\c++\10.2.1\bits\stl_algobase.h ****   /**
 287:c:\program files\daisytoolchain\arm-none-eabi\include\c++\10.2.1\bits\stl_algobase.h ****    *  @brief This does what you think it does.
 288:c:\program files\daisytoolchain\arm-none-eabi\include\c++\10.2.1\bits\stl_algobase.h ****    *  @ingroup sorting_algorithms
 289:c:\program files\daisytoolchain\arm-none-eabi\include\c++\10.2.1\bits\stl_algobase.h ****    *  @param  __a  A thing of arbitrary type.
 290:c:\program files\daisytoolchain\arm-none-eabi\include\c++\10.2.1\bits\stl_algobase.h ****    *  @param  __b  Another thing of arbitrary type.
 291:c:\program files\daisytoolchain\arm-none-eabi\include\c++\10.2.1\bits\stl_algobase.h ****    *  @param  __comp  A @link comparison_functors comparison functor@endlink.
 292:c:\program files\daisytoolchain\arm-none-eabi\include\c++\10.2.1\bits\stl_algobase.h ****    *  @return   The greater of the parameters.
 293:c:\program files\daisytoolchain\arm-none-eabi\include\c++\10.2.1\bits\stl_algobase.h ****    *
 294:c:\program files\daisytoolchain\arm-none-eabi\include\c++\10.2.1\bits\stl_algobase.h ****    *  This will work on temporary expressions, since they are only evaluated
 295:c:\program files\daisytoolchain\arm-none-eabi\include\c++\10.2.1\bits\stl_algobase.h ****    *  once, unlike a preprocessor macro.
 296:c:\program files\daisytoolchain\arm-none-eabi\include\c++\10.2.1\bits\stl_algobase.h ****   */
 297:c:\program files\daisytoolchain\arm-none-eabi\include\c++\10.2.1\bits\stl_algobase.h ****   template<typename _Tp, typename _Compare>
 298:c:\program files\daisytoolchain\arm-none-eabi\include\c++\10.2.1\bits\stl_algobase.h ****     _GLIBCXX14_CONSTEXPR
 299:c:\program files\daisytoolchain\arm-none-eabi\include\c++\10.2.1\bits\stl_algobase.h ****     inline const _Tp&
 300:c:\program files\daisytoolchain\arm-none-eabi\include\c++\10.2.1\bits\stl_algobase.h ****     max(const _Tp& __a, const _Tp& __b, _Compare __comp)
 301:c:\program files\daisytoolchain\arm-none-eabi\include\c++\10.2.1\bits\stl_algobase.h ****     {
 302:c:\program files\daisytoolchain\arm-none-eabi\include\c++\10.2.1\bits\stl_algobase.h ****       //return __comp(__a, __b) ? __b : __a;
 303:c:\program files\daisytoolchain\arm-none-eabi\include\c++\10.2.1\bits\stl_algobase.h ****       if (__comp(__a, __b))
 304:c:\program files\daisytoolchain\arm-none-eabi\include\c++\10.2.1\bits\stl_algobase.h **** 	return __b;
 305:c:\program files\daisytoolchain\arm-none-eabi\include\c++\10.2.1\bits\stl_algobase.h ****       return __a;
 306:c:\program files\daisytoolchain\arm-none-eabi\include\c++\10.2.1\bits\stl_algobase.h ****     }
 307:c:\program files\daisytoolchain\arm-none-eabi\include\c++\10.2.1\bits\stl_algobase.h **** 
 308:c:\program files\daisytoolchain\arm-none-eabi\include\c++\10.2.1\bits\stl_algobase.h ****   // Fallback implementation of the function in bits/stl_iterator.h used to
 309:c:\program files\daisytoolchain\arm-none-eabi\include\c++\10.2.1\bits\stl_algobase.h ****   // remove the __normal_iterator wrapper. See copy, fill, ...
ARM GAS  C:\Users\Marco\AppData\Local\Temp\ccVZoccs.s 			page 168


 310:c:\program files\daisytoolchain\arm-none-eabi\include\c++\10.2.1\bits\stl_algobase.h ****   template<typename _Iterator>
 311:c:\program files\daisytoolchain\arm-none-eabi\include\c++\10.2.1\bits\stl_algobase.h ****     _GLIBCXX20_CONSTEXPR
 312:c:\program files\daisytoolchain\arm-none-eabi\include\c++\10.2.1\bits\stl_algobase.h ****     inline _Iterator
 313:c:\program files\daisytoolchain\arm-none-eabi\include\c++\10.2.1\bits\stl_algobase.h ****     __niter_base(_Iterator __it)
 314:c:\program files\daisytoolchain\arm-none-eabi\include\c++\10.2.1\bits\stl_algobase.h ****     _GLIBCXX_NOEXCEPT_IF(std::is_nothrow_copy_constructible<_Iterator>::value)
 315:c:\program files\daisytoolchain\arm-none-eabi\include\c++\10.2.1\bits\stl_algobase.h ****     { return __it; }
 316:c:\program files\daisytoolchain\arm-none-eabi\include\c++\10.2.1\bits\stl_algobase.h **** 
 317:c:\program files\daisytoolchain\arm-none-eabi\include\c++\10.2.1\bits\stl_algobase.h ****   // Reverse the __niter_base transformation to get a
 318:c:\program files\daisytoolchain\arm-none-eabi\include\c++\10.2.1\bits\stl_algobase.h ****   // __normal_iterator back again (this assumes that __normal_iterator
 319:c:\program files\daisytoolchain\arm-none-eabi\include\c++\10.2.1\bits\stl_algobase.h ****   // is only used to wrap random access iterators, like pointers).
 320:c:\program files\daisytoolchain\arm-none-eabi\include\c++\10.2.1\bits\stl_algobase.h ****   template<typename _From, typename _To>
 321:c:\program files\daisytoolchain\arm-none-eabi\include\c++\10.2.1\bits\stl_algobase.h ****     _GLIBCXX20_CONSTEXPR
 322:c:\program files\daisytoolchain\arm-none-eabi\include\c++\10.2.1\bits\stl_algobase.h ****     inline _From
 323:c:\program files\daisytoolchain\arm-none-eabi\include\c++\10.2.1\bits\stl_algobase.h ****     __niter_wrap(_From __from, _To __res)
 324:c:\program files\daisytoolchain\arm-none-eabi\include\c++\10.2.1\bits\stl_algobase.h ****     { return __from + (__res - std::__niter_base(__from)); }
 325:c:\program files\daisytoolchain\arm-none-eabi\include\c++\10.2.1\bits\stl_algobase.h **** 
 326:c:\program files\daisytoolchain\arm-none-eabi\include\c++\10.2.1\bits\stl_algobase.h ****   // No need to wrap, iterator already has the right type.
 327:c:\program files\daisytoolchain\arm-none-eabi\include\c++\10.2.1\bits\stl_algobase.h ****   template<typename _Iterator>
 328:c:\program files\daisytoolchain\arm-none-eabi\include\c++\10.2.1\bits\stl_algobase.h ****     _GLIBCXX20_CONSTEXPR
 329:c:\program files\daisytoolchain\arm-none-eabi\include\c++\10.2.1\bits\stl_algobase.h ****     inline _Iterator
 330:c:\program files\daisytoolchain\arm-none-eabi\include\c++\10.2.1\bits\stl_algobase.h ****     __niter_wrap(const _Iterator&, _Iterator __res)
 331:c:\program files\daisytoolchain\arm-none-eabi\include\c++\10.2.1\bits\stl_algobase.h ****     { return __res; }
 332:c:\program files\daisytoolchain\arm-none-eabi\include\c++\10.2.1\bits\stl_algobase.h **** 
 333:c:\program files\daisytoolchain\arm-none-eabi\include\c++\10.2.1\bits\stl_algobase.h ****   // All of these auxiliary structs serve two purposes.  (1) Replace
 334:c:\program files\daisytoolchain\arm-none-eabi\include\c++\10.2.1\bits\stl_algobase.h ****   // calls to copy with memmove whenever possible.  (Memmove, not memcpy,
 335:c:\program files\daisytoolchain\arm-none-eabi\include\c++\10.2.1\bits\stl_algobase.h ****   // because the input and output ranges are permitted to overlap.)
 336:c:\program files\daisytoolchain\arm-none-eabi\include\c++\10.2.1\bits\stl_algobase.h ****   // (2) If we're using random access iterators, then write the loop as
 337:c:\program files\daisytoolchain\arm-none-eabi\include\c++\10.2.1\bits\stl_algobase.h ****   // a for loop with an explicit count.
 338:c:\program files\daisytoolchain\arm-none-eabi\include\c++\10.2.1\bits\stl_algobase.h **** 
 339:c:\program files\daisytoolchain\arm-none-eabi\include\c++\10.2.1\bits\stl_algobase.h ****   template<bool _IsMove, bool _IsSimple, typename _Category>
 340:c:\program files\daisytoolchain\arm-none-eabi\include\c++\10.2.1\bits\stl_algobase.h ****     struct __copy_move
 341:c:\program files\daisytoolchain\arm-none-eabi\include\c++\10.2.1\bits\stl_algobase.h ****     {
 342:c:\program files\daisytoolchain\arm-none-eabi\include\c++\10.2.1\bits\stl_algobase.h ****       template<typename _II, typename _OI>
 343:c:\program files\daisytoolchain\arm-none-eabi\include\c++\10.2.1\bits\stl_algobase.h **** 	_GLIBCXX20_CONSTEXPR
 344:c:\program files\daisytoolchain\arm-none-eabi\include\c++\10.2.1\bits\stl_algobase.h **** 	static _OI
 345:c:\program files\daisytoolchain\arm-none-eabi\include\c++\10.2.1\bits\stl_algobase.h **** 	__copy_m(_II __first, _II __last, _OI __result)
 346:c:\program files\daisytoolchain\arm-none-eabi\include\c++\10.2.1\bits\stl_algobase.h **** 	{
 347:c:\program files\daisytoolchain\arm-none-eabi\include\c++\10.2.1\bits\stl_algobase.h **** 	  for (; __first != __last; ++__result, (void)++__first)
 348:c:\program files\daisytoolchain\arm-none-eabi\include\c++\10.2.1\bits\stl_algobase.h **** 	    *__result = *__first;
 349:c:\program files\daisytoolchain\arm-none-eabi\include\c++\10.2.1\bits\stl_algobase.h **** 	  return __result;
 350:c:\program files\daisytoolchain\arm-none-eabi\include\c++\10.2.1\bits\stl_algobase.h **** 	}
 351:c:\program files\daisytoolchain\arm-none-eabi\include\c++\10.2.1\bits\stl_algobase.h ****     };
 352:c:\program files\daisytoolchain\arm-none-eabi\include\c++\10.2.1\bits\stl_algobase.h **** 
 353:c:\program files\daisytoolchain\arm-none-eabi\include\c++\10.2.1\bits\stl_algobase.h **** #if __cplusplus >= 201103L
 354:c:\program files\daisytoolchain\arm-none-eabi\include\c++\10.2.1\bits\stl_algobase.h ****   template<typename _Category>
 355:c:\program files\daisytoolchain\arm-none-eabi\include\c++\10.2.1\bits\stl_algobase.h ****     struct __copy_move<true, false, _Category>
 356:c:\program files\daisytoolchain\arm-none-eabi\include\c++\10.2.1\bits\stl_algobase.h ****     {
 357:c:\program files\daisytoolchain\arm-none-eabi\include\c++\10.2.1\bits\stl_algobase.h ****       template<typename _II, typename _OI>
 358:c:\program files\daisytoolchain\arm-none-eabi\include\c++\10.2.1\bits\stl_algobase.h **** 	_GLIBCXX20_CONSTEXPR
 359:c:\program files\daisytoolchain\arm-none-eabi\include\c++\10.2.1\bits\stl_algobase.h **** 	static _OI
 360:c:\program files\daisytoolchain\arm-none-eabi\include\c++\10.2.1\bits\stl_algobase.h **** 	__copy_m(_II __first, _II __last, _OI __result)
 361:c:\program files\daisytoolchain\arm-none-eabi\include\c++\10.2.1\bits\stl_algobase.h **** 	{
 362:c:\program files\daisytoolchain\arm-none-eabi\include\c++\10.2.1\bits\stl_algobase.h **** 	  for (; __first != __last; ++__result, (void)++__first)
 363:c:\program files\daisytoolchain\arm-none-eabi\include\c++\10.2.1\bits\stl_algobase.h **** 	    *__result = std::move(*__first);
 364:c:\program files\daisytoolchain\arm-none-eabi\include\c++\10.2.1\bits\stl_algobase.h **** 	  return __result;
 365:c:\program files\daisytoolchain\arm-none-eabi\include\c++\10.2.1\bits\stl_algobase.h **** 	}
 366:c:\program files\daisytoolchain\arm-none-eabi\include\c++\10.2.1\bits\stl_algobase.h ****     };
ARM GAS  C:\Users\Marco\AppData\Local\Temp\ccVZoccs.s 			page 169


 367:c:\program files\daisytoolchain\arm-none-eabi\include\c++\10.2.1\bits\stl_algobase.h **** #endif
 368:c:\program files\daisytoolchain\arm-none-eabi\include\c++\10.2.1\bits\stl_algobase.h **** 
 369:c:\program files\daisytoolchain\arm-none-eabi\include\c++\10.2.1\bits\stl_algobase.h ****   template<>
 370:c:\program files\daisytoolchain\arm-none-eabi\include\c++\10.2.1\bits\stl_algobase.h ****     struct __copy_move<false, false, random_access_iterator_tag>
 371:c:\program files\daisytoolchain\arm-none-eabi\include\c++\10.2.1\bits\stl_algobase.h ****     {
 372:c:\program files\daisytoolchain\arm-none-eabi\include\c++\10.2.1\bits\stl_algobase.h ****       template<typename _II, typename _OI>
 373:c:\program files\daisytoolchain\arm-none-eabi\include\c++\10.2.1\bits\stl_algobase.h **** 	_GLIBCXX20_CONSTEXPR
 374:c:\program files\daisytoolchain\arm-none-eabi\include\c++\10.2.1\bits\stl_algobase.h **** 	static _OI
 375:c:\program files\daisytoolchain\arm-none-eabi\include\c++\10.2.1\bits\stl_algobase.h **** 	__copy_m(_II __first, _II __last, _OI __result)
 376:c:\program files\daisytoolchain\arm-none-eabi\include\c++\10.2.1\bits\stl_algobase.h **** 	{
 377:c:\program files\daisytoolchain\arm-none-eabi\include\c++\10.2.1\bits\stl_algobase.h **** 	  typedef typename iterator_traits<_II>::difference_type _Distance;
 378:c:\program files\daisytoolchain\arm-none-eabi\include\c++\10.2.1\bits\stl_algobase.h **** 	  for(_Distance __n = __last - __first; __n > 0; --__n)
 379:c:\program files\daisytoolchain\arm-none-eabi\include\c++\10.2.1\bits\stl_algobase.h **** 	    {
 380:c:\program files\daisytoolchain\arm-none-eabi\include\c++\10.2.1\bits\stl_algobase.h **** 	      *__result = *__first;
 381:c:\program files\daisytoolchain\arm-none-eabi\include\c++\10.2.1\bits\stl_algobase.h **** 	      ++__first;
 382:c:\program files\daisytoolchain\arm-none-eabi\include\c++\10.2.1\bits\stl_algobase.h **** 	      ++__result;
 383:c:\program files\daisytoolchain\arm-none-eabi\include\c++\10.2.1\bits\stl_algobase.h **** 	    }
 384:c:\program files\daisytoolchain\arm-none-eabi\include\c++\10.2.1\bits\stl_algobase.h **** 	  return __result;
 385:c:\program files\daisytoolchain\arm-none-eabi\include\c++\10.2.1\bits\stl_algobase.h **** 	}
 386:c:\program files\daisytoolchain\arm-none-eabi\include\c++\10.2.1\bits\stl_algobase.h ****     };
 387:c:\program files\daisytoolchain\arm-none-eabi\include\c++\10.2.1\bits\stl_algobase.h **** 
 388:c:\program files\daisytoolchain\arm-none-eabi\include\c++\10.2.1\bits\stl_algobase.h **** #if __cplusplus >= 201103L
 389:c:\program files\daisytoolchain\arm-none-eabi\include\c++\10.2.1\bits\stl_algobase.h ****   template<>
 390:c:\program files\daisytoolchain\arm-none-eabi\include\c++\10.2.1\bits\stl_algobase.h ****     struct __copy_move<true, false, random_access_iterator_tag>
 391:c:\program files\daisytoolchain\arm-none-eabi\include\c++\10.2.1\bits\stl_algobase.h ****     {
 392:c:\program files\daisytoolchain\arm-none-eabi\include\c++\10.2.1\bits\stl_algobase.h ****       template<typename _II, typename _OI>
 393:c:\program files\daisytoolchain\arm-none-eabi\include\c++\10.2.1\bits\stl_algobase.h **** 	_GLIBCXX20_CONSTEXPR
 394:c:\program files\daisytoolchain\arm-none-eabi\include\c++\10.2.1\bits\stl_algobase.h **** 	static _OI
 395:c:\program files\daisytoolchain\arm-none-eabi\include\c++\10.2.1\bits\stl_algobase.h **** 	__copy_m(_II __first, _II __last, _OI __result)
 396:c:\program files\daisytoolchain\arm-none-eabi\include\c++\10.2.1\bits\stl_algobase.h **** 	{
 397:c:\program files\daisytoolchain\arm-none-eabi\include\c++\10.2.1\bits\stl_algobase.h **** 	  typedef typename iterator_traits<_II>::difference_type _Distance;
 398:c:\program files\daisytoolchain\arm-none-eabi\include\c++\10.2.1\bits\stl_algobase.h **** 	  for(_Distance __n = __last - __first; __n > 0; --__n)
 399:c:\program files\daisytoolchain\arm-none-eabi\include\c++\10.2.1\bits\stl_algobase.h **** 	    {
 400:c:\program files\daisytoolchain\arm-none-eabi\include\c++\10.2.1\bits\stl_algobase.h **** 	      *__result = std::move(*__first);
 401:c:\program files\daisytoolchain\arm-none-eabi\include\c++\10.2.1\bits\stl_algobase.h **** 	      ++__first;
 402:c:\program files\daisytoolchain\arm-none-eabi\include\c++\10.2.1\bits\stl_algobase.h **** 	      ++__result;
 403:c:\program files\daisytoolchain\arm-none-eabi\include\c++\10.2.1\bits\stl_algobase.h **** 	    }
 404:c:\program files\daisytoolchain\arm-none-eabi\include\c++\10.2.1\bits\stl_algobase.h **** 	  return __result;
 405:c:\program files\daisytoolchain\arm-none-eabi\include\c++\10.2.1\bits\stl_algobase.h **** 	}
 406:c:\program files\daisytoolchain\arm-none-eabi\include\c++\10.2.1\bits\stl_algobase.h ****     };
 407:c:\program files\daisytoolchain\arm-none-eabi\include\c++\10.2.1\bits\stl_algobase.h **** #endif
 408:c:\program files\daisytoolchain\arm-none-eabi\include\c++\10.2.1\bits\stl_algobase.h **** 
 409:c:\program files\daisytoolchain\arm-none-eabi\include\c++\10.2.1\bits\stl_algobase.h ****   template<bool _IsMove>
 410:c:\program files\daisytoolchain\arm-none-eabi\include\c++\10.2.1\bits\stl_algobase.h ****     struct __copy_move<_IsMove, true, random_access_iterator_tag>
 411:c:\program files\daisytoolchain\arm-none-eabi\include\c++\10.2.1\bits\stl_algobase.h ****     {
 412:c:\program files\daisytoolchain\arm-none-eabi\include\c++\10.2.1\bits\stl_algobase.h ****       template<typename _Tp>
 413:c:\program files\daisytoolchain\arm-none-eabi\include\c++\10.2.1\bits\stl_algobase.h **** 	_GLIBCXX20_CONSTEXPR
 414:c:\program files\daisytoolchain\arm-none-eabi\include\c++\10.2.1\bits\stl_algobase.h **** 	static _Tp*
 415:c:\program files\daisytoolchain\arm-none-eabi\include\c++\10.2.1\bits\stl_algobase.h **** 	__copy_m(const _Tp* __first, const _Tp* __last, _Tp* __result)
 416:c:\program files\daisytoolchain\arm-none-eabi\include\c++\10.2.1\bits\stl_algobase.h **** 	{
 417:c:\program files\daisytoolchain\arm-none-eabi\include\c++\10.2.1\bits\stl_algobase.h **** #if __cplusplus >= 201103L
 418:c:\program files\daisytoolchain\arm-none-eabi\include\c++\10.2.1\bits\stl_algobase.h **** 	  using __assignable = conditional<_IsMove,
 419:c:\program files\daisytoolchain\arm-none-eabi\include\c++\10.2.1\bits\stl_algobase.h **** 					   is_move_assignable<_Tp>,
 420:c:\program files\daisytoolchain\arm-none-eabi\include\c++\10.2.1\bits\stl_algobase.h **** 					   is_copy_assignable<_Tp>>;
 421:c:\program files\daisytoolchain\arm-none-eabi\include\c++\10.2.1\bits\stl_algobase.h **** 	  // trivial types can have deleted assignment
 422:c:\program files\daisytoolchain\arm-none-eabi\include\c++\10.2.1\bits\stl_algobase.h **** 	  static_assert( __assignable::type::value, "type is not assignable" );
 423:c:\program files\daisytoolchain\arm-none-eabi\include\c++\10.2.1\bits\stl_algobase.h **** #endif
ARM GAS  C:\Users\Marco\AppData\Local\Temp\ccVZoccs.s 			page 170


 424:c:\program files\daisytoolchain\arm-none-eabi\include\c++\10.2.1\bits\stl_algobase.h **** 	  const ptrdiff_t _Num = __last - __first;
 425:c:\program files\daisytoolchain\arm-none-eabi\include\c++\10.2.1\bits\stl_algobase.h **** 	  if (_Num)
 426:c:\program files\daisytoolchain\arm-none-eabi\include\c++\10.2.1\bits\stl_algobase.h **** 	    __builtin_memmove(__result, __first, sizeof(_Tp) * _Num);
 427:c:\program files\daisytoolchain\arm-none-eabi\include\c++\10.2.1\bits\stl_algobase.h **** 	  return __result + _Num;
 428:c:\program files\daisytoolchain\arm-none-eabi\include\c++\10.2.1\bits\stl_algobase.h **** 	}
 429:c:\program files\daisytoolchain\arm-none-eabi\include\c++\10.2.1\bits\stl_algobase.h ****     };
 430:c:\program files\daisytoolchain\arm-none-eabi\include\c++\10.2.1\bits\stl_algobase.h **** 
 431:c:\program files\daisytoolchain\arm-none-eabi\include\c++\10.2.1\bits\stl_algobase.h ****   // Helpers for streambuf iterators (either istream or ostream).
 432:c:\program files\daisytoolchain\arm-none-eabi\include\c++\10.2.1\bits\stl_algobase.h ****   // NB: avoid including <iosfwd>, relatively large.
 433:c:\program files\daisytoolchain\arm-none-eabi\include\c++\10.2.1\bits\stl_algobase.h ****   template<typename _CharT>
 434:c:\program files\daisytoolchain\arm-none-eabi\include\c++\10.2.1\bits\stl_algobase.h ****     struct char_traits;
 435:c:\program files\daisytoolchain\arm-none-eabi\include\c++\10.2.1\bits\stl_algobase.h **** 
 436:c:\program files\daisytoolchain\arm-none-eabi\include\c++\10.2.1\bits\stl_algobase.h ****   template<typename _CharT, typename _Traits>
 437:c:\program files\daisytoolchain\arm-none-eabi\include\c++\10.2.1\bits\stl_algobase.h ****     class istreambuf_iterator;
 438:c:\program files\daisytoolchain\arm-none-eabi\include\c++\10.2.1\bits\stl_algobase.h **** 
 439:c:\program files\daisytoolchain\arm-none-eabi\include\c++\10.2.1\bits\stl_algobase.h ****   template<typename _CharT, typename _Traits>
 440:c:\program files\daisytoolchain\arm-none-eabi\include\c++\10.2.1\bits\stl_algobase.h ****     class ostreambuf_iterator;
 441:c:\program files\daisytoolchain\arm-none-eabi\include\c++\10.2.1\bits\stl_algobase.h **** 
 442:c:\program files\daisytoolchain\arm-none-eabi\include\c++\10.2.1\bits\stl_algobase.h ****   template<bool _IsMove, typename _CharT>
 443:c:\program files\daisytoolchain\arm-none-eabi\include\c++\10.2.1\bits\stl_algobase.h ****     typename __gnu_cxx::__enable_if<__is_char<_CharT>::__value,
 444:c:\program files\daisytoolchain\arm-none-eabi\include\c++\10.2.1\bits\stl_algobase.h **** 	     ostreambuf_iterator<_CharT, char_traits<_CharT> > >::__type
 445:c:\program files\daisytoolchain\arm-none-eabi\include\c++\10.2.1\bits\stl_algobase.h ****     __copy_move_a2(_CharT*, _CharT*,
 446:c:\program files\daisytoolchain\arm-none-eabi\include\c++\10.2.1\bits\stl_algobase.h **** 		   ostreambuf_iterator<_CharT, char_traits<_CharT> >);
 447:c:\program files\daisytoolchain\arm-none-eabi\include\c++\10.2.1\bits\stl_algobase.h **** 
 448:c:\program files\daisytoolchain\arm-none-eabi\include\c++\10.2.1\bits\stl_algobase.h ****   template<bool _IsMove, typename _CharT>
 449:c:\program files\daisytoolchain\arm-none-eabi\include\c++\10.2.1\bits\stl_algobase.h ****     typename __gnu_cxx::__enable_if<__is_char<_CharT>::__value,
 450:c:\program files\daisytoolchain\arm-none-eabi\include\c++\10.2.1\bits\stl_algobase.h **** 	     ostreambuf_iterator<_CharT, char_traits<_CharT> > >::__type
 451:c:\program files\daisytoolchain\arm-none-eabi\include\c++\10.2.1\bits\stl_algobase.h ****     __copy_move_a2(const _CharT*, const _CharT*,
 452:c:\program files\daisytoolchain\arm-none-eabi\include\c++\10.2.1\bits\stl_algobase.h **** 		   ostreambuf_iterator<_CharT, char_traits<_CharT> >);
 453:c:\program files\daisytoolchain\arm-none-eabi\include\c++\10.2.1\bits\stl_algobase.h **** 
 454:c:\program files\daisytoolchain\arm-none-eabi\include\c++\10.2.1\bits\stl_algobase.h ****   template<bool _IsMove, typename _CharT>
 455:c:\program files\daisytoolchain\arm-none-eabi\include\c++\10.2.1\bits\stl_algobase.h ****     typename __gnu_cxx::__enable_if<__is_char<_CharT>::__value,
 456:c:\program files\daisytoolchain\arm-none-eabi\include\c++\10.2.1\bits\stl_algobase.h **** 				    _CharT*>::__type
 457:c:\program files\daisytoolchain\arm-none-eabi\include\c++\10.2.1\bits\stl_algobase.h ****     __copy_move_a2(istreambuf_iterator<_CharT, char_traits<_CharT> >,
 458:c:\program files\daisytoolchain\arm-none-eabi\include\c++\10.2.1\bits\stl_algobase.h **** 		   istreambuf_iterator<_CharT, char_traits<_CharT> >, _CharT*);
 459:c:\program files\daisytoolchain\arm-none-eabi\include\c++\10.2.1\bits\stl_algobase.h **** 
 460:c:\program files\daisytoolchain\arm-none-eabi\include\c++\10.2.1\bits\stl_algobase.h ****   template<bool _IsMove, typename _II, typename _OI>
 461:c:\program files\daisytoolchain\arm-none-eabi\include\c++\10.2.1\bits\stl_algobase.h ****     _GLIBCXX20_CONSTEXPR
 462:c:\program files\daisytoolchain\arm-none-eabi\include\c++\10.2.1\bits\stl_algobase.h ****     inline _OI
 463:c:\program files\daisytoolchain\arm-none-eabi\include\c++\10.2.1\bits\stl_algobase.h ****     __copy_move_a2(_II __first, _II __last, _OI __result)
 464:c:\program files\daisytoolchain\arm-none-eabi\include\c++\10.2.1\bits\stl_algobase.h ****     {
 465:c:\program files\daisytoolchain\arm-none-eabi\include\c++\10.2.1\bits\stl_algobase.h ****       typedef typename iterator_traits<_II>::iterator_category _Category;
 466:c:\program files\daisytoolchain\arm-none-eabi\include\c++\10.2.1\bits\stl_algobase.h **** #ifdef __cpp_lib_is_constant_evaluated
 467:c:\program files\daisytoolchain\arm-none-eabi\include\c++\10.2.1\bits\stl_algobase.h ****       if (std::is_constant_evaluated())
 468:c:\program files\daisytoolchain\arm-none-eabi\include\c++\10.2.1\bits\stl_algobase.h **** 	return std::__copy_move<_IsMove, false, _Category>::
 469:c:\program files\daisytoolchain\arm-none-eabi\include\c++\10.2.1\bits\stl_algobase.h **** 	  __copy_m(__first, __last, __result);
 470:c:\program files\daisytoolchain\arm-none-eabi\include\c++\10.2.1\bits\stl_algobase.h **** #endif
 471:c:\program files\daisytoolchain\arm-none-eabi\include\c++\10.2.1\bits\stl_algobase.h ****       return std::__copy_move<_IsMove, __memcpyable<_OI, _II>::__value,
 472:c:\program files\daisytoolchain\arm-none-eabi\include\c++\10.2.1\bits\stl_algobase.h **** 			      _Category>::__copy_m(__first, __last, __result);
 473:c:\program files\daisytoolchain\arm-none-eabi\include\c++\10.2.1\bits\stl_algobase.h ****     }
 474:c:\program files\daisytoolchain\arm-none-eabi\include\c++\10.2.1\bits\stl_algobase.h **** 
 475:c:\program files\daisytoolchain\arm-none-eabi\include\c++\10.2.1\bits\stl_algobase.h **** _GLIBCXX_BEGIN_NAMESPACE_CONTAINER
 476:c:\program files\daisytoolchain\arm-none-eabi\include\c++\10.2.1\bits\stl_algobase.h **** 
 477:c:\program files\daisytoolchain\arm-none-eabi\include\c++\10.2.1\bits\stl_algobase.h ****   template<typename _Tp, typename _Ref, typename _Ptr>
 478:c:\program files\daisytoolchain\arm-none-eabi\include\c++\10.2.1\bits\stl_algobase.h ****     struct _Deque_iterator;
 479:c:\program files\daisytoolchain\arm-none-eabi\include\c++\10.2.1\bits\stl_algobase.h **** 
 480:c:\program files\daisytoolchain\arm-none-eabi\include\c++\10.2.1\bits\stl_algobase.h **** _GLIBCXX_END_NAMESPACE_CONTAINER
ARM GAS  C:\Users\Marco\AppData\Local\Temp\ccVZoccs.s 			page 171


 481:c:\program files\daisytoolchain\arm-none-eabi\include\c++\10.2.1\bits\stl_algobase.h **** 
 482:c:\program files\daisytoolchain\arm-none-eabi\include\c++\10.2.1\bits\stl_algobase.h ****   template<bool _IsMove,
 483:c:\program files\daisytoolchain\arm-none-eabi\include\c++\10.2.1\bits\stl_algobase.h **** 	   typename _Tp, typename _Ref, typename _Ptr, typename _OI>
 484:c:\program files\daisytoolchain\arm-none-eabi\include\c++\10.2.1\bits\stl_algobase.h ****     _OI
 485:c:\program files\daisytoolchain\arm-none-eabi\include\c++\10.2.1\bits\stl_algobase.h ****     __copy_move_a1(_GLIBCXX_STD_C::_Deque_iterator<_Tp, _Ref, _Ptr>,
 486:c:\program files\daisytoolchain\arm-none-eabi\include\c++\10.2.1\bits\stl_algobase.h **** 		   _GLIBCXX_STD_C::_Deque_iterator<_Tp, _Ref, _Ptr>,
 487:c:\program files\daisytoolchain\arm-none-eabi\include\c++\10.2.1\bits\stl_algobase.h **** 		   _OI);
 488:c:\program files\daisytoolchain\arm-none-eabi\include\c++\10.2.1\bits\stl_algobase.h **** 
 489:c:\program files\daisytoolchain\arm-none-eabi\include\c++\10.2.1\bits\stl_algobase.h ****   template<bool _IsMove,
 490:c:\program files\daisytoolchain\arm-none-eabi\include\c++\10.2.1\bits\stl_algobase.h **** 	   typename _ITp, typename _IRef, typename _IPtr, typename _OTp>
 491:c:\program files\daisytoolchain\arm-none-eabi\include\c++\10.2.1\bits\stl_algobase.h ****     _GLIBCXX_STD_C::_Deque_iterator<_OTp, _OTp&, _OTp*>
 492:c:\program files\daisytoolchain\arm-none-eabi\include\c++\10.2.1\bits\stl_algobase.h ****     __copy_move_a1(_GLIBCXX_STD_C::_Deque_iterator<_ITp, _IRef, _IPtr>,
 493:c:\program files\daisytoolchain\arm-none-eabi\include\c++\10.2.1\bits\stl_algobase.h **** 		   _GLIBCXX_STD_C::_Deque_iterator<_ITp, _IRef, _IPtr>,
 494:c:\program files\daisytoolchain\arm-none-eabi\include\c++\10.2.1\bits\stl_algobase.h **** 		   _GLIBCXX_STD_C::_Deque_iterator<_OTp, _OTp&, _OTp*>);
 495:c:\program files\daisytoolchain\arm-none-eabi\include\c++\10.2.1\bits\stl_algobase.h **** 
 496:c:\program files\daisytoolchain\arm-none-eabi\include\c++\10.2.1\bits\stl_algobase.h ****   template<bool _IsMove, typename _II, typename _Tp>
 497:c:\program files\daisytoolchain\arm-none-eabi\include\c++\10.2.1\bits\stl_algobase.h ****     typename __gnu_cxx::__enable_if<
 498:c:\program files\daisytoolchain\arm-none-eabi\include\c++\10.2.1\bits\stl_algobase.h ****       __is_random_access_iter<_II>::__value,
 499:c:\program files\daisytoolchain\arm-none-eabi\include\c++\10.2.1\bits\stl_algobase.h ****       _GLIBCXX_STD_C::_Deque_iterator<_Tp, _Tp&, _Tp*> >::__type
 500:c:\program files\daisytoolchain\arm-none-eabi\include\c++\10.2.1\bits\stl_algobase.h ****     __copy_move_a1(_II, _II, _GLIBCXX_STD_C::_Deque_iterator<_Tp, _Tp&, _Tp*>);
 501:c:\program files\daisytoolchain\arm-none-eabi\include\c++\10.2.1\bits\stl_algobase.h **** 
 502:c:\program files\daisytoolchain\arm-none-eabi\include\c++\10.2.1\bits\stl_algobase.h ****   template<bool _IsMove, typename _II, typename _OI>
 503:c:\program files\daisytoolchain\arm-none-eabi\include\c++\10.2.1\bits\stl_algobase.h ****     _GLIBCXX20_CONSTEXPR
 504:c:\program files\daisytoolchain\arm-none-eabi\include\c++\10.2.1\bits\stl_algobase.h ****     inline _OI
 505:c:\program files\daisytoolchain\arm-none-eabi\include\c++\10.2.1\bits\stl_algobase.h ****     __copy_move_a1(_II __first, _II __last, _OI __result)
 506:c:\program files\daisytoolchain\arm-none-eabi\include\c++\10.2.1\bits\stl_algobase.h ****     { return std::__copy_move_a2<_IsMove>(__first, __last, __result); }
 507:c:\program files\daisytoolchain\arm-none-eabi\include\c++\10.2.1\bits\stl_algobase.h **** 
 508:c:\program files\daisytoolchain\arm-none-eabi\include\c++\10.2.1\bits\stl_algobase.h ****   template<bool _IsMove, typename _II, typename _OI>
 509:c:\program files\daisytoolchain\arm-none-eabi\include\c++\10.2.1\bits\stl_algobase.h ****     _GLIBCXX20_CONSTEXPR
 510:c:\program files\daisytoolchain\arm-none-eabi\include\c++\10.2.1\bits\stl_algobase.h ****     inline _OI
 511:c:\program files\daisytoolchain\arm-none-eabi\include\c++\10.2.1\bits\stl_algobase.h ****     __copy_move_a(_II __first, _II __last, _OI __result)
 512:c:\program files\daisytoolchain\arm-none-eabi\include\c++\10.2.1\bits\stl_algobase.h ****     {
 513:c:\program files\daisytoolchain\arm-none-eabi\include\c++\10.2.1\bits\stl_algobase.h ****       return std::__niter_wrap(__result,
 514:c:\program files\daisytoolchain\arm-none-eabi\include\c++\10.2.1\bits\stl_algobase.h **** 		std::__copy_move_a1<_IsMove>(std::__niter_base(__first),
 515:c:\program files\daisytoolchain\arm-none-eabi\include\c++\10.2.1\bits\stl_algobase.h **** 					     std::__niter_base(__last),
 516:c:\program files\daisytoolchain\arm-none-eabi\include\c++\10.2.1\bits\stl_algobase.h **** 					     std::__niter_base(__result)));
 517:c:\program files\daisytoolchain\arm-none-eabi\include\c++\10.2.1\bits\stl_algobase.h ****     }
 518:c:\program files\daisytoolchain\arm-none-eabi\include\c++\10.2.1\bits\stl_algobase.h **** 
 519:c:\program files\daisytoolchain\arm-none-eabi\include\c++\10.2.1\bits\stl_algobase.h ****   template<bool _IsMove,
 520:c:\program files\daisytoolchain\arm-none-eabi\include\c++\10.2.1\bits\stl_algobase.h **** 	   typename _Ite, typename _Seq, typename _Cat, typename _OI>
 521:c:\program files\daisytoolchain\arm-none-eabi\include\c++\10.2.1\bits\stl_algobase.h ****     _OI
 522:c:\program files\daisytoolchain\arm-none-eabi\include\c++\10.2.1\bits\stl_algobase.h ****     __copy_move_a(const ::__gnu_debug::_Safe_iterator<_Ite, _Seq, _Cat>&,
 523:c:\program files\daisytoolchain\arm-none-eabi\include\c++\10.2.1\bits\stl_algobase.h **** 		  const ::__gnu_debug::_Safe_iterator<_Ite, _Seq, _Cat>&,
 524:c:\program files\daisytoolchain\arm-none-eabi\include\c++\10.2.1\bits\stl_algobase.h **** 		  _OI);
 525:c:\program files\daisytoolchain\arm-none-eabi\include\c++\10.2.1\bits\stl_algobase.h **** 
 526:c:\program files\daisytoolchain\arm-none-eabi\include\c++\10.2.1\bits\stl_algobase.h ****   template<bool _IsMove,
 527:c:\program files\daisytoolchain\arm-none-eabi\include\c++\10.2.1\bits\stl_algobase.h **** 	   typename _II, typename _Ite, typename _Seq, typename _Cat>
 528:c:\program files\daisytoolchain\arm-none-eabi\include\c++\10.2.1\bits\stl_algobase.h ****     __gnu_debug::_Safe_iterator<_Ite, _Seq, _Cat>
 529:c:\program files\daisytoolchain\arm-none-eabi\include\c++\10.2.1\bits\stl_algobase.h ****     __copy_move_a(_II, _II,
 530:c:\program files\daisytoolchain\arm-none-eabi\include\c++\10.2.1\bits\stl_algobase.h **** 		  const ::__gnu_debug::_Safe_iterator<_Ite, _Seq, _Cat>&);
 531:c:\program files\daisytoolchain\arm-none-eabi\include\c++\10.2.1\bits\stl_algobase.h **** 
 532:c:\program files\daisytoolchain\arm-none-eabi\include\c++\10.2.1\bits\stl_algobase.h ****   template<bool _IsMove,
 533:c:\program files\daisytoolchain\arm-none-eabi\include\c++\10.2.1\bits\stl_algobase.h **** 	   typename _IIte, typename _ISeq, typename _ICat,
 534:c:\program files\daisytoolchain\arm-none-eabi\include\c++\10.2.1\bits\stl_algobase.h **** 	   typename _OIte, typename _OSeq, typename _OCat>
 535:c:\program files\daisytoolchain\arm-none-eabi\include\c++\10.2.1\bits\stl_algobase.h ****     ::__gnu_debug::_Safe_iterator<_OIte, _OSeq, _OCat>
 536:c:\program files\daisytoolchain\arm-none-eabi\include\c++\10.2.1\bits\stl_algobase.h ****     __copy_move_a(const ::__gnu_debug::_Safe_iterator<_IIte, _ISeq, _ICat>&,
 537:c:\program files\daisytoolchain\arm-none-eabi\include\c++\10.2.1\bits\stl_algobase.h **** 		  const ::__gnu_debug::_Safe_iterator<_IIte, _ISeq, _ICat>&,
ARM GAS  C:\Users\Marco\AppData\Local\Temp\ccVZoccs.s 			page 172


 538:c:\program files\daisytoolchain\arm-none-eabi\include\c++\10.2.1\bits\stl_algobase.h **** 		  const ::__gnu_debug::_Safe_iterator<_OIte, _OSeq, _OCat>&);
 539:c:\program files\daisytoolchain\arm-none-eabi\include\c++\10.2.1\bits\stl_algobase.h **** 
 540:c:\program files\daisytoolchain\arm-none-eabi\include\c++\10.2.1\bits\stl_algobase.h ****   /**
 541:c:\program files\daisytoolchain\arm-none-eabi\include\c++\10.2.1\bits\stl_algobase.h ****    *  @brief Copies the range [first,last) into result.
 542:c:\program files\daisytoolchain\arm-none-eabi\include\c++\10.2.1\bits\stl_algobase.h ****    *  @ingroup mutating_algorithms
 543:c:\program files\daisytoolchain\arm-none-eabi\include\c++\10.2.1\bits\stl_algobase.h ****    *  @param  __first  An input iterator.
 544:c:\program files\daisytoolchain\arm-none-eabi\include\c++\10.2.1\bits\stl_algobase.h ****    *  @param  __last   An input iterator.
 545:c:\program files\daisytoolchain\arm-none-eabi\include\c++\10.2.1\bits\stl_algobase.h ****    *  @param  __result An output iterator.
 546:c:\program files\daisytoolchain\arm-none-eabi\include\c++\10.2.1\bits\stl_algobase.h ****    *  @return   result + (last - first)
 547:c:\program files\daisytoolchain\arm-none-eabi\include\c++\10.2.1\bits\stl_algobase.h ****    *
 548:c:\program files\daisytoolchain\arm-none-eabi\include\c++\10.2.1\bits\stl_algobase.h ****    *  This inline function will boil down to a call to @c memmove whenever
 549:c:\program files\daisytoolchain\arm-none-eabi\include\c++\10.2.1\bits\stl_algobase.h ****    *  possible.  Failing that, if random access iterators are passed, then the
 550:c:\program files\daisytoolchain\arm-none-eabi\include\c++\10.2.1\bits\stl_algobase.h ****    *  loop count will be known (and therefore a candidate for compiler
 551:c:\program files\daisytoolchain\arm-none-eabi\include\c++\10.2.1\bits\stl_algobase.h ****    *  optimizations such as unrolling).  Result may not be contained within
 552:c:\program files\daisytoolchain\arm-none-eabi\include\c++\10.2.1\bits\stl_algobase.h ****    *  [first,last); the copy_backward function should be used instead.
 553:c:\program files\daisytoolchain\arm-none-eabi\include\c++\10.2.1\bits\stl_algobase.h ****    *
 554:c:\program files\daisytoolchain\arm-none-eabi\include\c++\10.2.1\bits\stl_algobase.h ****    *  Note that the end of the output range is permitted to be contained
 555:c:\program files\daisytoolchain\arm-none-eabi\include\c++\10.2.1\bits\stl_algobase.h ****    *  within [first,last).
 556:c:\program files\daisytoolchain\arm-none-eabi\include\c++\10.2.1\bits\stl_algobase.h ****   */
 557:c:\program files\daisytoolchain\arm-none-eabi\include\c++\10.2.1\bits\stl_algobase.h ****   template<typename _II, typename _OI>
 558:c:\program files\daisytoolchain\arm-none-eabi\include\c++\10.2.1\bits\stl_algobase.h ****     _GLIBCXX20_CONSTEXPR
 559:c:\program files\daisytoolchain\arm-none-eabi\include\c++\10.2.1\bits\stl_algobase.h ****     inline _OI
 560:c:\program files\daisytoolchain\arm-none-eabi\include\c++\10.2.1\bits\stl_algobase.h ****     copy(_II __first, _II __last, _OI __result)
 561:c:\program files\daisytoolchain\arm-none-eabi\include\c++\10.2.1\bits\stl_algobase.h ****     {
 562:c:\program files\daisytoolchain\arm-none-eabi\include\c++\10.2.1\bits\stl_algobase.h ****       // concept requirements
 563:c:\program files\daisytoolchain\arm-none-eabi\include\c++\10.2.1\bits\stl_algobase.h ****       __glibcxx_function_requires(_InputIteratorConcept<_II>)
 564:c:\program files\daisytoolchain\arm-none-eabi\include\c++\10.2.1\bits\stl_algobase.h ****       __glibcxx_function_requires(_OutputIteratorConcept<_OI,
 565:c:\program files\daisytoolchain\arm-none-eabi\include\c++\10.2.1\bits\stl_algobase.h **** 	    typename iterator_traits<_II>::value_type>)
 566:c:\program files\daisytoolchain\arm-none-eabi\include\c++\10.2.1\bits\stl_algobase.h ****       __glibcxx_requires_can_increment_range(__first, __last, __result);
 567:c:\program files\daisytoolchain\arm-none-eabi\include\c++\10.2.1\bits\stl_algobase.h **** 
 568:c:\program files\daisytoolchain\arm-none-eabi\include\c++\10.2.1\bits\stl_algobase.h ****       return std::__copy_move_a<__is_move_iterator<_II>::__value>
 569:c:\program files\daisytoolchain\arm-none-eabi\include\c++\10.2.1\bits\stl_algobase.h **** 	     (std::__miter_base(__first), std::__miter_base(__last), __result);
 570:c:\program files\daisytoolchain\arm-none-eabi\include\c++\10.2.1\bits\stl_algobase.h ****     }
 571:c:\program files\daisytoolchain\arm-none-eabi\include\c++\10.2.1\bits\stl_algobase.h **** 
 572:c:\program files\daisytoolchain\arm-none-eabi\include\c++\10.2.1\bits\stl_algobase.h **** #if __cplusplus >= 201103L
 573:c:\program files\daisytoolchain\arm-none-eabi\include\c++\10.2.1\bits\stl_algobase.h ****   /**
 574:c:\program files\daisytoolchain\arm-none-eabi\include\c++\10.2.1\bits\stl_algobase.h ****    *  @brief Moves the range [first,last) into result.
 575:c:\program files\daisytoolchain\arm-none-eabi\include\c++\10.2.1\bits\stl_algobase.h ****    *  @ingroup mutating_algorithms
 576:c:\program files\daisytoolchain\arm-none-eabi\include\c++\10.2.1\bits\stl_algobase.h ****    *  @param  __first  An input iterator.
 577:c:\program files\daisytoolchain\arm-none-eabi\include\c++\10.2.1\bits\stl_algobase.h ****    *  @param  __last   An input iterator.
 578:c:\program files\daisytoolchain\arm-none-eabi\include\c++\10.2.1\bits\stl_algobase.h ****    *  @param  __result An output iterator.
 579:c:\program files\daisytoolchain\arm-none-eabi\include\c++\10.2.1\bits\stl_algobase.h ****    *  @return   result + (last - first)
 580:c:\program files\daisytoolchain\arm-none-eabi\include\c++\10.2.1\bits\stl_algobase.h ****    *
 581:c:\program files\daisytoolchain\arm-none-eabi\include\c++\10.2.1\bits\stl_algobase.h ****    *  This inline function will boil down to a call to @c memmove whenever
 582:c:\program files\daisytoolchain\arm-none-eabi\include\c++\10.2.1\bits\stl_algobase.h ****    *  possible.  Failing that, if random access iterators are passed, then the
 583:c:\program files\daisytoolchain\arm-none-eabi\include\c++\10.2.1\bits\stl_algobase.h ****    *  loop count will be known (and therefore a candidate for compiler
 584:c:\program files\daisytoolchain\arm-none-eabi\include\c++\10.2.1\bits\stl_algobase.h ****    *  optimizations such as unrolling).  Result may not be contained within
 585:c:\program files\daisytoolchain\arm-none-eabi\include\c++\10.2.1\bits\stl_algobase.h ****    *  [first,last); the move_backward function should be used instead.
 586:c:\program files\daisytoolchain\arm-none-eabi\include\c++\10.2.1\bits\stl_algobase.h ****    *
 587:c:\program files\daisytoolchain\arm-none-eabi\include\c++\10.2.1\bits\stl_algobase.h ****    *  Note that the end of the output range is permitted to be contained
 588:c:\program files\daisytoolchain\arm-none-eabi\include\c++\10.2.1\bits\stl_algobase.h ****    *  within [first,last).
 589:c:\program files\daisytoolchain\arm-none-eabi\include\c++\10.2.1\bits\stl_algobase.h ****   */
 590:c:\program files\daisytoolchain\arm-none-eabi\include\c++\10.2.1\bits\stl_algobase.h ****   template<typename _II, typename _OI>
 591:c:\program files\daisytoolchain\arm-none-eabi\include\c++\10.2.1\bits\stl_algobase.h ****     _GLIBCXX20_CONSTEXPR
 592:c:\program files\daisytoolchain\arm-none-eabi\include\c++\10.2.1\bits\stl_algobase.h ****     inline _OI
 593:c:\program files\daisytoolchain\arm-none-eabi\include\c++\10.2.1\bits\stl_algobase.h ****     move(_II __first, _II __last, _OI __result)
 594:c:\program files\daisytoolchain\arm-none-eabi\include\c++\10.2.1\bits\stl_algobase.h ****     {
ARM GAS  C:\Users\Marco\AppData\Local\Temp\ccVZoccs.s 			page 173


 595:c:\program files\daisytoolchain\arm-none-eabi\include\c++\10.2.1\bits\stl_algobase.h ****       // concept requirements
 596:c:\program files\daisytoolchain\arm-none-eabi\include\c++\10.2.1\bits\stl_algobase.h ****       __glibcxx_function_requires(_InputIteratorConcept<_II>)
 597:c:\program files\daisytoolchain\arm-none-eabi\include\c++\10.2.1\bits\stl_algobase.h ****       __glibcxx_function_requires(_OutputIteratorConcept<_OI,
 598:c:\program files\daisytoolchain\arm-none-eabi\include\c++\10.2.1\bits\stl_algobase.h **** 	    typename iterator_traits<_II>::value_type>)
 599:c:\program files\daisytoolchain\arm-none-eabi\include\c++\10.2.1\bits\stl_algobase.h ****       __glibcxx_requires_can_increment_range(__first, __last, __result);
 600:c:\program files\daisytoolchain\arm-none-eabi\include\c++\10.2.1\bits\stl_algobase.h **** 
 601:c:\program files\daisytoolchain\arm-none-eabi\include\c++\10.2.1\bits\stl_algobase.h ****       return std::__copy_move_a<true>(std::__miter_base(__first),
 602:c:\program files\daisytoolchain\arm-none-eabi\include\c++\10.2.1\bits\stl_algobase.h **** 				      std::__miter_base(__last), __result);
 603:c:\program files\daisytoolchain\arm-none-eabi\include\c++\10.2.1\bits\stl_algobase.h ****     }
 604:c:\program files\daisytoolchain\arm-none-eabi\include\c++\10.2.1\bits\stl_algobase.h **** 
 605:c:\program files\daisytoolchain\arm-none-eabi\include\c++\10.2.1\bits\stl_algobase.h **** #define _GLIBCXX_MOVE3(_Tp, _Up, _Vp) std::move(_Tp, _Up, _Vp)
 606:c:\program files\daisytoolchain\arm-none-eabi\include\c++\10.2.1\bits\stl_algobase.h **** #else
 607:c:\program files\daisytoolchain\arm-none-eabi\include\c++\10.2.1\bits\stl_algobase.h **** #define _GLIBCXX_MOVE3(_Tp, _Up, _Vp) std::copy(_Tp, _Up, _Vp)
 608:c:\program files\daisytoolchain\arm-none-eabi\include\c++\10.2.1\bits\stl_algobase.h **** #endif
 609:c:\program files\daisytoolchain\arm-none-eabi\include\c++\10.2.1\bits\stl_algobase.h **** 
 610:c:\program files\daisytoolchain\arm-none-eabi\include\c++\10.2.1\bits\stl_algobase.h ****   template<bool _IsMove, bool _IsSimple, typename _Category>
 611:c:\program files\daisytoolchain\arm-none-eabi\include\c++\10.2.1\bits\stl_algobase.h ****     struct __copy_move_backward
 612:c:\program files\daisytoolchain\arm-none-eabi\include\c++\10.2.1\bits\stl_algobase.h ****     {
 613:c:\program files\daisytoolchain\arm-none-eabi\include\c++\10.2.1\bits\stl_algobase.h ****       template<typename _BI1, typename _BI2>
 614:c:\program files\daisytoolchain\arm-none-eabi\include\c++\10.2.1\bits\stl_algobase.h **** 	_GLIBCXX20_CONSTEXPR
 615:c:\program files\daisytoolchain\arm-none-eabi\include\c++\10.2.1\bits\stl_algobase.h **** 	static _BI2
 616:c:\program files\daisytoolchain\arm-none-eabi\include\c++\10.2.1\bits\stl_algobase.h **** 	__copy_move_b(_BI1 __first, _BI1 __last, _BI2 __result)
 617:c:\program files\daisytoolchain\arm-none-eabi\include\c++\10.2.1\bits\stl_algobase.h **** 	{
 618:c:\program files\daisytoolchain\arm-none-eabi\include\c++\10.2.1\bits\stl_algobase.h **** 	  while (__first != __last)
 619:c:\program files\daisytoolchain\arm-none-eabi\include\c++\10.2.1\bits\stl_algobase.h **** 	    *--__result = *--__last;
 620:c:\program files\daisytoolchain\arm-none-eabi\include\c++\10.2.1\bits\stl_algobase.h **** 	  return __result;
 621:c:\program files\daisytoolchain\arm-none-eabi\include\c++\10.2.1\bits\stl_algobase.h **** 	}
 622:c:\program files\daisytoolchain\arm-none-eabi\include\c++\10.2.1\bits\stl_algobase.h ****     };
 623:c:\program files\daisytoolchain\arm-none-eabi\include\c++\10.2.1\bits\stl_algobase.h **** 
 624:c:\program files\daisytoolchain\arm-none-eabi\include\c++\10.2.1\bits\stl_algobase.h **** #if __cplusplus >= 201103L
 625:c:\program files\daisytoolchain\arm-none-eabi\include\c++\10.2.1\bits\stl_algobase.h ****   template<typename _Category>
 626:c:\program files\daisytoolchain\arm-none-eabi\include\c++\10.2.1\bits\stl_algobase.h ****     struct __copy_move_backward<true, false, _Category>
 627:c:\program files\daisytoolchain\arm-none-eabi\include\c++\10.2.1\bits\stl_algobase.h ****     {
 628:c:\program files\daisytoolchain\arm-none-eabi\include\c++\10.2.1\bits\stl_algobase.h ****       template<typename _BI1, typename _BI2>
 629:c:\program files\daisytoolchain\arm-none-eabi\include\c++\10.2.1\bits\stl_algobase.h **** 	_GLIBCXX20_CONSTEXPR
 630:c:\program files\daisytoolchain\arm-none-eabi\include\c++\10.2.1\bits\stl_algobase.h **** 	static _BI2
 631:c:\program files\daisytoolchain\arm-none-eabi\include\c++\10.2.1\bits\stl_algobase.h **** 	__copy_move_b(_BI1 __first, _BI1 __last, _BI2 __result)
 632:c:\program files\daisytoolchain\arm-none-eabi\include\c++\10.2.1\bits\stl_algobase.h **** 	{
 633:c:\program files\daisytoolchain\arm-none-eabi\include\c++\10.2.1\bits\stl_algobase.h **** 	  while (__first != __last)
 634:c:\program files\daisytoolchain\arm-none-eabi\include\c++\10.2.1\bits\stl_algobase.h **** 	    *--__result = std::move(*--__last);
 635:c:\program files\daisytoolchain\arm-none-eabi\include\c++\10.2.1\bits\stl_algobase.h **** 	  return __result;
 636:c:\program files\daisytoolchain\arm-none-eabi\include\c++\10.2.1\bits\stl_algobase.h **** 	}
 637:c:\program files\daisytoolchain\arm-none-eabi\include\c++\10.2.1\bits\stl_algobase.h ****     };
 638:c:\program files\daisytoolchain\arm-none-eabi\include\c++\10.2.1\bits\stl_algobase.h **** #endif
 639:c:\program files\daisytoolchain\arm-none-eabi\include\c++\10.2.1\bits\stl_algobase.h **** 
 640:c:\program files\daisytoolchain\arm-none-eabi\include\c++\10.2.1\bits\stl_algobase.h ****   template<>
 641:c:\program files\daisytoolchain\arm-none-eabi\include\c++\10.2.1\bits\stl_algobase.h ****     struct __copy_move_backward<false, false, random_access_iterator_tag>
 642:c:\program files\daisytoolchain\arm-none-eabi\include\c++\10.2.1\bits\stl_algobase.h ****     {
 643:c:\program files\daisytoolchain\arm-none-eabi\include\c++\10.2.1\bits\stl_algobase.h ****       template<typename _BI1, typename _BI2>
 644:c:\program files\daisytoolchain\arm-none-eabi\include\c++\10.2.1\bits\stl_algobase.h **** 	_GLIBCXX20_CONSTEXPR
 645:c:\program files\daisytoolchain\arm-none-eabi\include\c++\10.2.1\bits\stl_algobase.h **** 	static _BI2
 646:c:\program files\daisytoolchain\arm-none-eabi\include\c++\10.2.1\bits\stl_algobase.h **** 	__copy_move_b(_BI1 __first, _BI1 __last, _BI2 __result)
 647:c:\program files\daisytoolchain\arm-none-eabi\include\c++\10.2.1\bits\stl_algobase.h **** 	{
 648:c:\program files\daisytoolchain\arm-none-eabi\include\c++\10.2.1\bits\stl_algobase.h **** 	  typename iterator_traits<_BI1>::difference_type
 649:c:\program files\daisytoolchain\arm-none-eabi\include\c++\10.2.1\bits\stl_algobase.h **** 	    __n = __last - __first;
 650:c:\program files\daisytoolchain\arm-none-eabi\include\c++\10.2.1\bits\stl_algobase.h **** 	  for (; __n > 0; --__n)
 651:c:\program files\daisytoolchain\arm-none-eabi\include\c++\10.2.1\bits\stl_algobase.h **** 	    *--__result = *--__last;
ARM GAS  C:\Users\Marco\AppData\Local\Temp\ccVZoccs.s 			page 174


 652:c:\program files\daisytoolchain\arm-none-eabi\include\c++\10.2.1\bits\stl_algobase.h **** 	  return __result;
 653:c:\program files\daisytoolchain\arm-none-eabi\include\c++\10.2.1\bits\stl_algobase.h **** 	}
 654:c:\program files\daisytoolchain\arm-none-eabi\include\c++\10.2.1\bits\stl_algobase.h ****     };
 655:c:\program files\daisytoolchain\arm-none-eabi\include\c++\10.2.1\bits\stl_algobase.h **** 
 656:c:\program files\daisytoolchain\arm-none-eabi\include\c++\10.2.1\bits\stl_algobase.h **** #if __cplusplus >= 201103L
 657:c:\program files\daisytoolchain\arm-none-eabi\include\c++\10.2.1\bits\stl_algobase.h ****   template<>
 658:c:\program files\daisytoolchain\arm-none-eabi\include\c++\10.2.1\bits\stl_algobase.h ****     struct __copy_move_backward<true, false, random_access_iterator_tag>
 659:c:\program files\daisytoolchain\arm-none-eabi\include\c++\10.2.1\bits\stl_algobase.h ****     {
 660:c:\program files\daisytoolchain\arm-none-eabi\include\c++\10.2.1\bits\stl_algobase.h ****       template<typename _BI1, typename _BI2>
 661:c:\program files\daisytoolchain\arm-none-eabi\include\c++\10.2.1\bits\stl_algobase.h **** 	_GLIBCXX20_CONSTEXPR
 662:c:\program files\daisytoolchain\arm-none-eabi\include\c++\10.2.1\bits\stl_algobase.h **** 	static _BI2
 663:c:\program files\daisytoolchain\arm-none-eabi\include\c++\10.2.1\bits\stl_algobase.h **** 	__copy_move_b(_BI1 __first, _BI1 __last, _BI2 __result)
 664:c:\program files\daisytoolchain\arm-none-eabi\include\c++\10.2.1\bits\stl_algobase.h **** 	{
 665:c:\program files\daisytoolchain\arm-none-eabi\include\c++\10.2.1\bits\stl_algobase.h **** 	  typename iterator_traits<_BI1>::difference_type
 666:c:\program files\daisytoolchain\arm-none-eabi\include\c++\10.2.1\bits\stl_algobase.h **** 	    __n = __last - __first;
 667:c:\program files\daisytoolchain\arm-none-eabi\include\c++\10.2.1\bits\stl_algobase.h **** 	  for (; __n > 0; --__n)
 668:c:\program files\daisytoolchain\arm-none-eabi\include\c++\10.2.1\bits\stl_algobase.h **** 	    *--__result = std::move(*--__last);
 669:c:\program files\daisytoolchain\arm-none-eabi\include\c++\10.2.1\bits\stl_algobase.h **** 	  return __result;
 670:c:\program files\daisytoolchain\arm-none-eabi\include\c++\10.2.1\bits\stl_algobase.h **** 	}
 671:c:\program files\daisytoolchain\arm-none-eabi\include\c++\10.2.1\bits\stl_algobase.h ****     };
 672:c:\program files\daisytoolchain\arm-none-eabi\include\c++\10.2.1\bits\stl_algobase.h **** #endif
 673:c:\program files\daisytoolchain\arm-none-eabi\include\c++\10.2.1\bits\stl_algobase.h **** 
 674:c:\program files\daisytoolchain\arm-none-eabi\include\c++\10.2.1\bits\stl_algobase.h ****   template<bool _IsMove>
 675:c:\program files\daisytoolchain\arm-none-eabi\include\c++\10.2.1\bits\stl_algobase.h ****     struct __copy_move_backward<_IsMove, true, random_access_iterator_tag>
 676:c:\program files\daisytoolchain\arm-none-eabi\include\c++\10.2.1\bits\stl_algobase.h ****     {
 677:c:\program files\daisytoolchain\arm-none-eabi\include\c++\10.2.1\bits\stl_algobase.h ****       template<typename _Tp>
 678:c:\program files\daisytoolchain\arm-none-eabi\include\c++\10.2.1\bits\stl_algobase.h **** 	_GLIBCXX20_CONSTEXPR
 679:c:\program files\daisytoolchain\arm-none-eabi\include\c++\10.2.1\bits\stl_algobase.h **** 	static _Tp*
 680:c:\program files\daisytoolchain\arm-none-eabi\include\c++\10.2.1\bits\stl_algobase.h **** 	__copy_move_b(const _Tp* __first, const _Tp* __last, _Tp* __result)
 681:c:\program files\daisytoolchain\arm-none-eabi\include\c++\10.2.1\bits\stl_algobase.h **** 	{
 682:c:\program files\daisytoolchain\arm-none-eabi\include\c++\10.2.1\bits\stl_algobase.h **** #if __cplusplus >= 201103L
 683:c:\program files\daisytoolchain\arm-none-eabi\include\c++\10.2.1\bits\stl_algobase.h **** 	  using __assignable = conditional<_IsMove,
 684:c:\program files\daisytoolchain\arm-none-eabi\include\c++\10.2.1\bits\stl_algobase.h **** 					   is_move_assignable<_Tp>,
 685:c:\program files\daisytoolchain\arm-none-eabi\include\c++\10.2.1\bits\stl_algobase.h **** 					   is_copy_assignable<_Tp>>;
 686:c:\program files\daisytoolchain\arm-none-eabi\include\c++\10.2.1\bits\stl_algobase.h **** 	  // trivial types can have deleted assignment
 687:c:\program files\daisytoolchain\arm-none-eabi\include\c++\10.2.1\bits\stl_algobase.h **** 	  static_assert( __assignable::type::value, "type is not assignable" );
 688:c:\program files\daisytoolchain\arm-none-eabi\include\c++\10.2.1\bits\stl_algobase.h **** #endif
 689:c:\program files\daisytoolchain\arm-none-eabi\include\c++\10.2.1\bits\stl_algobase.h **** 	  const ptrdiff_t _Num = __last - __first;
 690:c:\program files\daisytoolchain\arm-none-eabi\include\c++\10.2.1\bits\stl_algobase.h **** 	  if (_Num)
 691:c:\program files\daisytoolchain\arm-none-eabi\include\c++\10.2.1\bits\stl_algobase.h **** 	    __builtin_memmove(__result - _Num, __first, sizeof(_Tp) * _Num);
 692:c:\program files\daisytoolchain\arm-none-eabi\include\c++\10.2.1\bits\stl_algobase.h **** 	  return __result - _Num;
 693:c:\program files\daisytoolchain\arm-none-eabi\include\c++\10.2.1\bits\stl_algobase.h **** 	}
 694:c:\program files\daisytoolchain\arm-none-eabi\include\c++\10.2.1\bits\stl_algobase.h ****     };
 695:c:\program files\daisytoolchain\arm-none-eabi\include\c++\10.2.1\bits\stl_algobase.h **** 
 696:c:\program files\daisytoolchain\arm-none-eabi\include\c++\10.2.1\bits\stl_algobase.h ****   template<bool _IsMove, typename _BI1, typename _BI2>
 697:c:\program files\daisytoolchain\arm-none-eabi\include\c++\10.2.1\bits\stl_algobase.h ****     _GLIBCXX20_CONSTEXPR
 698:c:\program files\daisytoolchain\arm-none-eabi\include\c++\10.2.1\bits\stl_algobase.h ****     inline _BI2
 699:c:\program files\daisytoolchain\arm-none-eabi\include\c++\10.2.1\bits\stl_algobase.h ****     __copy_move_backward_a2(_BI1 __first, _BI1 __last, _BI2 __result)
 700:c:\program files\daisytoolchain\arm-none-eabi\include\c++\10.2.1\bits\stl_algobase.h ****     {
 701:c:\program files\daisytoolchain\arm-none-eabi\include\c++\10.2.1\bits\stl_algobase.h ****       typedef typename iterator_traits<_BI1>::iterator_category _Category;
 702:c:\program files\daisytoolchain\arm-none-eabi\include\c++\10.2.1\bits\stl_algobase.h **** #ifdef __cpp_lib_is_constant_evaluated
 703:c:\program files\daisytoolchain\arm-none-eabi\include\c++\10.2.1\bits\stl_algobase.h ****       if (std::is_constant_evaluated())
 704:c:\program files\daisytoolchain\arm-none-eabi\include\c++\10.2.1\bits\stl_algobase.h **** 	return std::__copy_move_backward<_IsMove, false, _Category>::
 705:c:\program files\daisytoolchain\arm-none-eabi\include\c++\10.2.1\bits\stl_algobase.h **** 	  __copy_move_b(__first, __last, __result);
 706:c:\program files\daisytoolchain\arm-none-eabi\include\c++\10.2.1\bits\stl_algobase.h **** #endif
 707:c:\program files\daisytoolchain\arm-none-eabi\include\c++\10.2.1\bits\stl_algobase.h ****       return std::__copy_move_backward<_IsMove,
 708:c:\program files\daisytoolchain\arm-none-eabi\include\c++\10.2.1\bits\stl_algobase.h **** 				       __memcpyable<_BI2, _BI1>::__value,
ARM GAS  C:\Users\Marco\AppData\Local\Temp\ccVZoccs.s 			page 175


 709:c:\program files\daisytoolchain\arm-none-eabi\include\c++\10.2.1\bits\stl_algobase.h **** 				       _Category>::__copy_move_b(__first,
 710:c:\program files\daisytoolchain\arm-none-eabi\include\c++\10.2.1\bits\stl_algobase.h **** 								 __last,
 711:c:\program files\daisytoolchain\arm-none-eabi\include\c++\10.2.1\bits\stl_algobase.h **** 								 __result);
 712:c:\program files\daisytoolchain\arm-none-eabi\include\c++\10.2.1\bits\stl_algobase.h ****     }
 713:c:\program files\daisytoolchain\arm-none-eabi\include\c++\10.2.1\bits\stl_algobase.h **** 
 714:c:\program files\daisytoolchain\arm-none-eabi\include\c++\10.2.1\bits\stl_algobase.h ****   template<bool _IsMove, typename _BI1, typename _BI2>
 715:c:\program files\daisytoolchain\arm-none-eabi\include\c++\10.2.1\bits\stl_algobase.h ****     _GLIBCXX20_CONSTEXPR
 716:c:\program files\daisytoolchain\arm-none-eabi\include\c++\10.2.1\bits\stl_algobase.h ****     inline _BI2
 717:c:\program files\daisytoolchain\arm-none-eabi\include\c++\10.2.1\bits\stl_algobase.h ****     __copy_move_backward_a1(_BI1 __first, _BI1 __last, _BI2 __result)
 718:c:\program files\daisytoolchain\arm-none-eabi\include\c++\10.2.1\bits\stl_algobase.h ****     { return std::__copy_move_backward_a2<_IsMove>(__first, __last, __result); }
 719:c:\program files\daisytoolchain\arm-none-eabi\include\c++\10.2.1\bits\stl_algobase.h **** 
 720:c:\program files\daisytoolchain\arm-none-eabi\include\c++\10.2.1\bits\stl_algobase.h ****   template<bool _IsMove,
 721:c:\program files\daisytoolchain\arm-none-eabi\include\c++\10.2.1\bits\stl_algobase.h **** 	   typename _Tp, typename _Ref, typename _Ptr, typename _OI>
 722:c:\program files\daisytoolchain\arm-none-eabi\include\c++\10.2.1\bits\stl_algobase.h ****     _OI
 723:c:\program files\daisytoolchain\arm-none-eabi\include\c++\10.2.1\bits\stl_algobase.h ****     __copy_move_backward_a1(_GLIBCXX_STD_C::_Deque_iterator<_Tp, _Ref, _Ptr>,
 724:c:\program files\daisytoolchain\arm-none-eabi\include\c++\10.2.1\bits\stl_algobase.h **** 			    _GLIBCXX_STD_C::_Deque_iterator<_Tp, _Ref, _Ptr>,
 725:c:\program files\daisytoolchain\arm-none-eabi\include\c++\10.2.1\bits\stl_algobase.h **** 			    _OI);
 726:c:\program files\daisytoolchain\arm-none-eabi\include\c++\10.2.1\bits\stl_algobase.h **** 
 727:c:\program files\daisytoolchain\arm-none-eabi\include\c++\10.2.1\bits\stl_algobase.h ****   template<bool _IsMove,
 728:c:\program files\daisytoolchain\arm-none-eabi\include\c++\10.2.1\bits\stl_algobase.h **** 	   typename _ITp, typename _IRef, typename _IPtr, typename _OTp>
 729:c:\program files\daisytoolchain\arm-none-eabi\include\c++\10.2.1\bits\stl_algobase.h ****     _GLIBCXX_STD_C::_Deque_iterator<_OTp, _OTp&, _OTp*>
 730:c:\program files\daisytoolchain\arm-none-eabi\include\c++\10.2.1\bits\stl_algobase.h ****     __copy_move_backward_a1(
 731:c:\program files\daisytoolchain\arm-none-eabi\include\c++\10.2.1\bits\stl_algobase.h **** 			_GLIBCXX_STD_C::_Deque_iterator<_ITp, _IRef, _IPtr>,
 732:c:\program files\daisytoolchain\arm-none-eabi\include\c++\10.2.1\bits\stl_algobase.h **** 			_GLIBCXX_STD_C::_Deque_iterator<_ITp, _IRef, _IPtr>,
 733:c:\program files\daisytoolchain\arm-none-eabi\include\c++\10.2.1\bits\stl_algobase.h **** 			_GLIBCXX_STD_C::_Deque_iterator<_OTp, _OTp&, _OTp*>);
 734:c:\program files\daisytoolchain\arm-none-eabi\include\c++\10.2.1\bits\stl_algobase.h **** 
 735:c:\program files\daisytoolchain\arm-none-eabi\include\c++\10.2.1\bits\stl_algobase.h ****   template<bool _IsMove, typename _II, typename _Tp>
 736:c:\program files\daisytoolchain\arm-none-eabi\include\c++\10.2.1\bits\stl_algobase.h ****     typename __gnu_cxx::__enable_if<
 737:c:\program files\daisytoolchain\arm-none-eabi\include\c++\10.2.1\bits\stl_algobase.h ****       __is_random_access_iter<_II>::__value,
 738:c:\program files\daisytoolchain\arm-none-eabi\include\c++\10.2.1\bits\stl_algobase.h ****       _GLIBCXX_STD_C::_Deque_iterator<_Tp, _Tp&, _Tp*> >::__type
 739:c:\program files\daisytoolchain\arm-none-eabi\include\c++\10.2.1\bits\stl_algobase.h ****     __copy_move_backward_a1(_II, _II,
 740:c:\program files\daisytoolchain\arm-none-eabi\include\c++\10.2.1\bits\stl_algobase.h **** 			    _GLIBCXX_STD_C::_Deque_iterator<_Tp, _Tp&, _Tp*>);
 741:c:\program files\daisytoolchain\arm-none-eabi\include\c++\10.2.1\bits\stl_algobase.h **** 
 742:c:\program files\daisytoolchain\arm-none-eabi\include\c++\10.2.1\bits\stl_algobase.h ****   template<bool _IsMove, typename _II, typename _OI>
 743:c:\program files\daisytoolchain\arm-none-eabi\include\c++\10.2.1\bits\stl_algobase.h ****     _GLIBCXX20_CONSTEXPR
 744:c:\program files\daisytoolchain\arm-none-eabi\include\c++\10.2.1\bits\stl_algobase.h ****     inline _OI
 745:c:\program files\daisytoolchain\arm-none-eabi\include\c++\10.2.1\bits\stl_algobase.h ****     __copy_move_backward_a(_II __first, _II __last, _OI __result)
 746:c:\program files\daisytoolchain\arm-none-eabi\include\c++\10.2.1\bits\stl_algobase.h ****     {
 747:c:\program files\daisytoolchain\arm-none-eabi\include\c++\10.2.1\bits\stl_algobase.h ****       return std::__niter_wrap(__result,
 748:c:\program files\daisytoolchain\arm-none-eabi\include\c++\10.2.1\bits\stl_algobase.h **** 		std::__copy_move_backward_a1<_IsMove>
 749:c:\program files\daisytoolchain\arm-none-eabi\include\c++\10.2.1\bits\stl_algobase.h **** 		  (std::__niter_base(__first), std::__niter_base(__last),
 750:c:\program files\daisytoolchain\arm-none-eabi\include\c++\10.2.1\bits\stl_algobase.h **** 		   std::__niter_base(__result)));
 751:c:\program files\daisytoolchain\arm-none-eabi\include\c++\10.2.1\bits\stl_algobase.h ****     }
 752:c:\program files\daisytoolchain\arm-none-eabi\include\c++\10.2.1\bits\stl_algobase.h **** 
 753:c:\program files\daisytoolchain\arm-none-eabi\include\c++\10.2.1\bits\stl_algobase.h ****   template<bool _IsMove,
 754:c:\program files\daisytoolchain\arm-none-eabi\include\c++\10.2.1\bits\stl_algobase.h **** 	   typename _Ite, typename _Seq, typename _Cat, typename _OI>
 755:c:\program files\daisytoolchain\arm-none-eabi\include\c++\10.2.1\bits\stl_algobase.h ****     _OI
 756:c:\program files\daisytoolchain\arm-none-eabi\include\c++\10.2.1\bits\stl_algobase.h ****     __copy_move_backward_a(
 757:c:\program files\daisytoolchain\arm-none-eabi\include\c++\10.2.1\bits\stl_algobase.h **** 		const ::__gnu_debug::_Safe_iterator<_Ite, _Seq, _Cat>&,
 758:c:\program files\daisytoolchain\arm-none-eabi\include\c++\10.2.1\bits\stl_algobase.h **** 		const ::__gnu_debug::_Safe_iterator<_Ite, _Seq, _Cat>&,
 759:c:\program files\daisytoolchain\arm-none-eabi\include\c++\10.2.1\bits\stl_algobase.h **** 		_OI);
 760:c:\program files\daisytoolchain\arm-none-eabi\include\c++\10.2.1\bits\stl_algobase.h **** 
 761:c:\program files\daisytoolchain\arm-none-eabi\include\c++\10.2.1\bits\stl_algobase.h ****   template<bool _IsMove,
 762:c:\program files\daisytoolchain\arm-none-eabi\include\c++\10.2.1\bits\stl_algobase.h **** 	   typename _II, typename _Ite, typename _Seq, typename _Cat>
 763:c:\program files\daisytoolchain\arm-none-eabi\include\c++\10.2.1\bits\stl_algobase.h ****     __gnu_debug::_Safe_iterator<_Ite, _Seq, _Cat>
 764:c:\program files\daisytoolchain\arm-none-eabi\include\c++\10.2.1\bits\stl_algobase.h ****     __copy_move_backward_a(_II, _II,
 765:c:\program files\daisytoolchain\arm-none-eabi\include\c++\10.2.1\bits\stl_algobase.h **** 		const ::__gnu_debug::_Safe_iterator<_Ite, _Seq, _Cat>&);
ARM GAS  C:\Users\Marco\AppData\Local\Temp\ccVZoccs.s 			page 176


 766:c:\program files\daisytoolchain\arm-none-eabi\include\c++\10.2.1\bits\stl_algobase.h **** 
 767:c:\program files\daisytoolchain\arm-none-eabi\include\c++\10.2.1\bits\stl_algobase.h ****   template<bool _IsMove,
 768:c:\program files\daisytoolchain\arm-none-eabi\include\c++\10.2.1\bits\stl_algobase.h **** 	   typename _IIte, typename _ISeq, typename _ICat,
 769:c:\program files\daisytoolchain\arm-none-eabi\include\c++\10.2.1\bits\stl_algobase.h **** 	   typename _OIte, typename _OSeq, typename _OCat>
 770:c:\program files\daisytoolchain\arm-none-eabi\include\c++\10.2.1\bits\stl_algobase.h ****     ::__gnu_debug::_Safe_iterator<_OIte, _OSeq, _OCat>
 771:c:\program files\daisytoolchain\arm-none-eabi\include\c++\10.2.1\bits\stl_algobase.h ****     __copy_move_backward_a(
 772:c:\program files\daisytoolchain\arm-none-eabi\include\c++\10.2.1\bits\stl_algobase.h **** 		const ::__gnu_debug::_Safe_iterator<_IIte, _ISeq, _ICat>&,
 773:c:\program files\daisytoolchain\arm-none-eabi\include\c++\10.2.1\bits\stl_algobase.h **** 		const ::__gnu_debug::_Safe_iterator<_IIte, _ISeq, _ICat>&,
 774:c:\program files\daisytoolchain\arm-none-eabi\include\c++\10.2.1\bits\stl_algobase.h **** 		const ::__gnu_debug::_Safe_iterator<_OIte, _OSeq, _OCat>&);
 775:c:\program files\daisytoolchain\arm-none-eabi\include\c++\10.2.1\bits\stl_algobase.h **** 
 776:c:\program files\daisytoolchain\arm-none-eabi\include\c++\10.2.1\bits\stl_algobase.h ****   /**
 777:c:\program files\daisytoolchain\arm-none-eabi\include\c++\10.2.1\bits\stl_algobase.h ****    *  @brief Copies the range [first,last) into result.
 778:c:\program files\daisytoolchain\arm-none-eabi\include\c++\10.2.1\bits\stl_algobase.h ****    *  @ingroup mutating_algorithms
 779:c:\program files\daisytoolchain\arm-none-eabi\include\c++\10.2.1\bits\stl_algobase.h ****    *  @param  __first  A bidirectional iterator.
 780:c:\program files\daisytoolchain\arm-none-eabi\include\c++\10.2.1\bits\stl_algobase.h ****    *  @param  __last   A bidirectional iterator.
 781:c:\program files\daisytoolchain\arm-none-eabi\include\c++\10.2.1\bits\stl_algobase.h ****    *  @param  __result A bidirectional iterator.
 782:c:\program files\daisytoolchain\arm-none-eabi\include\c++\10.2.1\bits\stl_algobase.h ****    *  @return   result - (last - first)
 783:c:\program files\daisytoolchain\arm-none-eabi\include\c++\10.2.1\bits\stl_algobase.h ****    *
 784:c:\program files\daisytoolchain\arm-none-eabi\include\c++\10.2.1\bits\stl_algobase.h ****    *  The function has the same effect as copy, but starts at the end of the
 785:c:\program files\daisytoolchain\arm-none-eabi\include\c++\10.2.1\bits\stl_algobase.h ****    *  range and works its way to the start, returning the start of the result.
 786:c:\program files\daisytoolchain\arm-none-eabi\include\c++\10.2.1\bits\stl_algobase.h ****    *  This inline function will boil down to a call to @c memmove whenever
 787:c:\program files\daisytoolchain\arm-none-eabi\include\c++\10.2.1\bits\stl_algobase.h ****    *  possible.  Failing that, if random access iterators are passed, then the
 788:c:\program files\daisytoolchain\arm-none-eabi\include\c++\10.2.1\bits\stl_algobase.h ****    *  loop count will be known (and therefore a candidate for compiler
 789:c:\program files\daisytoolchain\arm-none-eabi\include\c++\10.2.1\bits\stl_algobase.h ****    *  optimizations such as unrolling).
 790:c:\program files\daisytoolchain\arm-none-eabi\include\c++\10.2.1\bits\stl_algobase.h ****    *
 791:c:\program files\daisytoolchain\arm-none-eabi\include\c++\10.2.1\bits\stl_algobase.h ****    *  Result may not be in the range (first,last].  Use copy instead.  Note
 792:c:\program files\daisytoolchain\arm-none-eabi\include\c++\10.2.1\bits\stl_algobase.h ****    *  that the start of the output range may overlap [first,last).
 793:c:\program files\daisytoolchain\arm-none-eabi\include\c++\10.2.1\bits\stl_algobase.h ****   */
 794:c:\program files\daisytoolchain\arm-none-eabi\include\c++\10.2.1\bits\stl_algobase.h ****   template<typename _BI1, typename _BI2>
 795:c:\program files\daisytoolchain\arm-none-eabi\include\c++\10.2.1\bits\stl_algobase.h ****     _GLIBCXX20_CONSTEXPR
 796:c:\program files\daisytoolchain\arm-none-eabi\include\c++\10.2.1\bits\stl_algobase.h ****     inline _BI2
 797:c:\program files\daisytoolchain\arm-none-eabi\include\c++\10.2.1\bits\stl_algobase.h ****     copy_backward(_BI1 __first, _BI1 __last, _BI2 __result)
 798:c:\program files\daisytoolchain\arm-none-eabi\include\c++\10.2.1\bits\stl_algobase.h ****     {
 799:c:\program files\daisytoolchain\arm-none-eabi\include\c++\10.2.1\bits\stl_algobase.h ****       // concept requirements
 800:c:\program files\daisytoolchain\arm-none-eabi\include\c++\10.2.1\bits\stl_algobase.h ****       __glibcxx_function_requires(_BidirectionalIteratorConcept<_BI1>)
 801:c:\program files\daisytoolchain\arm-none-eabi\include\c++\10.2.1\bits\stl_algobase.h ****       __glibcxx_function_requires(_Mutable_BidirectionalIteratorConcept<_BI2>)
 802:c:\program files\daisytoolchain\arm-none-eabi\include\c++\10.2.1\bits\stl_algobase.h ****       __glibcxx_function_requires(_ConvertibleConcept<
 803:c:\program files\daisytoolchain\arm-none-eabi\include\c++\10.2.1\bits\stl_algobase.h **** 	    typename iterator_traits<_BI1>::value_type,
 804:c:\program files\daisytoolchain\arm-none-eabi\include\c++\10.2.1\bits\stl_algobase.h **** 	    typename iterator_traits<_BI2>::value_type>)
 805:c:\program files\daisytoolchain\arm-none-eabi\include\c++\10.2.1\bits\stl_algobase.h ****       __glibcxx_requires_can_decrement_range(__first, __last, __result);
 806:c:\program files\daisytoolchain\arm-none-eabi\include\c++\10.2.1\bits\stl_algobase.h **** 
 807:c:\program files\daisytoolchain\arm-none-eabi\include\c++\10.2.1\bits\stl_algobase.h ****       return std::__copy_move_backward_a<__is_move_iterator<_BI1>::__value>
 808:c:\program files\daisytoolchain\arm-none-eabi\include\c++\10.2.1\bits\stl_algobase.h **** 	     (std::__miter_base(__first), std::__miter_base(__last), __result);
 809:c:\program files\daisytoolchain\arm-none-eabi\include\c++\10.2.1\bits\stl_algobase.h ****     }
 810:c:\program files\daisytoolchain\arm-none-eabi\include\c++\10.2.1\bits\stl_algobase.h **** 
 811:c:\program files\daisytoolchain\arm-none-eabi\include\c++\10.2.1\bits\stl_algobase.h **** #if __cplusplus >= 201103L
 812:c:\program files\daisytoolchain\arm-none-eabi\include\c++\10.2.1\bits\stl_algobase.h ****   /**
 813:c:\program files\daisytoolchain\arm-none-eabi\include\c++\10.2.1\bits\stl_algobase.h ****    *  @brief Moves the range [first,last) into result.
 814:c:\program files\daisytoolchain\arm-none-eabi\include\c++\10.2.1\bits\stl_algobase.h ****    *  @ingroup mutating_algorithms
 815:c:\program files\daisytoolchain\arm-none-eabi\include\c++\10.2.1\bits\stl_algobase.h ****    *  @param  __first  A bidirectional iterator.
 816:c:\program files\daisytoolchain\arm-none-eabi\include\c++\10.2.1\bits\stl_algobase.h ****    *  @param  __last   A bidirectional iterator.
 817:c:\program files\daisytoolchain\arm-none-eabi\include\c++\10.2.1\bits\stl_algobase.h ****    *  @param  __result A bidirectional iterator.
 818:c:\program files\daisytoolchain\arm-none-eabi\include\c++\10.2.1\bits\stl_algobase.h ****    *  @return   result - (last - first)
 819:c:\program files\daisytoolchain\arm-none-eabi\include\c++\10.2.1\bits\stl_algobase.h ****    *
 820:c:\program files\daisytoolchain\arm-none-eabi\include\c++\10.2.1\bits\stl_algobase.h ****    *  The function has the same effect as move, but starts at the end of the
 821:c:\program files\daisytoolchain\arm-none-eabi\include\c++\10.2.1\bits\stl_algobase.h ****    *  range and works its way to the start, returning the start of the result.
 822:c:\program files\daisytoolchain\arm-none-eabi\include\c++\10.2.1\bits\stl_algobase.h ****    *  This inline function will boil down to a call to @c memmove whenever
ARM GAS  C:\Users\Marco\AppData\Local\Temp\ccVZoccs.s 			page 177


 823:c:\program files\daisytoolchain\arm-none-eabi\include\c++\10.2.1\bits\stl_algobase.h ****    *  possible.  Failing that, if random access iterators are passed, then the
 824:c:\program files\daisytoolchain\arm-none-eabi\include\c++\10.2.1\bits\stl_algobase.h ****    *  loop count will be known (and therefore a candidate for compiler
 825:c:\program files\daisytoolchain\arm-none-eabi\include\c++\10.2.1\bits\stl_algobase.h ****    *  optimizations such as unrolling).
 826:c:\program files\daisytoolchain\arm-none-eabi\include\c++\10.2.1\bits\stl_algobase.h ****    *
 827:c:\program files\daisytoolchain\arm-none-eabi\include\c++\10.2.1\bits\stl_algobase.h ****    *  Result may not be in the range (first,last].  Use move instead.  Note
 828:c:\program files\daisytoolchain\arm-none-eabi\include\c++\10.2.1\bits\stl_algobase.h ****    *  that the start of the output range may overlap [first,last).
 829:c:\program files\daisytoolchain\arm-none-eabi\include\c++\10.2.1\bits\stl_algobase.h ****   */
 830:c:\program files\daisytoolchain\arm-none-eabi\include\c++\10.2.1\bits\stl_algobase.h ****   template<typename _BI1, typename _BI2>
 831:c:\program files\daisytoolchain\arm-none-eabi\include\c++\10.2.1\bits\stl_algobase.h ****     _GLIBCXX20_CONSTEXPR
 832:c:\program files\daisytoolchain\arm-none-eabi\include\c++\10.2.1\bits\stl_algobase.h ****     inline _BI2
 833:c:\program files\daisytoolchain\arm-none-eabi\include\c++\10.2.1\bits\stl_algobase.h ****     move_backward(_BI1 __first, _BI1 __last, _BI2 __result)
 834:c:\program files\daisytoolchain\arm-none-eabi\include\c++\10.2.1\bits\stl_algobase.h ****     {
 835:c:\program files\daisytoolchain\arm-none-eabi\include\c++\10.2.1\bits\stl_algobase.h ****       // concept requirements
 836:c:\program files\daisytoolchain\arm-none-eabi\include\c++\10.2.1\bits\stl_algobase.h ****       __glibcxx_function_requires(_BidirectionalIteratorConcept<_BI1>)
 837:c:\program files\daisytoolchain\arm-none-eabi\include\c++\10.2.1\bits\stl_algobase.h ****       __glibcxx_function_requires(_Mutable_BidirectionalIteratorConcept<_BI2>)
 838:c:\program files\daisytoolchain\arm-none-eabi\include\c++\10.2.1\bits\stl_algobase.h ****       __glibcxx_function_requires(_ConvertibleConcept<
 839:c:\program files\daisytoolchain\arm-none-eabi\include\c++\10.2.1\bits\stl_algobase.h **** 	    typename iterator_traits<_BI1>::value_type,
 840:c:\program files\daisytoolchain\arm-none-eabi\include\c++\10.2.1\bits\stl_algobase.h **** 	    typename iterator_traits<_BI2>::value_type>)
 841:c:\program files\daisytoolchain\arm-none-eabi\include\c++\10.2.1\bits\stl_algobase.h ****       __glibcxx_requires_can_decrement_range(__first, __last, __result);
 842:c:\program files\daisytoolchain\arm-none-eabi\include\c++\10.2.1\bits\stl_algobase.h **** 
 843:c:\program files\daisytoolchain\arm-none-eabi\include\c++\10.2.1\bits\stl_algobase.h ****       return std::__copy_move_backward_a<true>(std::__miter_base(__first),
 844:c:\program files\daisytoolchain\arm-none-eabi\include\c++\10.2.1\bits\stl_algobase.h **** 					       std::__miter_base(__last),
 845:c:\program files\daisytoolchain\arm-none-eabi\include\c++\10.2.1\bits\stl_algobase.h **** 					       __result);
 846:c:\program files\daisytoolchain\arm-none-eabi\include\c++\10.2.1\bits\stl_algobase.h ****     }
 847:c:\program files\daisytoolchain\arm-none-eabi\include\c++\10.2.1\bits\stl_algobase.h **** 
 848:c:\program files\daisytoolchain\arm-none-eabi\include\c++\10.2.1\bits\stl_algobase.h **** #define _GLIBCXX_MOVE_BACKWARD3(_Tp, _Up, _Vp) std::move_backward(_Tp, _Up, _Vp)
 849:c:\program files\daisytoolchain\arm-none-eabi\include\c++\10.2.1\bits\stl_algobase.h **** #else
 850:c:\program files\daisytoolchain\arm-none-eabi\include\c++\10.2.1\bits\stl_algobase.h **** #define _GLIBCXX_MOVE_BACKWARD3(_Tp, _Up, _Vp) std::copy_backward(_Tp, _Up, _Vp)
 851:c:\program files\daisytoolchain\arm-none-eabi\include\c++\10.2.1\bits\stl_algobase.h **** #endif
 852:c:\program files\daisytoolchain\arm-none-eabi\include\c++\10.2.1\bits\stl_algobase.h **** 
 853:c:\program files\daisytoolchain\arm-none-eabi\include\c++\10.2.1\bits\stl_algobase.h ****   template<typename _ForwardIterator, typename _Tp>
 854:c:\program files\daisytoolchain\arm-none-eabi\include\c++\10.2.1\bits\stl_algobase.h ****     _GLIBCXX20_CONSTEXPR
 855:c:\program files\daisytoolchain\arm-none-eabi\include\c++\10.2.1\bits\stl_algobase.h ****     inline typename
 856:c:\program files\daisytoolchain\arm-none-eabi\include\c++\10.2.1\bits\stl_algobase.h ****     __gnu_cxx::__enable_if<!__is_scalar<_Tp>::__value, void>::__type
 857:c:\program files\daisytoolchain\arm-none-eabi\include\c++\10.2.1\bits\stl_algobase.h ****     __fill_a1(_ForwardIterator __first, _ForwardIterator __last,
 858:c:\program files\daisytoolchain\arm-none-eabi\include\c++\10.2.1\bits\stl_algobase.h **** 	      const _Tp& __value)
 859:c:\program files\daisytoolchain\arm-none-eabi\include\c++\10.2.1\bits\stl_algobase.h ****     {
 860:c:\program files\daisytoolchain\arm-none-eabi\include\c++\10.2.1\bits\stl_algobase.h ****       for (; __first != __last; ++__first)
 861:c:\program files\daisytoolchain\arm-none-eabi\include\c++\10.2.1\bits\stl_algobase.h **** 	*__first = __value;
 862:c:\program files\daisytoolchain\arm-none-eabi\include\c++\10.2.1\bits\stl_algobase.h ****     }
 863:c:\program files\daisytoolchain\arm-none-eabi\include\c++\10.2.1\bits\stl_algobase.h **** 
 864:c:\program files\daisytoolchain\arm-none-eabi\include\c++\10.2.1\bits\stl_algobase.h ****   template<typename _ForwardIterator, typename _Tp>
 865:c:\program files\daisytoolchain\arm-none-eabi\include\c++\10.2.1\bits\stl_algobase.h ****     _GLIBCXX20_CONSTEXPR
 866:c:\program files\daisytoolchain\arm-none-eabi\include\c++\10.2.1\bits\stl_algobase.h ****     inline typename
 867:c:\program files\daisytoolchain\arm-none-eabi\include\c++\10.2.1\bits\stl_algobase.h ****     __gnu_cxx::__enable_if<__is_scalar<_Tp>::__value, void>::__type
 868:c:\program files\daisytoolchain\arm-none-eabi\include\c++\10.2.1\bits\stl_algobase.h ****     __fill_a1(_ForwardIterator __first, _ForwardIterator __last,
 869:c:\program files\daisytoolchain\arm-none-eabi\include\c++\10.2.1\bits\stl_algobase.h **** 	      const _Tp& __value)
 870:c:\program files\daisytoolchain\arm-none-eabi\include\c++\10.2.1\bits\stl_algobase.h ****     {
 871:c:\program files\daisytoolchain\arm-none-eabi\include\c++\10.2.1\bits\stl_algobase.h ****       const _Tp __tmp = __value;
 872:c:\program files\daisytoolchain\arm-none-eabi\include\c++\10.2.1\bits\stl_algobase.h ****       for (; __first != __last; ++__first)
 873:c:\program files\daisytoolchain\arm-none-eabi\include\c++\10.2.1\bits\stl_algobase.h **** 	*__first = __tmp;
 874:c:\program files\daisytoolchain\arm-none-eabi\include\c++\10.2.1\bits\stl_algobase.h ****     }
 875:c:\program files\daisytoolchain\arm-none-eabi\include\c++\10.2.1\bits\stl_algobase.h **** 
 876:c:\program files\daisytoolchain\arm-none-eabi\include\c++\10.2.1\bits\stl_algobase.h ****   // Specialization: for char types we can use memset.
 877:c:\program files\daisytoolchain\arm-none-eabi\include\c++\10.2.1\bits\stl_algobase.h ****   template<typename _Tp>
 878:c:\program files\daisytoolchain\arm-none-eabi\include\c++\10.2.1\bits\stl_algobase.h ****     _GLIBCXX20_CONSTEXPR
 879:c:\program files\daisytoolchain\arm-none-eabi\include\c++\10.2.1\bits\stl_algobase.h ****     inline typename
ARM GAS  C:\Users\Marco\AppData\Local\Temp\ccVZoccs.s 			page 178


 880:c:\program files\daisytoolchain\arm-none-eabi\include\c++\10.2.1\bits\stl_algobase.h ****     __gnu_cxx::__enable_if<__is_byte<_Tp>::__value, void>::__type
 881:c:\program files\daisytoolchain\arm-none-eabi\include\c++\10.2.1\bits\stl_algobase.h ****     __fill_a1(_Tp* __first, _Tp* __last, const _Tp& __c)
 882:c:\program files\daisytoolchain\arm-none-eabi\include\c++\10.2.1\bits\stl_algobase.h ****     {
 883:c:\program files\daisytoolchain\arm-none-eabi\include\c++\10.2.1\bits\stl_algobase.h ****       const _Tp __tmp = __c;
 884:c:\program files\daisytoolchain\arm-none-eabi\include\c++\10.2.1\bits\stl_algobase.h **** #if __cpp_lib_is_constant_evaluated
 885:c:\program files\daisytoolchain\arm-none-eabi\include\c++\10.2.1\bits\stl_algobase.h ****       if (std::is_constant_evaluated())
 886:c:\program files\daisytoolchain\arm-none-eabi\include\c++\10.2.1\bits\stl_algobase.h **** 	{
 887:c:\program files\daisytoolchain\arm-none-eabi\include\c++\10.2.1\bits\stl_algobase.h **** 	  for (; __first != __last; ++__first)
 888:c:\program files\daisytoolchain\arm-none-eabi\include\c++\10.2.1\bits\stl_algobase.h **** 	    *__first = __tmp;
 889:c:\program files\daisytoolchain\arm-none-eabi\include\c++\10.2.1\bits\stl_algobase.h **** 	  return;
 890:c:\program files\daisytoolchain\arm-none-eabi\include\c++\10.2.1\bits\stl_algobase.h **** 	}
 891:c:\program files\daisytoolchain\arm-none-eabi\include\c++\10.2.1\bits\stl_algobase.h **** #endif
 892:c:\program files\daisytoolchain\arm-none-eabi\include\c++\10.2.1\bits\stl_algobase.h ****       if (const size_t __len = __last - __first)
 893:c:\program files\daisytoolchain\arm-none-eabi\include\c++\10.2.1\bits\stl_algobase.h **** 	__builtin_memset(__first, static_cast<unsigned char>(__tmp), __len);
 894:c:\program files\daisytoolchain\arm-none-eabi\include\c++\10.2.1\bits\stl_algobase.h ****     }
 895:c:\program files\daisytoolchain\arm-none-eabi\include\c++\10.2.1\bits\stl_algobase.h **** 
 896:c:\program files\daisytoolchain\arm-none-eabi\include\c++\10.2.1\bits\stl_algobase.h ****   template<typename _Ite, typename _Cont, typename _Tp>
 897:c:\program files\daisytoolchain\arm-none-eabi\include\c++\10.2.1\bits\stl_algobase.h ****     _GLIBCXX20_CONSTEXPR
 898:c:\program files\daisytoolchain\arm-none-eabi\include\c++\10.2.1\bits\stl_algobase.h ****     inline void
 899:c:\program files\daisytoolchain\arm-none-eabi\include\c++\10.2.1\bits\stl_algobase.h ****     __fill_a1(::__gnu_cxx::__normal_iterator<_Ite, _Cont> __first,
 900:c:\program files\daisytoolchain\arm-none-eabi\include\c++\10.2.1\bits\stl_algobase.h **** 	      ::__gnu_cxx::__normal_iterator<_Ite, _Cont> __last,
 901:c:\program files\daisytoolchain\arm-none-eabi\include\c++\10.2.1\bits\stl_algobase.h **** 	      const _Tp& __value)
 902:c:\program files\daisytoolchain\arm-none-eabi\include\c++\10.2.1\bits\stl_algobase.h ****     { std::__fill_a1(__first.base(), __last.base(), __value); }
 903:c:\program files\daisytoolchain\arm-none-eabi\include\c++\10.2.1\bits\stl_algobase.h **** 
 904:c:\program files\daisytoolchain\arm-none-eabi\include\c++\10.2.1\bits\stl_algobase.h ****   template<typename _Tp, typename _VTp>
 905:c:\program files\daisytoolchain\arm-none-eabi\include\c++\10.2.1\bits\stl_algobase.h ****     void
 906:c:\program files\daisytoolchain\arm-none-eabi\include\c++\10.2.1\bits\stl_algobase.h ****     __fill_a1(const _GLIBCXX_STD_C::_Deque_iterator<_Tp, _Tp&, _Tp*>&,
 907:c:\program files\daisytoolchain\arm-none-eabi\include\c++\10.2.1\bits\stl_algobase.h **** 	      const _GLIBCXX_STD_C::_Deque_iterator<_Tp, _Tp&, _Tp*>&,
 908:c:\program files\daisytoolchain\arm-none-eabi\include\c++\10.2.1\bits\stl_algobase.h **** 	      const _VTp&);
 909:c:\program files\daisytoolchain\arm-none-eabi\include\c++\10.2.1\bits\stl_algobase.h **** 
 910:c:\program files\daisytoolchain\arm-none-eabi\include\c++\10.2.1\bits\stl_algobase.h ****   template<typename _FIte, typename _Tp>
 911:c:\program files\daisytoolchain\arm-none-eabi\include\c++\10.2.1\bits\stl_algobase.h ****     _GLIBCXX20_CONSTEXPR
 912:c:\program files\daisytoolchain\arm-none-eabi\include\c++\10.2.1\bits\stl_algobase.h ****     inline void
 913:c:\program files\daisytoolchain\arm-none-eabi\include\c++\10.2.1\bits\stl_algobase.h ****     __fill_a(_FIte __first, _FIte __last, const _Tp& __value)
 914:c:\program files\daisytoolchain\arm-none-eabi\include\c++\10.2.1\bits\stl_algobase.h ****     { std::__fill_a1(__first, __last, __value); }
 915:c:\program files\daisytoolchain\arm-none-eabi\include\c++\10.2.1\bits\stl_algobase.h **** 
 916:c:\program files\daisytoolchain\arm-none-eabi\include\c++\10.2.1\bits\stl_algobase.h ****   template<typename _Ite, typename _Seq, typename _Cat, typename _Tp>
 917:c:\program files\daisytoolchain\arm-none-eabi\include\c++\10.2.1\bits\stl_algobase.h ****     void
 918:c:\program files\daisytoolchain\arm-none-eabi\include\c++\10.2.1\bits\stl_algobase.h ****     __fill_a(const ::__gnu_debug::_Safe_iterator<_Ite, _Seq, _Cat>&,
 919:c:\program files\daisytoolchain\arm-none-eabi\include\c++\10.2.1\bits\stl_algobase.h **** 	     const ::__gnu_debug::_Safe_iterator<_Ite, _Seq, _Cat>&,
 920:c:\program files\daisytoolchain\arm-none-eabi\include\c++\10.2.1\bits\stl_algobase.h **** 	     const _Tp&);
 921:c:\program files\daisytoolchain\arm-none-eabi\include\c++\10.2.1\bits\stl_algobase.h **** 
 922:c:\program files\daisytoolchain\arm-none-eabi\include\c++\10.2.1\bits\stl_algobase.h ****   /**
 923:c:\program files\daisytoolchain\arm-none-eabi\include\c++\10.2.1\bits\stl_algobase.h ****    *  @brief Fills the range [first,last) with copies of value.
 924:c:\program files\daisytoolchain\arm-none-eabi\include\c++\10.2.1\bits\stl_algobase.h ****    *  @ingroup mutating_algorithms
 925:c:\program files\daisytoolchain\arm-none-eabi\include\c++\10.2.1\bits\stl_algobase.h ****    *  @param  __first  A forward iterator.
 926:c:\program files\daisytoolchain\arm-none-eabi\include\c++\10.2.1\bits\stl_algobase.h ****    *  @param  __last   A forward iterator.
 927:c:\program files\daisytoolchain\arm-none-eabi\include\c++\10.2.1\bits\stl_algobase.h ****    *  @param  __value  A reference-to-const of arbitrary type.
 928:c:\program files\daisytoolchain\arm-none-eabi\include\c++\10.2.1\bits\stl_algobase.h ****    *  @return   Nothing.
 929:c:\program files\daisytoolchain\arm-none-eabi\include\c++\10.2.1\bits\stl_algobase.h ****    *
 930:c:\program files\daisytoolchain\arm-none-eabi\include\c++\10.2.1\bits\stl_algobase.h ****    *  This function fills a range with copies of the same value.  For char
 931:c:\program files\daisytoolchain\arm-none-eabi\include\c++\10.2.1\bits\stl_algobase.h ****    *  types filling contiguous areas of memory, this becomes an inline call
 932:c:\program files\daisytoolchain\arm-none-eabi\include\c++\10.2.1\bits\stl_algobase.h ****    *  to @c memset or @c wmemset.
 933:c:\program files\daisytoolchain\arm-none-eabi\include\c++\10.2.1\bits\stl_algobase.h ****   */
 934:c:\program files\daisytoolchain\arm-none-eabi\include\c++\10.2.1\bits\stl_algobase.h ****   template<typename _ForwardIterator, typename _Tp>
 935:c:\program files\daisytoolchain\arm-none-eabi\include\c++\10.2.1\bits\stl_algobase.h ****     _GLIBCXX20_CONSTEXPR
 936:c:\program files\daisytoolchain\arm-none-eabi\include\c++\10.2.1\bits\stl_algobase.h ****     inline void
ARM GAS  C:\Users\Marco\AppData\Local\Temp\ccVZoccs.s 			page 179


 937:c:\program files\daisytoolchain\arm-none-eabi\include\c++\10.2.1\bits\stl_algobase.h ****     fill(_ForwardIterator __first, _ForwardIterator __last, const _Tp& __value)
 6535              		.loc 7 937 5 view .LVU1710
 6536              	.LBB1519:
 6537              	.LBI1519:
 913:c:\program files\daisytoolchain\arm-none-eabi\include\c++\10.2.1\bits\stl_algobase.h ****     { std::__fill_a1(__first, __last, __value); }
 6538              		.loc 7 913 5 view .LVU1711
 6539              	.LBB1520:
 6540              	.LBI1520:
 868:c:\program files\daisytoolchain\arm-none-eabi\include\c++\10.2.1\bits\stl_algobase.h **** 	      const _Tp& __value)
 6541              		.loc 7 868 5 view .LVU1712
 6542              	.LBB1521:
 872:c:\program files\daisytoolchain\arm-none-eabi\include\c++\10.2.1\bits\stl_algobase.h **** 	*__first = __tmp;
 6543              		.loc 7 872 22 view .LVU1713
 6544 0062 26B1     		cbz	r6, .L373
 873:c:\program files\daisytoolchain\arm-none-eabi\include\c++\10.2.1\bits\stl_algobase.h ****     }
 6545              		.loc 7 873 11 is_stmt 0 view .LVU1714
 6546 0064 3246     		mov	r2, r6
 6547 0066 7146     		mov	r1, lr
 6548 0068 3846     		mov	r0, r7
 6549 006a FFF7FEFF 		bl	memset
 6550              	.LVL436:
 6551              	.L373:
 873:c:\program files\daisytoolchain\arm-none-eabi\include\c++\10.2.1\bits\stl_algobase.h ****     }
 6552              		.loc 7 873 11 view .LVU1715
 6553              	.LBE1521:
 6554              	.LBE1520:
 6555              	.LBE1519:
 6556              	.LBE1518:
  84:../DaisyExamples/libDaisy/src/hid/midi.h ****     }
 6557              		.loc 2 84 9 is_stmt 1 view .LVU1716
  84:../DaisyExamples/libDaisy/src/hid/midi.h ****     }
 6558              		.loc 2 84 19 is_stmt 0 view .LVU1717
 6559 006e 0DA9     		add	r1, sp, #52
 6560 0070 4046     		mov	r0, r8
 6561 0072 FFF7FEFF 		bl	_ZN5daisy11UartHandler4InitERKNS0_6ConfigE
 6562              	.LVL437:
  84:../DaisyExamples/libDaisy/src/hid/midi.h ****     }
 6563              		.loc 2 84 19 view .LVU1718
 6564              	.LBE1522:
 6565              	.LBE1510:
 6566              	.LBB1523:
 6567              	.LBI1523:
 6568              		.loc 6 21 17 is_stmt 1 view .LVU1719
 6569              	.LBB1524:
 6570              		.loc 6 21 26 view .LVU1720
 6571              		.loc 6 21 31 is_stmt 0 view .LVU1721
 6572 0076 04F12C00 		add	r0, r4, #44
 6573              	.LVL438:
 6574              		.loc 6 21 31 view .LVU1722
 6575 007a FFF7FEFF 		bl	_ZN5daisy10MidiParser5ResetEv
 6576              	.LVL439:
 6577              		.loc 6 21 31 view .LVU1723
 6578              	.LBE1524:
 6579              	.LBE1523:
 6580              	.LBE1526:
 6581              	.LBE1528:
 434:MidiController.cpp **** }
ARM GAS  C:\Users\Marco\AppData\Local\Temp\ccVZoccs.s 			page 180


 6582              		.loc 1 434 5 is_stmt 1 view .LVU1724
 434:MidiController.cpp **** }
 6583              		.loc 1 434 20 is_stmt 0 view .LVU1725
 6584 007e 04F59034 		add	r4, r4, #73728
 6585              	.LVL440:
 434:MidiController.cpp **** }
 6586              		.loc 1 434 20 view .LVU1726
 6587 0082 0123     		movs	r3, #1
 6588 0084 84F8B032 		strb	r3, [r4, #688]
 435:MidiController.cpp **** 
 6589              		.loc 1 435 1 view .LVU1727
 6590 0088 14B0     		add	sp, sp, #80
 6591              		.cfi_def_cfa_offset 24
 6592              		@ sp needed
 6593 008a BDE8F081 		pop	{r4, r5, r6, r7, r8, pc}
 435:MidiController.cpp **** 
 6594              		.loc 1 435 1 view .LVU1728
 6595              		.cfi_endproc
 6596              	.LFE2611:
 6598 008e 00BF     		.section	.text._ZN14MidiController4InitEPN5daisy9DaisySeedEP13ConfigManager,"ax",%progbits
 6599              		.align	1
 6600              		.p2align 2,,3
 6601              		.global	_ZN14MidiController4InitEPN5daisy9DaisySeedEP13ConfigManager
 6602              		.syntax unified
 6603              		.thumb
 6604              		.thumb_func
 6605              		.fpu fpv5-d16
 6607              	_ZN14MidiController4InitEPN5daisy9DaisySeedEP13ConfigManager:
 6608              	.LVL441:
 6609              	.LFB2566:
  24:MidiController.cpp ****     hardware_ = hw;
 6610              		.loc 1 24 72 is_stmt 1 view -0
 6611              		.cfi_startproc
 6612              		@ args = 0, pretend = 0, frame = 0
 6613              		@ frame_needed = 0, uses_anonymous_args = 0
  25:MidiController.cpp ****     config_ = config;
 6614              		.loc 1 25 5 view .LVU1730
  24:MidiController.cpp ****     hardware_ = hw;
 6615              		.loc 1 24 72 is_stmt 0 view .LVU1731
 6616 0000 70B5     		push	{r4, r5, r6, lr}
 6617              		.cfi_def_cfa_offset 16
 6618              		.cfi_offset 4, -16
 6619              		.cfi_offset 5, -12
 6620              		.cfi_offset 6, -8
 6621              		.cfi_offset 14, -4
  24:MidiController.cpp ****     hardware_ = hw;
 6622              		.loc 1 24 72 view .LVU1732
 6623 0002 0446     		mov	r4, r0
  26:MidiController.cpp ****     
 6624              		.loc 1 26 13 view .LVU1733
 6625 0004 C0E90012 		strd	r1, r2, [r0]
  29:MidiController.cpp ****         midiChannel_ = config_->GetMidiChannel();
 6626              		.loc 1 29 5 is_stmt 1 view .LVU1734
 6627 0008 32B3     		cbz	r2, .L384
  30:MidiController.cpp ****     }
 6628              		.loc 1 30 9 view .LVU1735
  30:MidiController.cpp ****     }
ARM GAS  C:\Users\Marco\AppData\Local\Temp\ccVZoccs.s 			page 181


 6629              		.loc 1 30 22 is_stmt 0 view .LVU1736
 6630 000a 04F59036 		add	r6, r4, #73728
 6631 000e 1046     		mov	r0, r2
 6632              	.LVL442:
  30:MidiController.cpp ****     }
 6633              		.loc 1 30 47 view .LVU1737
 6634 0010 FFF7FEFF 		bl	_ZNK13ConfigManager14GetMidiChannelEv
 6635              	.LVL443:
  30:MidiController.cpp ****     }
 6636              		.loc 1 30 22 view .LVU1738
 6637 0014 86F8AC02 		strb	r0, [r6, #684]
 6638              	.L379:
  34:MidiController.cpp ****     InitializeUART();
 6639              		.loc 1 34 5 is_stmt 1 view .LVU1739
 6640              	.LVL444:
 6641              	.LBB1539:
 6642              	.LBI1539:
 423:MidiController.cpp ****     daisy::MidiUsbHandler::Config usbConfig;
 6643              		.loc 1 423 6 view .LVU1740
 6644              	.LBB1540:
 424:MidiController.cpp ****     usbConfig.transport_config.periph = daisy::MidiUsbTransport::Config::INTERNAL;
 6645              		.loc 1 424 5 view .LVU1741
 6646              	.LBB1541:
 6647              	.LBI1541:
 158:../DaisyExamples/libDaisy/src/hid/midi.h ****     {
 6648              		.loc 2 158 12 view .LVU1742
 6649              	.LBB1542:
 6650              	.LBI1542:
  43:../DaisyExamples/libDaisy/src/hid/usb_midi.h ****     };
 6651              		.loc 5 43 9 view .LVU1743
  43:../DaisyExamples/libDaisy/src/hid/usb_midi.h ****     };
 6652              		.loc 5 43 9 is_stmt 0 view .LVU1744
 6653              	.LBE1542:
 6654              	.LBE1541:
 425:MidiController.cpp ****     usbMidi_.Init(usbConfig);
 6655              		.loc 1 425 5 is_stmt 1 view .LVU1745
 426:MidiController.cpp ****     usbConnected_ = true; // Assume connected for now
 6656              		.loc 1 426 5 view .LVU1746
 6657              	.LBB1543:
 6658              	.LBI1543:
 166:../DaisyExamples/libDaisy/src/hid/midi.h ****     {
 6659              		.loc 2 166 10 view .LVU1747
 6660              	.LBB1544:
 169:../DaisyExamples/libDaisy/src/hid/midi.h ****         parser_.Init();
 6661              		.loc 2 169 24 is_stmt 0 view .LVU1748
 6662 0018 49F26815 		movw	r5, #37224
 168:../DaisyExamples/libDaisy/src/hid/midi.h ****         transport_.Init(config_.transport_config);
 6663              		.loc 2 168 9 view .LVU1749
 6664 001c 04F51043 		add	r3, r4, #36864
 6665 0020 4FF44072 		mov	r2, #768
 169:../DaisyExamples/libDaisy/src/hid/midi.h ****         parser_.Init();
 6666              		.loc 2 169 24 view .LVU1750
 6667 0024 2544     		add	r5, r5, r4
 6668              	.LVL445:
 168:../DaisyExamples/libDaisy/src/hid/midi.h ****         transport_.Init(config_.transport_config);
 6669              		.loc 2 168 9 view .LVU1751
 6670 0026 A3F86821 		strh	r2, [r3, #360]	@ movhi
ARM GAS  C:\Users\Marco\AppData\Local\Temp\ccVZoccs.s 			page 182


 169:../DaisyExamples/libDaisy/src/hid/midi.h ****         parser_.Init();
 6671              		.loc 2 169 24 view .LVU1752
 6672 002a 281D     		adds	r0, r5, #4
 6673 002c D3F86811 		ldr	r1, [r3, #360]
 6674 0030 FFF7FEFF 		bl	_ZN5daisy16MidiUsbTransport4InitENS0_6ConfigE
 6675              	.LVL446:
 6676              	.LBB1545:
 6677              	.LBI1545:
 6678              		.loc 6 21 17 is_stmt 1 view .LVU1753
 6679              	.LBB1546:
 6680              		.loc 6 21 26 view .LVU1754
 6681              		.loc 6 21 31 is_stmt 0 view .LVU1755
 6682 0034 05F10800 		add	r0, r5, #8
 6683 0038 FFF7FEFF 		bl	_ZN5daisy10MidiParser5ResetEv
 6684              	.LVL447:
 6685              		.loc 6 21 31 view .LVU1756
 6686              	.LBE1546:
 6687              	.LBE1545:
 6688              	.LBE1544:
 6689              	.LBE1543:
 427:MidiController.cpp **** }
 6690              		.loc 1 427 5 is_stmt 1 view .LVU1757
 427:MidiController.cpp **** }
 6691              		.loc 1 427 19 is_stmt 0 view .LVU1758
 6692 003c 0123     		movs	r3, #1
 6693              	.LBE1540:
 6694              	.LBE1539:
  35:MidiController.cpp ****     
 6695              		.loc 1 35 19 view .LVU1759
 6696 003e 2046     		mov	r0, r4
 6697              	.LBB1548:
 6698              	.LBB1547:
 427:MidiController.cpp **** }
 6699              		.loc 1 427 19 view .LVU1760
 6700 0040 86F8AF32 		strb	r3, [r6, #687]
 6701              	.LVL448:
 427:MidiController.cpp **** }
 6702              		.loc 1 427 19 view .LVU1761
 6703              	.LBE1547:
 6704              	.LBE1548:
  35:MidiController.cpp ****     
 6705              		.loc 1 35 5 is_stmt 1 view .LVU1762
  35:MidiController.cpp ****     
 6706              		.loc 1 35 19 is_stmt 0 view .LVU1763
 6707 0044 FFF7FEFF 		bl	_ZN14MidiController14InitializeUARTEv
 6708              	.LVL449:
  38:MidiController.cpp ****     lastActivityTime_ = daisy::System::GetNow();
 6709              		.loc 1 38 5 is_stmt 1 view .LVU1764
  38:MidiController.cpp ****     lastActivityTime_ = daisy::System::GetNow();
 6710              		.loc 1 38 19 is_stmt 0 view .LVU1765
 6711 0048 0023     		movs	r3, #0
 6712 004a C6F8B835 		str	r3, [r6, #1464]
  39:MidiController.cpp **** }
 6713              		.loc 1 39 5 is_stmt 1 view .LVU1766
  39:MidiController.cpp **** }
 6714              		.loc 1 39 46 is_stmt 0 view .LVU1767
 6715 004e FFF7FEFF 		bl	_ZN5daisy6System6GetNowEv
ARM GAS  C:\Users\Marco\AppData\Local\Temp\ccVZoccs.s 			page 183


 6716              	.LVL450:
  39:MidiController.cpp **** }
 6717              		.loc 1 39 23 view .LVU1768
 6718 0052 C6F8BC05 		str	r0, [r6, #1468]
  40:MidiController.cpp **** 
 6719              		.loc 1 40 1 view .LVU1769
 6720 0056 70BD     		pop	{r4, r5, r6, pc}
 6721              	.LVL451:
 6722              	.L384:
  40:MidiController.cpp **** 
 6723              		.loc 1 40 1 view .LVU1770
 6724 0058 00F59036 		add	r6, r0, #73728
 6725 005c DCE7     		b	.L379
 6726              		.cfi_endproc
 6727              	.LFE2566:
 6729 005e 00BF     		.section	.text._ZN14MidiController18CheckUSBConnectionEv,"ax",%progbits
 6730              		.align	1
 6731              		.p2align 2,,3
 6732              		.global	_ZN14MidiController18CheckUSBConnectionEv
 6733              		.syntax unified
 6734              		.thumb
 6735              		.thumb_func
 6736              		.fpu fpv5-d16
 6738              	_ZN14MidiController18CheckUSBConnectionEv:
 6739              	.LVL452:
 6740              	.LFB2615:
 437:MidiController.cpp ****     // Check if USB device is connected
 6741              		.loc 1 437 43 is_stmt 1 view -0
 6742              		.cfi_startproc
 6743              		@ args = 0, pretend = 0, frame = 0
 6744              		@ frame_needed = 0, uses_anonymous_args = 0
 6745              		@ link register save eliminated.
 441:MidiController.cpp **** }
 6746              		.loc 1 441 5 view .LVU1772
 441:MidiController.cpp **** }
 6747              		.loc 1 441 19 is_stmt 0 view .LVU1773
 6748 0000 0123     		movs	r3, #1
 6749 0002 00F59030 		add	r0, r0, #73728
 6750              	.LVL453:
 441:MidiController.cpp **** }
 6751              		.loc 1 441 19 view .LVU1774
 6752 0006 80F8AF32 		strb	r3, [r0, #687]
 442:MidiController.cpp **** 
 6753              		.loc 1 442 1 view .LVU1775
 6754 000a 7047     		bx	lr
 6755              		.cfi_endproc
 6756              	.LFE2615:
 6758              		.section	.text._ZN14MidiController19CheckUARTConnectionEv,"ax",%progbits
 6759              		.align	1
 6760              		.p2align 2,,3
 6761              		.global	_ZN14MidiController19CheckUARTConnectionEv
 6762              		.syntax unified
 6763              		.thumb
 6764              		.thumb_func
 6765              		.fpu fpv5-d16
 6767              	_ZN14MidiController19CheckUARTConnectionEv:
 6768              	.LVL454:
ARM GAS  C:\Users\Marco\AppData\Local\Temp\ccVZoccs.s 			page 184


 6769              	.LFB2616:
 444:MidiController.cpp ****     // Check if UART device is connected
 6770              		.loc 1 444 44 is_stmt 1 view -0
 6771              		.cfi_startproc
 6772              		@ args = 0, pretend = 0, frame = 0
 6773              		@ frame_needed = 0, uses_anonymous_args = 0
 6774              		@ link register save eliminated.
 447:MidiController.cpp **** }
 6775              		.loc 1 447 5 view .LVU1777
 447:MidiController.cpp **** }
 6776              		.loc 1 447 20 is_stmt 0 view .LVU1778
 6777 0000 0123     		movs	r3, #1
 6778 0002 00F59030 		add	r0, r0, #73728
 6779              	.LVL455:
 447:MidiController.cpp **** }
 6780              		.loc 1 447 20 view .LVU1779
 6781 0006 80F8B032 		strb	r3, [r0, #688]
 448:MidiController.cpp **** 
 6782              		.loc 1 448 1 view .LVU1780
 6783 000a 7047     		bx	lr
 6784              		.cfi_endproc
 6785              	.LFE2616:
 6787              		.section	.text._ZN14MidiController22HandleConnectionChangeEv,"ax",%progbits
 6788              		.align	1
 6789              		.p2align 2,,3
 6790              		.global	_ZN14MidiController22HandleConnectionChangeEv
 6791              		.syntax unified
 6792              		.thumb
 6793              		.thumb_func
 6794              		.fpu fpv5-d16
 6796              	_ZN14MidiController22HandleConnectionChangeEv:
 6797              	.LVL456:
 6798              	.LFB2617:
 450:MidiController.cpp ****     // Handle connection/disconnection events
 6799              		.loc 1 450 47 is_stmt 1 view -0
 6800              		.cfi_startproc
 6801              		@ args = 0, pretend = 0, frame = 0
 6802              		@ frame_needed = 0, uses_anonymous_args = 0
 6803              		@ link register save eliminated.
 453:MidiController.cpp **** 
 6804              		.loc 1 453 1 is_stmt 0 view .LVU1782
 6805 0000 7047     		bx	lr
 6806              		.cfi_endproc
 6807              	.LFE2617:
 6809 0002 00BF     		.section	.text._ZN14MidiController16CreateStatusByteE15MidiMessageTypeh,"ax",%progbits
 6810              		.align	1
 6811              		.p2align 2,,3
 6812              		.global	_ZN14MidiController16CreateStatusByteE15MidiMessageTypeh
 6813              		.syntax unified
 6814              		.thumb
 6815              		.thumb_func
 6816              		.fpu fpv5-d16
 6818              	_ZN14MidiController16CreateStatusByteE15MidiMessageTypeh:
 6819              	.LVL457:
 6820              	.LFB2618:
 455:MidiController.cpp ****     return (uint8_t)messageType | ((channel - 1) & 0x0F);
 6821              		.loc 1 455 88 is_stmt 1 view -0
ARM GAS  C:\Users\Marco\AppData\Local\Temp\ccVZoccs.s 			page 185


 6822              		.cfi_startproc
 6823              		@ args = 0, pretend = 0, frame = 0
 6824              		@ frame_needed = 0, uses_anonymous_args = 0
 6825              		@ link register save eliminated.
 456:MidiController.cpp **** }
 6826              		.loc 1 456 5 view .LVU1784
 456:MidiController.cpp **** }
 6827              		.loc 1 456 45 is_stmt 0 view .LVU1785
 6828 0000 013A     		subs	r2, r2, #1
 6829              	.LVL458:
 456:MidiController.cpp **** }
 6830              		.loc 1 456 50 view .LVU1786
 6831 0002 02F00F02 		and	r2, r2, #15
 457:MidiController.cpp **** 
 6832              		.loc 1 457 1 view .LVU1787
 6833 0006 42EA0100 		orr	r0, r2, r1
 6834              	.LVL459:
 457:MidiController.cpp **** 
 6835              		.loc 1 457 1 view .LVU1788
 6836 000a 7047     		bx	lr
 6837              		.cfi_endproc
 6838              	.LFE2618:
 6840              		.section	.text._ZN14MidiController14IsValidChannelEh,"ax",%progbits
 6841              		.align	1
 6842              		.p2align 2,,3
 6843              		.global	_ZN14MidiController14IsValidChannelEh
 6844              		.syntax unified
 6845              		.thumb
 6846              		.thumb_func
 6847              		.fpu fpv5-d16
 6849              	_ZN14MidiController14IsValidChannelEh:
 6850              	.LVL460:
 6851              	.LFB2619:
 459:MidiController.cpp ****     return channel >= 1 && channel <= 16;
 6852              		.loc 1 459 54 is_stmt 1 view -0
 6853              		.cfi_startproc
 6854              		@ args = 0, pretend = 0, frame = 0
 6855              		@ frame_needed = 0, uses_anonymous_args = 0
 6856              		@ link register save eliminated.
 460:MidiController.cpp **** }
 6857              		.loc 1 460 5 view .LVU1790
 460:MidiController.cpp **** }
 6858              		.loc 1 460 39 is_stmt 0 view .LVU1791
 6859 0000 0139     		subs	r1, r1, #1
 6860              	.LVL461:
 461:MidiController.cpp **** 
 6861              		.loc 1 461 1 view .LVU1792
 6862 0002 0F29     		cmp	r1, #15
 6863 0004 8CBF     		ite	hi
 6864 0006 0020     		movhi	r0, #0
 6865              	.LVL462:
 461:MidiController.cpp **** 
 6866              		.loc 1 461 1 view .LVU1793
 6867 0008 0120     		movls	r0, #1
 6868 000a 7047     		bx	lr
 6869              		.cfi_endproc
 6870              	.LFE2619:
ARM GAS  C:\Users\Marco\AppData\Local\Temp\ccVZoccs.s 			page 186


 6872              		.section	.text._ZN14MidiController11IsValidNoteEh,"ax",%progbits
 6873              		.align	1
 6874              		.p2align 2,,3
 6875              		.global	_ZN14MidiController11IsValidNoteEh
 6876              		.syntax unified
 6877              		.thumb
 6878              		.thumb_func
 6879              		.fpu fpv5-d16
 6881              	_ZN14MidiController11IsValidNoteEh:
 6882              	.LVL463:
 6883              	.LFB2620:
 463:MidiController.cpp ****     return note <= 127;
 6884              		.loc 1 463 48 is_stmt 1 view -0
 6885              		.cfi_startproc
 6886              		@ args = 0, pretend = 0, frame = 0
 6887              		@ frame_needed = 0, uses_anonymous_args = 0
 6888              		@ link register save eliminated.
 464:MidiController.cpp **** }
 6889              		.loc 1 464 5 view .LVU1795
 464:MidiController.cpp **** }
 6890              		.loc 1 464 20 is_stmt 0 view .LVU1796
 6891 0000 C943     		mvns	r1, r1
 6892              	.LVL464:
 465:MidiController.cpp **** 
 6893              		.loc 1 465 1 view .LVU1797
 6894 0002 C1F3C010 		ubfx	r0, r1, #7, #1
 6895              	.LVL465:
 465:MidiController.cpp **** 
 6896              		.loc 1 465 1 view .LVU1798
 6897 0006 7047     		bx	lr
 6898              		.cfi_endproc
 6899              	.LFE2620:
 6901              		.section	.text._ZN14MidiController15IsValidVelocityEh,"ax",%progbits
 6902              		.align	1
 6903              		.p2align 2,,3
 6904              		.global	_ZN14MidiController15IsValidVelocityEh
 6905              		.syntax unified
 6906              		.thumb
 6907              		.thumb_func
 6908              		.fpu fpv5-d16
 6910              	_ZN14MidiController15IsValidVelocityEh:
 6911              	.LFB2686:
 6912              		.cfi_startproc
 6913              		@ args = 0, pretend = 0, frame = 0
 6914              		@ frame_needed = 0, uses_anonymous_args = 0
 6915              		@ link register save eliminated.
 6916 0000 C943     		mvns	r1, r1
 6917 0002 C1F3C010 		ubfx	r0, r1, #7, #1
 6918 0006 7047     		bx	lr
 6919              		.cfi_endproc
 6920              	.LFE2686:
 6922              		.section	.text._ZN14MidiController17IsValidControllerEh,"ax",%progbits
 6923              		.align	1
 6924              		.p2align 2,,3
 6925              		.global	_ZN14MidiController17IsValidControllerEh
 6926              		.syntax unified
 6927              		.thumb
ARM GAS  C:\Users\Marco\AppData\Local\Temp\ccVZoccs.s 			page 187


 6928              		.thumb_func
 6929              		.fpu fpv5-d16
 6931              	_ZN14MidiController17IsValidControllerEh:
 6932              	.LFB2688:
 6933              		.cfi_startproc
 6934              		@ args = 0, pretend = 0, frame = 0
 6935              		@ frame_needed = 0, uses_anonymous_args = 0
 6936              		@ link register save eliminated.
 6937 0000 C943     		mvns	r1, r1
 6938 0002 C1F3C010 		ubfx	r0, r1, #7, #1
 6939 0006 7047     		bx	lr
 6940              		.cfi_endproc
 6941              	.LFE2688:
 6943              		.section	.text._ZN14MidiController11TrackNoteOnEh,"ax",%progbits
 6944              		.align	1
 6945              		.p2align 2,,3
 6946              		.global	_ZN14MidiController11TrackNoteOnEh
 6947              		.syntax unified
 6948              		.thumb
 6949              		.thumb_func
 6950              		.fpu fpv5-d16
 6952              	_ZN14MidiController11TrackNoteOnEh:
 6953              	.LVL466:
 6954              	.LFB2623:
 475:MidiController.cpp ****     if (note < 128 && !activeNotes_[note]) {
 6955              		.loc 1 475 48 is_stmt 1 view -0
 6956              		.cfi_startproc
 6957              		@ args = 0, pretend = 0, frame = 0
 6958              		@ frame_needed = 0, uses_anonymous_args = 0
 6959              		@ link register save eliminated.
 476:MidiController.cpp ****         activeNotes_[note] = true;
 6960              		.loc 1 476 5 view .LVU1800
 6961 0000 0B06     		lsls	r3, r1, #24
 6962 0002 0CD4     		bmi	.L393
 6963              	.LVL467:
 6964              	.LBB1551:
 6965              	.LBI1551:
 475:MidiController.cpp ****     if (note < 128 && !activeNotes_[note]) {
 6966              		.loc 1 475 6 view .LVU1801
 6967              	.LBB1552:
 476:MidiController.cpp ****         activeNotes_[note] = true;
 6968              		.loc 1 476 41 is_stmt 0 view .LVU1802
 6969 0004 0144     		add	r1, r1, r0
 6970              	.LVL468:
 476:MidiController.cpp ****         activeNotes_[note] = true;
 6971              		.loc 1 476 41 view .LVU1803
 6972 0006 064B     		ldr	r3, .L395
 476:MidiController.cpp ****         activeNotes_[note] = true;
 6973              		.loc 1 476 20 view .LVU1804
 6974 0008 CA5C     		ldrb	r2, [r1, r3]	@ zero_extendqisi2
 6975 000a 42B9     		cbnz	r2, .L393
 477:MidiController.cpp ****         activeNoteCount_++;
 6976              		.loc 1 477 9 is_stmt 1 view .LVU1805
 478:MidiController.cpp ****     }
 6977              		.loc 1 478 25 is_stmt 0 view .LVU1806
 6978 000c 00F59030 		add	r0, r0, #73728
 6979              	.LVL469:
ARM GAS  C:\Users\Marco\AppData\Local\Temp\ccVZoccs.s 			page 188


 477:MidiController.cpp ****         activeNoteCount_++;
 6980              		.loc 1 477 28 view .LVU1807
 6981 0010 0122     		movs	r2, #1
 6982 0012 CA54     		strb	r2, [r1, r3]
 478:MidiController.cpp ****     }
 6983              		.loc 1 478 9 is_stmt 1 view .LVU1808
 478:MidiController.cpp ****     }
 6984              		.loc 1 478 25 is_stmt 0 view .LVU1809
 6985 0014 90F84136 		ldrb	r3, [r0, #1601]	@ zero_extendqisi2
 6986 0018 1344     		add	r3, r3, r2
 6987 001a 80F84136 		strb	r3, [r0, #1601]
 6988              	.LVL470:
 6989              	.L393:
 478:MidiController.cpp ****     }
 6990              		.loc 1 478 25 view .LVU1810
 6991              	.LBE1552:
 6992              	.LBE1551:
 480:MidiController.cpp **** 
 6993              		.loc 1 480 1 view .LVU1811
 6994 001e 7047     		bx	lr
 6995              	.L396:
 6996              		.align	2
 6997              	.L395:
 6998 0020 C1250100 		.word	75201
 6999              		.cfi_endproc
 7000              	.LFE2623:
 7002              		.section	.text._ZN14MidiController12TrackNoteOffEh,"ax",%progbits
 7003              		.align	1
 7004              		.p2align 2,,3
 7005              		.global	_ZN14MidiController12TrackNoteOffEh
 7006              		.syntax unified
 7007              		.thumb
 7008              		.thumb_func
 7009              		.fpu fpv5-d16
 7011              	_ZN14MidiController12TrackNoteOffEh:
 7012              	.LVL471:
 7013              	.LFB2624:
 482:MidiController.cpp ****     if (note < 128 && activeNotes_[note]) {
 7014              		.loc 1 482 49 is_stmt 1 view -0
 7015              		.cfi_startproc
 7016              		@ args = 0, pretend = 0, frame = 0
 7017              		@ frame_needed = 0, uses_anonymous_args = 0
 7018              		@ link register save eliminated.
 483:MidiController.cpp ****         activeNotes_[note] = false;
 7019              		.loc 1 483 5 view .LVU1813
 7020 0000 0B06     		lsls	r3, r1, #24
 7021 0002 0DD4     		bmi	.L397
 7022              	.LVL472:
 7023              	.LBB1555:
 7024              	.LBI1555:
 482:MidiController.cpp ****     if (note < 128 && activeNotes_[note]) {
 7025              		.loc 1 482 6 view .LVU1814
 7026              	.LBB1556:
 483:MidiController.cpp ****         activeNotes_[note] = false;
 7027              		.loc 1 483 40 is_stmt 0 view .LVU1815
 7028 0004 0144     		add	r1, r1, r0
 7029              	.LVL473:
ARM GAS  C:\Users\Marco\AppData\Local\Temp\ccVZoccs.s 			page 189


 483:MidiController.cpp ****         activeNotes_[note] = false;
 7030              		.loc 1 483 40 view .LVU1816
 7031 0006 074B     		ldr	r3, .L407
 483:MidiController.cpp ****         activeNotes_[note] = false;
 7032              		.loc 1 483 20 view .LVU1817
 7033 0008 CA5C     		ldrb	r2, [r1, r3]	@ zero_extendqisi2
 7034 000a 4AB1     		cbz	r2, .L397
 484:MidiController.cpp ****         if (activeNoteCount_ > 0) {
 7035              		.loc 1 484 9 is_stmt 1 view .LVU1818
 484:MidiController.cpp ****         if (activeNoteCount_ > 0) {
 7036              		.loc 1 484 28 is_stmt 0 view .LVU1819
 7037 000c 0022     		movs	r2, #0
 485:MidiController.cpp ****             activeNoteCount_--;
 7038              		.loc 1 485 13 view .LVU1820
 7039 000e 00F59030 		add	r0, r0, #73728
 7040              	.LVL474:
 484:MidiController.cpp ****         if (activeNoteCount_ > 0) {
 7041              		.loc 1 484 28 view .LVU1821
 7042 0012 CA54     		strb	r2, [r1, r3]
 485:MidiController.cpp ****             activeNoteCount_--;
 7043              		.loc 1 485 9 is_stmt 1 view .LVU1822
 485:MidiController.cpp ****             activeNoteCount_--;
 7044              		.loc 1 485 13 is_stmt 0 view .LVU1823
 7045 0014 90F84136 		ldrb	r3, [r0, #1601]	@ zero_extendqisi2
 485:MidiController.cpp ****             activeNoteCount_--;
 7046              		.loc 1 485 9 view .LVU1824
 7047 0018 13B1     		cbz	r3, .L397
 486:MidiController.cpp ****         }
 7048              		.loc 1 486 13 is_stmt 1 view .LVU1825
 486:MidiController.cpp ****         }
 7049              		.loc 1 486 29 is_stmt 0 view .LVU1826
 7050 001a 013B     		subs	r3, r3, #1
 7051 001c 80F84136 		strb	r3, [r0, #1601]
 7052              	.LVL475:
 7053              	.L397:
 486:MidiController.cpp ****         }
 7054              		.loc 1 486 29 view .LVU1827
 7055              	.LBE1556:
 7056              	.LBE1555:
 489:MidiController.cpp **** 
 7057              		.loc 1 489 1 view .LVU1828
 7058 0020 7047     		bx	lr
 7059              	.L408:
 7060 0022 00BF     		.align	2
 7061              	.L407:
 7062 0024 C1250100 		.word	75201
 7063              		.cfi_endproc
 7064              	.LFE2624:
 7066              		.section	.text._ZN14MidiController12IsNoteActiveEh,"ax",%progbits
 7067              		.align	1
 7068              		.p2align 2,,3
 7069              		.global	_ZN14MidiController12IsNoteActiveEh
 7070              		.syntax unified
 7071              		.thumb
 7072              		.thumb_func
 7073              		.fpu fpv5-d16
 7075              	_ZN14MidiController12IsNoteActiveEh:
ARM GAS  C:\Users\Marco\AppData\Local\Temp\ccVZoccs.s 			page 190


 7076              	.LVL476:
 7077              	.LFB2625:
 491:MidiController.cpp ****     return note < 128 && activeNotes_[note];
 7078              		.loc 1 491 49 is_stmt 1 view -0
 7079              		.cfi_startproc
 7080              		@ args = 0, pretend = 0, frame = 0
 7081              		@ frame_needed = 0, uses_anonymous_args = 0
 7082              		@ link register save eliminated.
 492:MidiController.cpp **** }
 7083              		.loc 1 492 5 view .LVU1830
 492:MidiController.cpp **** }
 7084              		.loc 1 492 23 is_stmt 0 view .LVU1831
 7085 0000 0B06     		lsls	r3, r1, #24
 7086 0002 03D4     		bmi	.L411
 492:MidiController.cpp **** }
 7087              		.loc 1 492 43 discriminator 1 view .LVU1832
 7088 0004 0844     		add	r0, r0, r1
 7089              	.LVL477:
 492:MidiController.cpp **** }
 7090              		.loc 1 492 43 discriminator 1 view .LVU1833
 7091 0006 024B     		ldr	r3, .L412
 7092 0008 C05C     		ldrb	r0, [r0, r3]	@ zero_extendqisi2
 7093 000a 7047     		bx	lr
 7094              	.LVL478:
 7095              	.L411:
 492:MidiController.cpp **** }
 7096              		.loc 1 492 23 view .LVU1834
 7097 000c 0020     		movs	r0, #0
 7098              	.LVL479:
 493:MidiController.cpp **** 
 7099              		.loc 1 493 1 view .LVU1835
 7100 000e 7047     		bx	lr
 7101              	.L413:
 7102              		.align	2
 7103              	.L412:
 7104 0010 C1250100 		.word	75201
 7105              		.cfi_endproc
 7106              	.LFE2625:
 7108              		.section	.text._ZN14MidiController19UpdateRunningStatusEh,"ax",%progbits
 7109              		.align	1
 7110              		.p2align 2,,3
 7111              		.global	_ZN14MidiController19UpdateRunningStatusEh
 7112              		.syntax unified
 7113              		.thumb
 7114              		.thumb_func
 7115              		.fpu fpv5-d16
 7117              	_ZN14MidiController19UpdateRunningStatusEh:
 7118              	.LVL480:
 7119              	.LFB2626:
 495:MidiController.cpp ****     runningStatus_ = status;
 7120              		.loc 1 495 58 is_stmt 1 view -0
 7121              		.cfi_startproc
 7122              		@ args = 0, pretend = 0, frame = 0
 7123              		@ frame_needed = 0, uses_anonymous_args = 0
 7124              		@ link register save eliminated.
 7125              		.loc 1 496 5 view .LVU1837
 7126              		.loc 1 496 20 is_stmt 0 view .LVU1838
ARM GAS  C:\Users\Marco\AppData\Local\Temp\ccVZoccs.s 			page 191


 7127 0000 00F59030 		add	r0, r0, #73728
 7128              	.LVL481:
 7129              		.loc 1 496 20 view .LVU1839
 7130 0004 80F8C015 		strb	r1, [r0, #1472]
 497:MidiController.cpp **** }
 7131              		.loc 1 497 1 view .LVU1840
 7132 0008 7047     		bx	lr
 7133              		.cfi_endproc
 7134              	.LFE2626:
 7136 000a 00BF     		.section	.text._ZN14MidiController19CanUseRunningStatusEh,"ax",%progbits
 7137              		.align	1
 7138              		.p2align 2,,3
 7139              		.global	_ZN14MidiController19CanUseRunningStatusEh
 7140              		.syntax unified
 7141              		.thumb
 7142              		.thumb_func
 7143              		.fpu fpv5-d16
 7145              	_ZN14MidiController19CanUseRunningStatusEh:
 7146              	.LVL482:
 7147              	.LFB2627:
 498:MidiController.cpp **** 
 499:MidiController.cpp **** bool MidiController::CanUseRunningStatus(uint8_t status) {
 7148              		.loc 1 499 58 is_stmt 1 view -0
 7149              		.cfi_startproc
 7150              		@ args = 0, pretend = 0, frame = 0
 7151              		@ frame_needed = 0, uses_anonymous_args = 0
 7152              		@ link register save eliminated.
 500:MidiController.cpp ****     return status == runningStatus_ && status >= 0x80 && status < 0xF0;
 7153              		.loc 1 500 5 view .LVU1842
 7154              		.loc 1 500 22 is_stmt 0 view .LVU1843
 7155 0000 00F59030 		add	r0, r0, #73728
 7156              	.LVL483:
 7157              		.loc 1 500 55 view .LVU1844
 7158 0004 90F8C005 		ldrb	r0, [r0, #1472]	@ zero_extendqisi2
 7159              	.LVL484:
 7160              		.loc 1 500 55 view .LVU1845
 7161 0008 8842     		cmp	r0, r1
 7162 000a 01D0     		beq	.L418
 7163 000c 0020     		movs	r0, #0
 501:MidiController.cpp **** }
 7164              		.loc 1 501 1 view .LVU1846
 7165 000e 7047     		bx	lr
 7166              	.L418:
 500:MidiController.cpp ****     return status == runningStatus_ && status >= 0x80 && status < 0xF0;
 7167              		.loc 1 500 55 discriminator 1 view .LVU1847
 7168 0010 80F08000 		eor	r0, r0, #128
 7169 0014 6F28     		cmp	r0, #111
 7170 0016 8CBF     		ite	hi
 7171 0018 0020     		movhi	r0, #0
 7172 001a 0120     		movls	r0, #1
 7173 001c 7047     		bx	lr
 7174              		.cfi_endproc
 7175              	.LFE2627:
 7177 001e 00BF     		.section	.text._ZN14MidiController15LogMidiActivityEPKchh,"ax",%progbits
 7178              		.align	1
 7179              		.p2align 2,,3
 7180              		.global	_ZN14MidiController15LogMidiActivityEPKchh
ARM GAS  C:\Users\Marco\AppData\Local\Temp\ccVZoccs.s 			page 192


 7181              		.syntax unified
 7182              		.thumb
 7183              		.thumb_func
 7184              		.fpu fpv5-d16
 7186              	_ZN14MidiController15LogMidiActivityEPKchh:
 7187              	.LVL485:
 7188              	.LFB2628:
 502:MidiController.cpp **** 
 503:MidiController.cpp **** void MidiController::LogMidiActivity(const char* action, uint8_t data1, uint8_t data2) {
 7189              		.loc 1 503 88 is_stmt 1 view -0
 7190              		.cfi_startproc
 7191              		@ args = 0, pretend = 0, frame = 0
 7192              		@ frame_needed = 0, uses_anonymous_args = 0
 7193              		@ link register save eliminated.
 504:MidiController.cpp ****     // TODO: Implement MIDI activity logging if needed
 505:MidiController.cpp ****     // Could be useful for debugging
 506:MidiController.cpp **** }
 7194              		.loc 1 506 1 is_stmt 0 view .LVU1849
 7195 0000 7047     		bx	lr
 7196              		.cfi_endproc
 7197              	.LFE2628:
 7199 0002 00BF     		.section	.text._ZN14MidiController16UpdateStatisticsEv,"ax",%progbits
 7200              		.align	1
 7201              		.p2align 2,,3
 7202              		.global	_ZN14MidiController16UpdateStatisticsEv
 7203              		.syntax unified
 7204              		.thumb
 7205              		.thumb_func
 7206              		.fpu fpv5-d16
 7208              	_ZN14MidiController16UpdateStatisticsEv:
 7209              	.LFB2684:
 7210              		.cfi_startproc
 7211              		@ args = 0, pretend = 0, frame = 0
 7212              		@ frame_needed = 0, uses_anonymous_args = 0
 7213              		@ link register save eliminated.
 7214 0000 7047     		bx	lr
 7215              		.cfi_endproc
 7216              	.LFE2684:
 7218 0002 00BF     		.text
 7219              	.Letext0:
 7220              		.file 8 "c:\\program files\\daisytoolchain\\arm-none-eabi\\include\\machine\\_default_types.h"
 7221              		.file 9 "c:\\program files\\daisytoolchain\\arm-none-eabi\\include\\sys\\_stdint.h"
 7222              		.file 10 "c:\\program files\\daisytoolchain\\arm-none-eabi\\include\\stdint.h"
 7223              		.file 11 "c:\\program files\\daisytoolchain\\lib\\gcc\\arm-none-eabi\\10.2.1\\include\\stddef.h"
 7224              		.file 12 "c:\\program files\\daisytoolchain\\arm-none-eabi\\include\\c++\\10.2.1\\cmath"
 7225              		.file 13 "c:\\program files\\daisytoolchain\\arm-none-eabi\\include\\c++\\10.2.1\\bits\\std_abs.h"
 7226              		.file 14 "c:\\program files\\daisytoolchain\\arm-none-eabi\\include\\c++\\10.2.1\\cstdlib"
 7227              		.file 15 "c:\\program files\\daisytoolchain\\arm-none-eabi\\include\\c++\\10.2.1\\cstdint"
 7228              		.file 16 "c:\\program files\\daisytoolchain\\arm-none-eabi\\include\\c++\\10.2.1\\arm-none-eabi\\t
 7229              		.file 17 "c:\\program files\\daisytoolchain\\arm-none-eabi\\include\\c++\\10.2.1\\type_traits"
 7230              		.file 18 "c:\\program files\\daisytoolchain\\arm-none-eabi\\include\\c++\\10.2.1\\debug\\debug.h"
 7231              		.file 19 "c:\\program files\\daisytoolchain\\arm-none-eabi\\include\\c++\\10.2.1\\bits\\algorithmf
 7232              		.file 20 "c:\\program files\\daisytoolchain\\arm-none-eabi\\include\\c++\\10.2.1\\bits\\stl_pair.h
 7233              		.file 21 "c:\\program files\\daisytoolchain\\arm-none-eabi\\include\\c++\\10.2.1\\bits\\exception_
 7234              		.file 22 "c:\\program files\\daisytoolchain\\arm-none-eabi\\include\\c++\\10.2.1\\initializer_list
 7235              		.file 23 "c:\\program files\\daisytoolchain\\arm-none-eabi\\include\\c++\\10.2.1\\cstdarg"
 7236              		.file 24 "c:\\program files\\daisytoolchain\\arm-none-eabi\\include\\c++\\10.2.1\\cstdio"
ARM GAS  C:\Users\Marco\AppData\Local\Temp\ccVZoccs.s 			page 193


 7237              		.file 25 "c:\\program files\\daisytoolchain\\arm-none-eabi\\include\\c++\\10.2.1\\cstring"
 7238              		.file 26 "c:\\program files\\daisytoolchain\\arm-none-eabi\\include\\c++\\10.2.1\\bits\\predefined
 7239              		.file 27 "c:\\program files\\daisytoolchain\\arm-none-eabi\\include\\sys\\_types.h"
 7240              		.file 28 "c:\\program files\\daisytoolchain\\arm-none-eabi\\include\\sys\\reent.h"
 7241              		.file 29 "c:\\program files\\daisytoolchain\\arm-none-eabi\\include\\sys\\lock.h"
 7242              		.file 30 "c:\\program files\\daisytoolchain\\arm-none-eabi\\include\\math.h"
 7243              		.file 31 "c:\\program files\\daisytoolchain\\arm-none-eabi\\include\\stdlib.h"
 7244              		.file 32 "c:\\program files\\daisytoolchain\\arm-none-eabi\\include\\c++\\10.2.1\\math.h"
 7245              		.file 33 "c:\\program files\\daisytoolchain\\arm-none-eabi\\include\\c++\\10.2.1\\stdlib.h"
 7246              		.file 34 "../DaisyExamples/libDaisy/src/daisy_core.h"
 7247              		.file 35 "../DaisyExamples/libDaisy/src/per/tim.h"
 7248              		.file 36 "../DaisyExamples/libDaisy/src/sys/system.h"
 7249              		.file 37 "../DaisyExamples/libDaisy/src/per/qspi.h"
 7250              		.file 38 "../DaisyExamples/libDaisy/src/per/dac.h"
 7251              		.file 39 "../DaisyExamples/libDaisy/src/per/sai.h"
 7252              		.file 40 "../DaisyExamples/libDaisy/src/hid/audio.h"
 7253              		.file 41 "../DaisyExamples/libDaisy/src/per/adc.h"
 7254              		.file 42 "../DaisyExamples/libDaisy/src/hid/MidiEvent.h"
 7255              		.file 43 "../DaisyExamples/libDaisy/src/hid/usb.h"
 7256              		.file 44 "../DaisyExamples/libDaisy/src/util/wav_format.h"
 7257              		.file 45 "../DaisyExamples/libDaisy/src/dev/max11300.h"
 7258              		.file 46 "../DaisyExamples/libDaisy/src/daisy_seed.h"
 7259              		.file 47 "../DaisyExamples/libDaisy/src/per/gpio.h"
 7260              		.file 48 "../DaisyExamples/libDaisy/src/dev/sdram.h"
 7261              		.file 49 "c:\\program files\\daisytoolchain\\lib\\gcc\\arm-none-eabi\\10.2.1\\include\\stdarg.h"
 7262              		.file 50 "c:\\program files\\daisytoolchain\\arm-none-eabi\\include\\stdio.h"
 7263              		.file 51 "c:\\program files\\daisytoolchain\\arm-none-eabi\\include\\string.h"
 7264              		.file 52 "ConfigManager.h"
 7265              		.file 53 "MidiController.h"
 7266              		.file 54 "../DaisyExamples/libDaisy/src/dev/sr_595.h"
 7267              		.file 55 "c:\\program files\\daisytoolchain\\arm-none-eabi\\include\\c++\\10.2.1\\new"
 7268              		.file 56 "<built-in>"
ARM GAS  C:\Users\Marco\AppData\Local\Temp\ccVZoccs.s 			page 194


DEFINED SYMBOLS
                            *ABS*:00000000 MidiController.cpp
C:\Users\Marco\AppData\Local\Temp\ccVZoccs.s:17     .text._ZN14MidiController15SendMidiMessageEhh.part.0:00000000 $t
C:\Users\Marco\AppData\Local\Temp\ccVZoccs.s:25     .text._ZN14MidiController15SendMidiMessageEhh.part.0:00000000 _ZN14MidiController15SendMidiMessageEhh.part.0
C:\Users\Marco\AppData\Local\Temp\ccVZoccs.s:185    .text._ZN14MidiControllerC2Ev:00000000 $t
C:\Users\Marco\AppData\Local\Temp\ccVZoccs.s:193    .text._ZN14MidiControllerC2Ev:00000000 _ZN14MidiControllerC2Ev
C:\Users\Marco\AppData\Local\Temp\ccVZoccs.s:501    .text._ZN14MidiControllerC2Ev:000000ac $d
C:\Users\Marco\AppData\Local\Temp\ccVZoccs.s:193    .text._ZN14MidiControllerC2Ev:00000000 _ZN14MidiControllerC1Ev
C:\Users\Marco\AppData\Local\Temp\ccVZoccs.s:508    .text._ZN14MidiControllerD2Ev:00000000 $t
C:\Users\Marco\AppData\Local\Temp\ccVZoccs.s:516    .text._ZN14MidiControllerD2Ev:00000000 _ZN14MidiControllerD2Ev
C:\Users\Marco\AppData\Local\Temp\ccVZoccs.s:516    .text._ZN14MidiControllerD2Ev:00000000 _ZN14MidiControllerD1Ev
C:\Users\Marco\AppData\Local\Temp\ccVZoccs.s:578    .text._ZN14MidiController10SendNoteOnEhh:00000000 $t
C:\Users\Marco\AppData\Local\Temp\ccVZoccs.s:586    .text._ZN14MidiController10SendNoteOnEhh:00000000 _ZN14MidiController10SendNoteOnEhh
C:\Users\Marco\AppData\Local\Temp\ccVZoccs.s:857    .text._ZN14MidiController10SendNoteOnEhh:000000a0 $d
C:\Users\Marco\AppData\Local\Temp\ccVZoccs.s:869    .text._ZN14MidiController11SendNoteOffEh:00000000 $t
C:\Users\Marco\AppData\Local\Temp\ccVZoccs.s:877    .text._ZN14MidiController11SendNoteOffEh:00000000 _ZN14MidiController11SendNoteOffEh
C:\Users\Marco\AppData\Local\Temp\ccVZoccs.s:1202   .text._ZN14MidiController11SendNoteOffEh:000000a4 $d
C:\Users\Marco\AppData\Local\Temp\ccVZoccs.s:1216   .text._ZN14MidiController11SendNoteOffEhh:00000000 $t
C:\Users\Marco\AppData\Local\Temp\ccVZoccs.s:1224   .text._ZN14MidiController11SendNoteOffEhh:00000000 _ZN14MidiController11SendNoteOffEhh
C:\Users\Marco\AppData\Local\Temp\ccVZoccs.s:1524   .text._ZN14MidiController11SendNoteOffEhh:000000a4 $d
C:\Users\Marco\AppData\Local\Temp\ccVZoccs.s:1538   .text._ZN14MidiController15SendAllNotesOffEv:00000000 $t
C:\Users\Marco\AppData\Local\Temp\ccVZoccs.s:1546   .text._ZN14MidiController15SendAllNotesOffEv:00000000 _ZN14MidiController15SendAllNotesOffEv
C:\Users\Marco\AppData\Local\Temp\ccVZoccs.s:2052   .text._ZN14MidiController15SendAllNotesOffEv:00000110 $d
C:\Users\Marco\AppData\Local\Temp\ccVZoccs.s:2062   .text._ZN14MidiController17SendControlChangeEhh:00000000 $t
C:\Users\Marco\AppData\Local\Temp\ccVZoccs.s:2070   .text._ZN14MidiController17SendControlChangeEhh:00000000 _ZN14MidiController17SendControlChangeEhh
C:\Users\Marco\AppData\Local\Temp\ccVZoccs.s:2242   .text._ZN14MidiController17SendControlChangeEhh:00000064 $d
C:\Users\Marco\AppData\Local\Temp\ccVZoccs.s:2250   .text._ZN14MidiController17SendProgramChangeEh:00000000 $t
C:\Users\Marco\AppData\Local\Temp\ccVZoccs.s:2258   .text._ZN14MidiController17SendProgramChangeEh:00000000 _ZN14MidiController17SendProgramChangeEh
C:\Users\Marco\AppData\Local\Temp\ccVZoccs.s:2432   .text._ZN14MidiController17SendProgramChangeEh:00000068 $d
C:\Users\Marco\AppData\Local\Temp\ccVZoccs.s:2438   .text._ZN14MidiController13SendPitchBendEt:00000000 $t
C:\Users\Marco\AppData\Local\Temp\ccVZoccs.s:2446   .text._ZN14MidiController13SendPitchBendEt:00000000 _ZN14MidiController13SendPitchBendEt
C:\Users\Marco\AppData\Local\Temp\ccVZoccs.s:2614   .text._ZN14MidiController13SendPitchBendEt:00000068 $d
C:\Users\Marco\AppData\Local\Temp\ccVZoccs.s:2620   .text._ZN14MidiController19SendChannelPressureEh:00000000 $t
C:\Users\Marco\AppData\Local\Temp\ccVZoccs.s:2628   .text._ZN14MidiController19SendChannelPressureEh:00000000 _ZN14MidiController19SendChannelPressureEh
C:\Users\Marco\AppData\Local\Temp\ccVZoccs.s:2792   .text._ZN14MidiController19SendChannelPressureEh:00000068 $d
C:\Users\Marco\AppData\Local\Temp\ccVZoccs.s:2798   .text._ZN14MidiController16SendPolyPressureEhh:00000000 $t
C:\Users\Marco\AppData\Local\Temp\ccVZoccs.s:2806   .text._ZN14MidiController16SendPolyPressureEhh:00000000 _ZN14MidiController16SendPolyPressureEhh
C:\Users\Marco\AppData\Local\Temp\ccVZoccs.s:2984   .text._ZN14MidiController16SendPolyPressureEhh:00000068 $d
C:\Users\Marco\AppData\Local\Temp\ccVZoccs.s:2992   .text._ZN14MidiController10SetChannelEh:00000000 $t
C:\Users\Marco\AppData\Local\Temp\ccVZoccs.s:3000   .text._ZN14MidiController10SetChannelEh:00000000 _ZN14MidiController10SetChannelEh
C:\Users\Marco\AppData\Local\Temp\ccVZoccs.s:3035   .text._ZN14MidiController13SetOutputModeE14MidiOutputMode:00000000 $t
C:\Users\Marco\AppData\Local\Temp\ccVZoccs.s:3043   .text._ZN14MidiController13SetOutputModeE14MidiOutputMode:00000000 _ZN14MidiController13SetOutputModeE14MidiOutputMode
C:\Users\Marco\AppData\Local\Temp\ccVZoccs.s:3063   .text._ZN14MidiController10SetEnabledEb:00000000 $t
C:\Users\Marco\AppData\Local\Temp\ccVZoccs.s:3071   .text._ZN14MidiController10SetEnabledEb:00000000 _ZN14MidiController10SetEnabledEb
C:\Users\Marco\AppData\Local\Temp\ccVZoccs.s:3091   .text._ZN14MidiController18HasPendingMessagesEv:00000000 $t
C:\Users\Marco\AppData\Local\Temp\ccVZoccs.s:3099   .text._ZN14MidiController18HasPendingMessagesEv:00000000 _ZN14MidiController18HasPendingMessagesEv
C:\Users\Marco\AppData\Local\Temp\ccVZoccs.s:3123   .text._ZN14MidiController17ClearMessageQueueEv:00000000 $t
C:\Users\Marco\AppData\Local\Temp\ccVZoccs.s:3131   .text._ZN14MidiController17ClearMessageQueueEv:00000000 _ZN14MidiController17ClearMessageQueueEv
C:\Users\Marco\AppData\Local\Temp\ccVZoccs.s:3156   .text._ZN14MidiController17GetCurrentChannelEv:00000000 $t
C:\Users\Marco\AppData\Local\Temp\ccVZoccs.s:3164   .text._ZN14MidiController17GetCurrentChannelEv:00000000 _ZN14MidiController17GetCurrentChannelEv
C:\Users\Marco\AppData\Local\Temp\ccVZoccs.s:3185   .text._ZN14MidiController13GetOutputModeEv:00000000 $t
C:\Users\Marco\AppData\Local\Temp\ccVZoccs.s:3193   .text._ZN14MidiController13GetOutputModeEv:00000000 _ZN14MidiController13GetOutputModeEv
C:\Users\Marco\AppData\Local\Temp\ccVZoccs.s:3214   .text._ZN14MidiController9IsEnabledEv:00000000 $t
C:\Users\Marco\AppData\Local\Temp\ccVZoccs.s:3222   .text._ZN14MidiController9IsEnabledEv:00000000 _ZN14MidiController9IsEnabledEv
C:\Users\Marco\AppData\Local\Temp\ccVZoccs.s:3243   .text._ZN14MidiController15GetMessagesSentEv:00000000 $t
C:\Users\Marco\AppData\Local\Temp\ccVZoccs.s:3251   .text._ZN14MidiController15GetMessagesSentEv:00000000 _ZN14MidiController15GetMessagesSentEv
C:\Users\Marco\AppData\Local\Temp\ccVZoccs.s:3272   .text._ZN14MidiController19GetLastActivityTimeEv:00000000 $t
ARM GAS  C:\Users\Marco\AppData\Local\Temp\ccVZoccs.s 			page 195


C:\Users\Marco\AppData\Local\Temp\ccVZoccs.s:3280   .text._ZN14MidiController19GetLastActivityTimeEv:00000000 _ZN14MidiController19GetLastActivityTimeEv
C:\Users\Marco\AppData\Local\Temp\ccVZoccs.s:3301   .text._ZN14MidiController8SelfTestEv:00000000 $t
C:\Users\Marco\AppData\Local\Temp\ccVZoccs.s:3309   .text._ZN14MidiController8SelfTestEv:00000000 _ZN14MidiController8SelfTestEv
C:\Users\Marco\AppData\Local\Temp\ccVZoccs.s:3360   .text._ZN14MidiController9SendSysExEPhj:00000000 $t
C:\Users\Marco\AppData\Local\Temp\ccVZoccs.s:3368   .text._ZN14MidiController9SendSysExEPhj:00000000 _ZN14MidiController9SendSysExEPhj
C:\Users\Marco\AppData\Local\Temp\ccVZoccs.s:3538   .text._ZN14MidiController7SendMTCEhh:00000000 $t
C:\Users\Marco\AppData\Local\Temp\ccVZoccs.s:3546   .text._ZN14MidiController7SendMTCEhh:00000000 _ZN14MidiController7SendMTCEhh
C:\Users\Marco\AppData\Local\Temp\ccVZoccs.s:3603   .text._ZN14MidiController16SendSongPositionEt:00000000 $t
C:\Users\Marco\AppData\Local\Temp\ccVZoccs.s:3611   .text._ZN14MidiController16SendSongPositionEt:00000000 _ZN14MidiController16SendSongPositionEt
C:\Users\Marco\AppData\Local\Temp\ccVZoccs.s:3752   .text._ZN14MidiController9SendClockEv:00000000 $t
C:\Users\Marco\AppData\Local\Temp\ccVZoccs.s:3760   .text._ZN14MidiController9SendClockEv:00000000 _ZN14MidiController9SendClockEv
C:\Users\Marco\AppData\Local\Temp\ccVZoccs.s:3957   .text._ZN14MidiController9SendStartEv:00000000 $t
C:\Users\Marco\AppData\Local\Temp\ccVZoccs.s:3965   .text._ZN14MidiController9SendStartEv:00000000 _ZN14MidiController9SendStartEv
C:\Users\Marco\AppData\Local\Temp\ccVZoccs.s:4166   .text._ZN14MidiController8SendStopEv:00000000 $t
C:\Users\Marco\AppData\Local\Temp\ccVZoccs.s:4174   .text._ZN14MidiController8SendStopEv:00000000 _ZN14MidiController8SendStopEv
C:\Users\Marco\AppData\Local\Temp\ccVZoccs.s:4375   .text._ZN14MidiController12SendContinueEv:00000000 $t
C:\Users\Marco\AppData\Local\Temp\ccVZoccs.s:4383   .text._ZN14MidiController12SendContinueEv:00000000 _ZN14MidiController12SendContinueEv
C:\Users\Marco\AppData\Local\Temp\ccVZoccs.s:4584   .text._ZN14MidiController15SendSceneChangeEh:00000000 $t
C:\Users\Marco\AppData\Local\Temp\ccVZoccs.s:4592   .text._ZN14MidiController15SendSceneChangeEh:00000000 _ZN14MidiController15SendSceneChangeEh
C:\Users\Marco\AppData\Local\Temp\ccVZoccs.s:4777   .text._ZN14MidiController15SendSceneChangeEh:00000068 $d
C:\Users\Marco\AppData\Local\Temp\ccVZoccs.s:4783   .text._ZN14MidiController14SendBankSelectEh:00000000 $t
C:\Users\Marco\AppData\Local\Temp\ccVZoccs.s:4791   .text._ZN14MidiController14SendBankSelectEh:00000000 _ZN14MidiController14SendBankSelectEh
C:\Users\Marco\AppData\Local\Temp\ccVZoccs.s:4982   .text._ZN14MidiController14SendBankSelectEh:00000070 $d
C:\Users\Marco\AppData\Local\Temp\ccVZoccs.s:4988   .text._ZN14MidiController15SendMidiMessageEhhh:00000000 $t
C:\Users\Marco\AppData\Local\Temp\ccVZoccs.s:4996   .text._ZN14MidiController15SendMidiMessageEhhh:00000000 _ZN14MidiController15SendMidiMessageEhhh
C:\Users\Marco\AppData\Local\Temp\ccVZoccs.s:5176   .text._ZN14MidiController15SendMidiMessageEhh:00000000 $t
C:\Users\Marco\AppData\Local\Temp\ccVZoccs.s:5184   .text._ZN14MidiController15SendMidiMessageEhh:00000000 _ZN14MidiController15SendMidiMessageEhh
C:\Users\Marco\AppData\Local\Temp\ccVZoccs.s:5359   .text._ZN14MidiController15SendMidiMessageEh:00000000 $t
C:\Users\Marco\AppData\Local\Temp\ccVZoccs.s:5367   .text._ZN14MidiController15SendMidiMessageEh:00000000 _ZN14MidiController15SendMidiMessageEh
C:\Users\Marco\AppData\Local\Temp\ccVZoccs.s:5537   .text._ZN14MidiController12QueueMessageEhhh:00000000 $t
C:\Users\Marco\AppData\Local\Temp\ccVZoccs.s:5545   .text._ZN14MidiController12QueueMessageEhhh:00000000 _ZN14MidiController12QueueMessageEhhh
C:\Users\Marco\AppData\Local\Temp\ccVZoccs.s:5638   .text._ZN14MidiController12QueueMessageEhhh:0000004c $d
C:\Users\Marco\AppData\Local\Temp\ccVZoccs.s:5646   .text._ZN14MidiController12QueueMessageEhh:00000000 $t
C:\Users\Marco\AppData\Local\Temp\ccVZoccs.s:5654   .text._ZN14MidiController12QueueMessageEhh:00000000 _ZN14MidiController12QueueMessageEhh
C:\Users\Marco\AppData\Local\Temp\ccVZoccs.s:5753   .text._ZN14MidiController12QueueMessageEhh:0000004c $d
C:\Users\Marco\AppData\Local\Temp\ccVZoccs.s:5760   .text._ZN14MidiController19ProcessMessageQueueEv:00000000 $t
C:\Users\Marco\AppData\Local\Temp\ccVZoccs.s:5768   .text._ZN14MidiController19ProcessMessageQueueEv:00000000 _ZN14MidiController19ProcessMessageQueueEv
C:\Users\Marco\AppData\Local\Temp\ccVZoccs.s:6076   .text._ZN14MidiController19ProcessMessageQueueEv:000000dc $d
C:\Users\Marco\AppData\Local\Temp\ccVZoccs.s:6091   .text._ZN14MidiController6UpdateEv:00000000 $t
C:\Users\Marco\AppData\Local\Temp\ccVZoccs.s:6099   .text._ZN14MidiController6UpdateEv:00000000 _ZN14MidiController6UpdateEv
C:\Users\Marco\AppData\Local\Temp\ccVZoccs.s:6158   .text._ZN14MidiController17FlushMessageQueueEv:00000000 $t
C:\Users\Marco\AppData\Local\Temp\ccVZoccs.s:6166   .text._ZN14MidiController17FlushMessageQueueEv:00000000 _ZN14MidiController17FlushMessageQueueEv
C:\Users\Marco\AppData\Local\Temp\ccVZoccs.s:6183   .text._ZN14MidiController11IsQueueFullEv:00000000 $t
C:\Users\Marco\AppData\Local\Temp\ccVZoccs.s:6191   .text._ZN14MidiController11IsQueueFullEv:00000000 _ZN14MidiController11IsQueueFullEv
C:\Users\Marco\AppData\Local\Temp\ccVZoccs.s:6216   .text._ZN14MidiController10SendViaUSBEPhj:00000000 $t
C:\Users\Marco\AppData\Local\Temp\ccVZoccs.s:6224   .text._ZN14MidiController10SendViaUSBEPhj:00000000 _ZN14MidiController10SendViaUSBEPhj
C:\Users\Marco\AppData\Local\Temp\ccVZoccs.s:6254   .text._ZN14MidiController11SendViaUARTEPhj:00000000 $t
C:\Users\Marco\AppData\Local\Temp\ccVZoccs.s:6262   .text._ZN14MidiController11SendViaUARTEPhj:00000000 _ZN14MidiController11SendViaUARTEPhj
C:\Users\Marco\AppData\Local\Temp\ccVZoccs.s:6293   .text._ZN14MidiController13InitializeUSBEv:00000000 $t
C:\Users\Marco\AppData\Local\Temp\ccVZoccs.s:6301   .text._ZN14MidiController13InitializeUSBEv:00000000 _ZN14MidiController13InitializeUSBEv
C:\Users\Marco\AppData\Local\Temp\ccVZoccs.s:6387   .text._ZN14MidiController14InitializeUARTEv:00000000 $t
C:\Users\Marco\AppData\Local\Temp\ccVZoccs.s:6395   .text._ZN14MidiController14InitializeUARTEv:00000000 _ZN14MidiController14InitializeUARTEv
C:\Users\Marco\AppData\Local\Temp\ccVZoccs.s:6599   .text._ZN14MidiController4InitEPN5daisy9DaisySeedEP13ConfigManager:00000000 $t
C:\Users\Marco\AppData\Local\Temp\ccVZoccs.s:6607   .text._ZN14MidiController4InitEPN5daisy9DaisySeedEP13ConfigManager:00000000 _ZN14MidiController4InitEPN5daisy9DaisySeedEP13ConfigManager
C:\Users\Marco\AppData\Local\Temp\ccVZoccs.s:6730   .text._ZN14MidiController18CheckUSBConnectionEv:00000000 $t
C:\Users\Marco\AppData\Local\Temp\ccVZoccs.s:6738   .text._ZN14MidiController18CheckUSBConnectionEv:00000000 _ZN14MidiController18CheckUSBConnectionEv
C:\Users\Marco\AppData\Local\Temp\ccVZoccs.s:6759   .text._ZN14MidiController19CheckUARTConnectionEv:00000000 $t
ARM GAS  C:\Users\Marco\AppData\Local\Temp\ccVZoccs.s 			page 196


C:\Users\Marco\AppData\Local\Temp\ccVZoccs.s:6767   .text._ZN14MidiController19CheckUARTConnectionEv:00000000 _ZN14MidiController19CheckUARTConnectionEv
C:\Users\Marco\AppData\Local\Temp\ccVZoccs.s:6788   .text._ZN14MidiController22HandleConnectionChangeEv:00000000 $t
C:\Users\Marco\AppData\Local\Temp\ccVZoccs.s:6796   .text._ZN14MidiController22HandleConnectionChangeEv:00000000 _ZN14MidiController22HandleConnectionChangeEv
C:\Users\Marco\AppData\Local\Temp\ccVZoccs.s:6810   .text._ZN14MidiController16CreateStatusByteE15MidiMessageTypeh:00000000 $t
C:\Users\Marco\AppData\Local\Temp\ccVZoccs.s:6818   .text._ZN14MidiController16CreateStatusByteE15MidiMessageTypeh:00000000 _ZN14MidiController16CreateStatusByteE15MidiMessageTypeh
C:\Users\Marco\AppData\Local\Temp\ccVZoccs.s:6841   .text._ZN14MidiController14IsValidChannelEh:00000000 $t
C:\Users\Marco\AppData\Local\Temp\ccVZoccs.s:6849   .text._ZN14MidiController14IsValidChannelEh:00000000 _ZN14MidiController14IsValidChannelEh
C:\Users\Marco\AppData\Local\Temp\ccVZoccs.s:6873   .text._ZN14MidiController11IsValidNoteEh:00000000 $t
C:\Users\Marco\AppData\Local\Temp\ccVZoccs.s:6881   .text._ZN14MidiController11IsValidNoteEh:00000000 _ZN14MidiController11IsValidNoteEh
C:\Users\Marco\AppData\Local\Temp\ccVZoccs.s:6902   .text._ZN14MidiController15IsValidVelocityEh:00000000 $t
C:\Users\Marco\AppData\Local\Temp\ccVZoccs.s:6910   .text._ZN14MidiController15IsValidVelocityEh:00000000 _ZN14MidiController15IsValidVelocityEh
C:\Users\Marco\AppData\Local\Temp\ccVZoccs.s:6923   .text._ZN14MidiController17IsValidControllerEh:00000000 $t
C:\Users\Marco\AppData\Local\Temp\ccVZoccs.s:6931   .text._ZN14MidiController17IsValidControllerEh:00000000 _ZN14MidiController17IsValidControllerEh
C:\Users\Marco\AppData\Local\Temp\ccVZoccs.s:6944   .text._ZN14MidiController11TrackNoteOnEh:00000000 $t
C:\Users\Marco\AppData\Local\Temp\ccVZoccs.s:6952   .text._ZN14MidiController11TrackNoteOnEh:00000000 _ZN14MidiController11TrackNoteOnEh
C:\Users\Marco\AppData\Local\Temp\ccVZoccs.s:6998   .text._ZN14MidiController11TrackNoteOnEh:00000020 $d
C:\Users\Marco\AppData\Local\Temp\ccVZoccs.s:7003   .text._ZN14MidiController12TrackNoteOffEh:00000000 $t
C:\Users\Marco\AppData\Local\Temp\ccVZoccs.s:7011   .text._ZN14MidiController12TrackNoteOffEh:00000000 _ZN14MidiController12TrackNoteOffEh
C:\Users\Marco\AppData\Local\Temp\ccVZoccs.s:7062   .text._ZN14MidiController12TrackNoteOffEh:00000024 $d
C:\Users\Marco\AppData\Local\Temp\ccVZoccs.s:7067   .text._ZN14MidiController12IsNoteActiveEh:00000000 $t
C:\Users\Marco\AppData\Local\Temp\ccVZoccs.s:7075   .text._ZN14MidiController12IsNoteActiveEh:00000000 _ZN14MidiController12IsNoteActiveEh
C:\Users\Marco\AppData\Local\Temp\ccVZoccs.s:7104   .text._ZN14MidiController12IsNoteActiveEh:00000010 $d
C:\Users\Marco\AppData\Local\Temp\ccVZoccs.s:7109   .text._ZN14MidiController19UpdateRunningStatusEh:00000000 $t
C:\Users\Marco\AppData\Local\Temp\ccVZoccs.s:7117   .text._ZN14MidiController19UpdateRunningStatusEh:00000000 _ZN14MidiController19UpdateRunningStatusEh
C:\Users\Marco\AppData\Local\Temp\ccVZoccs.s:7137   .text._ZN14MidiController19CanUseRunningStatusEh:00000000 $t
C:\Users\Marco\AppData\Local\Temp\ccVZoccs.s:7145   .text._ZN14MidiController19CanUseRunningStatusEh:00000000 _ZN14MidiController19CanUseRunningStatusEh
C:\Users\Marco\AppData\Local\Temp\ccVZoccs.s:7178   .text._ZN14MidiController15LogMidiActivityEPKchh:00000000 $t
C:\Users\Marco\AppData\Local\Temp\ccVZoccs.s:7186   .text._ZN14MidiController15LogMidiActivityEPKchh:00000000 _ZN14MidiController15LogMidiActivityEPKchh
C:\Users\Marco\AppData\Local\Temp\ccVZoccs.s:7200   .text._ZN14MidiController16UpdateStatisticsEv:00000000 $t
C:\Users\Marco\AppData\Local\Temp\ccVZoccs.s:7208   .text._ZN14MidiController16UpdateStatisticsEv:00000000 _ZN14MidiController16UpdateStatisticsEv

UNDEFINED SYMBOLS
_ZN5daisy6System6GetNowEv
_ZN5daisy11UartHandler6PollTxEPhj
_ZN5daisy16MidiUsbTransport2TxEPhj
_ZN5daisy17MidiUartTransport6ConfigC1Ev
memset
_Znaj
memcpy
_ZdaPv
_ZN5daisy16MidiUsbTransport4InitENS0_6ConfigE
_ZN5daisy10MidiParser5ResetEv
_ZN5daisy11UartHandler4InitERKNS0_6ConfigE
_ZNK13ConfigManager14GetMidiChannelEv
